

Microchip MPLAB XC8 Assembler V2.10 build 88905656 
                                                                                               Sat Apr 11 20:11:59 2020

Microchip MPLAB XC8 C Compiler v2.10 (Free license) build 20190730164152 Og1 
     1                           	processor	16F15356
     2                           	opt	pw 120
     3                           	opt	flic
     4                           	psect	cinit,global,class=CODE,merge=1,delta=2
     5                           	psect	bssCOMMON,global,class=COMMON,space=1,delta=1
     6                           	psect	bssBANK0,global,class=BANK0,space=1,delta=1
     7                           	psect	clrtext,global,class=CODE,delta=2
     8                           	psect	cstackCOMMON,global,class=COMMON,space=1,delta=1
     9                           	psect	cstackBANK0,global,class=BANK0,space=1,delta=1
    10                           	psect	maintext,global,class=CODE,merge=1,split=1,delta=2
    11                           	psect	text1,local,class=CODE,merge=1,delta=2
    12                           	psect	text2,local,class=CODE,merge=1,delta=2,group=2
    13                           	psect	text3,local,class=CODE,merge=1,delta=2,group=2
    14                           	psect	text4,local,class=CODE,merge=1,delta=2,group=2
    15                           	psect	text5,local,class=CODE,merge=1,delta=2,group=2
    16                           	psect	text6,local,class=CODE,merge=1,delta=2,group=1
    17                           	psect	text7,local,class=CODE,merge=1,delta=2
    18                           	psect	text8,local,class=CODE,merge=1,delta=2
    19                           	psect	text9,local,class=CODE,merge=1,delta=2
    20                           	psect	text10,local,class=CODE,merge=1,delta=2
    21                           	psect	text11,local,class=CODE,merge=1,delta=2
    22                           	psect	text12,local,class=CODE,merge=1,delta=2
    23                           	psect	text13,local,class=CODE,merge=1,delta=2
    24                           	psect	text14,local,class=CODE,merge=1,delta=2
    25                           	psect	text15,local,class=CODE,merge=1,delta=2
    26                           	psect	text16,local,class=CODE,merge=1,delta=2
    27                           	psect	text17,local,class=CODE,merge=1,delta=2
    28                           	psect	text18,local,class=CODE,merge=1,delta=2
    29                           	psect	text19,local,class=CODE,merge=1,delta=2
    30                           	psect	intentry,global,class=CODE,delta=2
    31                           	psect	text21,local,class=CODE,merge=1,delta=2
    32                           	dabs	1,0x7E,2
    33  0000                     
    34                           ; Version 2.10
    35                           ; Generated 31/07/2019 GMT
    36                           ; 
    37                           ; Copyright © 2019, Microchip Technology Inc. and its subsidiaries ("Microchip")
    38                           ; All rights reserved.
    39                           ; 
    40                           ; This software is developed by Microchip Technology Inc. and its subsidiaries ("Microch
      +                          ip").
    41                           ; 
    42                           ; Redistribution and use in source and binary forms, with or without modification, are
    43                           ; permitted provided that the following conditions are met:
    44                           ; 
    45                           ;     1. Redistributions of source code must retain the above copyright notice, this lis
      +                          t of
    46                           ;        conditions and the following disclaimer.
    47                           ; 
    48                           ;     2. Redistributions in binary form must reproduce the above copyright notice, this 
      +                          list
    49                           ;        of conditions and the following disclaimer in the documentation and/or other
    50                           ;        materials provided with the distribution.
    51                           ; 
    52                           ;     3. Microchip's name may not be used to endorse or promote products derived from th
      +                          is
    53                           ;        software without specific prior written permission.
    54                           ; 
    55                           ; THIS SOFTWARE IS PROVIDED BY MICROCHIP "AS IS" AND ANY EXPRESS OR IMPLIED WARRANTIES,
    56                           ; INCLUDING, BUT NOT LIMITED TO, THE IMPLIED WARRANTIES OF MERCHANTABILITY AND FITNESS F
      +                          OR
    57                           ; PURPOSE ARE DISCLAIMED.  IN NO EVENT SHALL MICROCHIP BE LIABLE FOR ANY DIRECT, INDIREC
      +                          T,
    58                           ; INCIDENTAL, SPECIAL, EXEMPLARY, OR CONSEQUENTIAL DAMAGES (INCLUDING BUT NOT LIMITED TO
    59                           ; PROCUREMENT OF SUBSTITUTE GOODS OR SERVICES; LOSS OF USE, DATA OR PROFITS; OR BUSINESS
    60                           ; INTERRUPTION) HOWSOEVER CAUSED AND ON ANY THEORY OF LIABILITY, WHETHER IN CONTRACT, ST
      +                          RICT
    61                           ; LIABILITY, OR TORT (INCLUDING NEGLIGENCE OR OTHERWISE) ARISING IN ANY WAY OUT OF THE U
      +                          SE OF
    62                           ; THIS SOFTWARE, EVEN IF ADVISED OF THE POSSIBILITY OF SUCH DAMAGE.
    63                           ; 
    64                           ; 
    65                           ; Code-generator required, PIC16F15356 Definitions
    66                           ; 
    67                           ; SFR Addresses
    68  0000                     	;# 
    69  0001                     	;# 
    70  0002                     	;# 
    71  0003                     	;# 
    72  0004                     	;# 
    73  0005                     	;# 
    74  0006                     	;# 
    75  0007                     	;# 
    76  0008                     	;# 
    77  0009                     	;# 
    78  000A                     	;# 
    79  000B                     	;# 
    80  000C                     	;# 
    81  000D                     	;# 
    82  000E                     	;# 
    83  0010                     	;# 
    84  0012                     	;# 
    85  0013                     	;# 
    86  0014                     	;# 
    87  0016                     	;# 
    88  0018                     	;# 
    89  0019                     	;# 
    90  001A                     	;# 
    91  009B                     	;# 
    92  009B                     	;# 
    93  009C                     	;# 
    94  009D                     	;# 
    95  009E                     	;# 
    96  009F                     	;# 
    97  0119                     	;# 
    98  0119                     	;# 
    99  0119                     	;# 
   100  011A                     	;# 
   101  011A                     	;# 
   102  011A                     	;# 
   103  011B                     	;# 
   104  011B                     	;# 
   105  011B                     	;# 
   106  011B                     	;# 
   107  011B                     	;# 
   108  011C                     	;# 
   109  011C                     	;# 
   110  011C                     	;# 
   111  011D                     	;# 
   112  011D                     	;# 
   113  011D                     	;# 
   114  011E                     	;# 
   115  011E                     	;# 
   116  011E                     	;# 
   117  011F                     	;# 
   118  011F                     	;# 
   119  011F                     	;# 
   120  011F                     	;# 
   121  011F                     	;# 
   122  018C                     	;# 
   123  018D                     	;# 
   124  018E                     	;# 
   125  018F                     	;# 
   126  0190                     	;# 
   127  0191                     	;# 
   128  0192                     	;# 
   129  0196                     	;# 
   130  0197                     	;# 
   131  0198                     	;# 
   132  0199                     	;# 
   133  019A                     	;# 
   134  019B                     	;# 
   135  019C                     	;# 
   136  020C                     	;# 
   137  020C                     	;# 
   138  020D                     	;# 
   139  020E                     	;# 
   140  020F                     	;# 
   141  020F                     	;# 
   142  0210                     	;# 
   143  0210                     	;# 
   144  0211                     	;# 
   145  0211                     	;# 
   146  028C                     	;# 
   147  028C                     	;# 
   148  028D                     	;# 
   149  028D                     	;# 
   150  028E                     	;# 
   151  028F                     	;# 
   152  0290                     	;# 
   153  0291                     	;# 
   154  030C                     	;# 
   155  030C                     	;# 
   156  030D                     	;# 
   157  030E                     	;# 
   158  030F                     	;# 
   159  0310                     	;# 
   160  0310                     	;# 
   161  0311                     	;# 
   162  0312                     	;# 
   163  0313                     	;# 
   164  0314                     	;# 
   165  0314                     	;# 
   166  0315                     	;# 
   167  0316                     	;# 
   168  0318                     	;# 
   169  0318                     	;# 
   170  0319                     	;# 
   171  031A                     	;# 
   172  031C                     	;# 
   173  031C                     	;# 
   174  031D                     	;# 
   175  031E                     	;# 
   176  038C                     	;# 
   177  038C                     	;# 
   178  038D                     	;# 
   179  038E                     	;# 
   180  058C                     	;# 
   181  058C                     	;# 
   182  058D                     	;# 
   183  058E                     	;# 
   184  058F                     	;# 
   185  058F                     	;# 
   186  0590                     	;# 
   187  0591                     	;# 
   188  0592                     	;# 
   189  0593                     	;# 
   190  059C                     	;# 
   191  059C                     	;# 
   192  059D                     	;# 
   193  059D                     	;# 
   194  059E                     	;# 
   195  059F                     	;# 
   196  060C                     	;# 
   197  060D                     	;# 
   198  060E                     	;# 
   199  060F                     	;# 
   200  0610                     	;# 
   201  0611                     	;# 
   202  0612                     	;# 
   203  0613                     	;# 
   204  0614                     	;# 
   205  070C                     	;# 
   206  070D                     	;# 
   207  070E                     	;# 
   208  070F                     	;# 
   209  0710                     	;# 
   210  0711                     	;# 
   211  0712                     	;# 
   212  0713                     	;# 
   213  0716                     	;# 
   214  0717                     	;# 
   215  0718                     	;# 
   216  0719                     	;# 
   217  071A                     	;# 
   218  071B                     	;# 
   219  071C                     	;# 
   220  071D                     	;# 
   221  0796                     	;# 
   222  0797                     	;# 
   223  0798                     	;# 
   224  0799                     	;# 
   225  079A                     	;# 
   226  079B                     	;# 
   227  080C                     	;# 
   228  080D                     	;# 
   229  080E                     	;# 
   230  080F                     	;# 
   231  0810                     	;# 
   232  0811                     	;# 
   233  0812                     	;# 
   234  0813                     	;# 
   235  0814                     	;# 
   236  081A                     	;# 
   237  081A                     	;# 
   238  081B                     	;# 
   239  081C                     	;# 
   240  081C                     	;# 
   241  081D                     	;# 
   242  081E                     	;# 
   243  081F                     	;# 
   244  088C                     	;# 
   245  088D                     	;# 
   246  088E                     	;# 
   247  088F                     	;# 
   248  0890                     	;# 
   249  0891                     	;# 
   250  0892                     	;# 
   251  0893                     	;# 
   252  0895                     	;# 
   253  0896                     	;# 
   254  090C                     	;# 
   255  090E                     	;# 
   256  090F                     	;# 
   257  091F                     	;# 
   258  098F                     	;# 
   259  098F                     	;# 
   260  0990                     	;# 
   261  0991                     	;# 
   262  0992                     	;# 
   263  0993                     	;# 
   264  0994                     	;# 
   265  0995                     	;# 
   266  0996                     	;# 
   267  0997                     	;# 
   268  0A19                     	;# 
   269  0A19                     	;# 
   270  0A1A                     	;# 
   271  0A1A                     	;# 
   272  0A1B                     	;# 
   273  0A1B                     	;# 
   274  0A1B                     	;# 
   275  0A1C                     	;# 
   276  0A1C                     	;# 
   277  0A1D                     	;# 
   278  0A1D                     	;# 
   279  0A1E                     	;# 
   280  0A1E                     	;# 
   281  0A1F                     	;# 
   282  0A1F                     	;# 
   283  0A1F                     	;# 
   284  1E0F                     	;# 
   285  1E10                     	;# 
   286  1E11                     	;# 
   287  1E12                     	;# 
   288  1E13                     	;# 
   289  1E14                     	;# 
   290  1E15                     	;# 
   291  1E16                     	;# 
   292  1E17                     	;# 
   293  1E18                     	;# 
   294  1E19                     	;# 
   295  1E1A                     	;# 
   296  1E1B                     	;# 
   297  1E1C                     	;# 
   298  1E1D                     	;# 
   299  1E1E                     	;# 
   300  1E1F                     	;# 
   301  1E20                     	;# 
   302  1E21                     	;# 
   303  1E22                     	;# 
   304  1E23                     	;# 
   305  1E24                     	;# 
   306  1E25                     	;# 
   307  1E26                     	;# 
   308  1E27                     	;# 
   309  1E28                     	;# 
   310  1E29                     	;# 
   311  1E2A                     	;# 
   312  1E2B                     	;# 
   313  1E2C                     	;# 
   314  1E2D                     	;# 
   315  1E2E                     	;# 
   316  1E2F                     	;# 
   317  1E30                     	;# 
   318  1E31                     	;# 
   319  1E32                     	;# 
   320  1E33                     	;# 
   321  1E34                     	;# 
   322  1E35                     	;# 
   323  1E36                     	;# 
   324  1E37                     	;# 
   325  1E8F                     	;# 
   326  1E90                     	;# 
   327  1E91                     	;# 
   328  1E92                     	;# 
   329  1E93                     	;# 
   330  1E9C                     	;# 
   331  1EA1                     	;# 
   332  1EA2                     	;# 
   333  1EB1                     	;# 
   334  1EBB                     	;# 
   335  1EBC                     	;# 
   336  1EBD                     	;# 
   337  1EBE                     	;# 
   338  1EC3                     	;# 
   339  1EC5                     	;# 
   340  1EC6                     	;# 
   341  1EC7                     	;# 
   342  1EC8                     	;# 
   343  1EC9                     	;# 
   344  1ECA                     	;# 
   345  1ECB                     	;# 
   346  1ECC                     	;# 
   347  1ECD                     	;# 
   348  1ECE                     	;# 
   349  1F10                     	;# 
   350  1F11                     	;# 
   351  1F12                     	;# 
   352  1F13                     	;# 
   353  1F14                     	;# 
   354  1F15                     	;# 
   355  1F16                     	;# 
   356  1F17                     	;# 
   357  1F18                     	;# 
   358  1F19                     	;# 
   359  1F1A                     	;# 
   360  1F1B                     	;# 
   361  1F1C                     	;# 
   362  1F1D                     	;# 
   363  1F1E                     	;# 
   364  1F1F                     	;# 
   365  1F20                     	;# 
   366  1F21                     	;# 
   367  1F22                     	;# 
   368  1F23                     	;# 
   369  1F24                     	;# 
   370  1F25                     	;# 
   371  1F26                     	;# 
   372  1F27                     	;# 
   373  1F38                     	;# 
   374  1F39                     	;# 
   375  1F3A                     	;# 
   376  1F3B                     	;# 
   377  1F3C                     	;# 
   378  1F3D                     	;# 
   379  1F3E                     	;# 
   380  1F3F                     	;# 
   381  1F43                     	;# 
   382  1F44                     	;# 
   383  1F45                     	;# 
   384  1F46                     	;# 
   385  1F47                     	;# 
   386  1F48                     	;# 
   387  1F49                     	;# 
   388  1F4A                     	;# 
   389  1F4E                     	;# 
   390  1F4F                     	;# 
   391  1F50                     	;# 
   392  1F51                     	;# 
   393  1F52                     	;# 
   394  1F53                     	;# 
   395  1F54                     	;# 
   396  1F55                     	;# 
   397  1F65                     	;# 
   398  1F68                     	;# 
   399  1F69                     	;# 
   400  1F6A                     	;# 
   401  1F6B                     	;# 
   402  1FE4                     	;# 
   403  1FE5                     	;# 
   404  1FE6                     	;# 
   405  1FE7                     	;# 
   406  1FE8                     	;# 
   407  1FE8                     	;# 
   408  1FE9                     	;# 
   409  1FEA                     	;# 
   410  1FEB                     	;# 
   411  1FED                     	;# 
   412  1FEE                     	;# 
   413  1FEF                     	;# 
   414  0000                     	;# 
   415  0001                     	;# 
   416  0002                     	;# 
   417  0003                     	;# 
   418  0004                     	;# 
   419  0005                     	;# 
   420  0006                     	;# 
   421  0007                     	;# 
   422  0008                     	;# 
   423  0009                     	;# 
   424  000A                     	;# 
   425  000B                     	;# 
   426  000C                     	;# 
   427  000D                     	;# 
   428  000E                     	;# 
   429  0010                     	;# 
   430  0012                     	;# 
   431  0013                     	;# 
   432  0014                     	;# 
   433  0016                     	;# 
   434  0018                     	;# 
   435  0019                     	;# 
   436  001A                     	;# 
   437  009B                     	;# 
   438  009B                     	;# 
   439  009C                     	;# 
   440  009D                     	;# 
   441  009E                     	;# 
   442  009F                     	;# 
   443  0119                     	;# 
   444  0119                     	;# 
   445  0119                     	;# 
   446  011A                     	;# 
   447  011A                     	;# 
   448  011A                     	;# 
   449  011B                     	;# 
   450  011B                     	;# 
   451  011B                     	;# 
   452  011B                     	;# 
   453  011B                     	;# 
   454  011C                     	;# 
   455  011C                     	;# 
   456  011C                     	;# 
   457  011D                     	;# 
   458  011D                     	;# 
   459  011D                     	;# 
   460  011E                     	;# 
   461  011E                     	;# 
   462  011E                     	;# 
   463  011F                     	;# 
   464  011F                     	;# 
   465  011F                     	;# 
   466  011F                     	;# 
   467  011F                     	;# 
   468  018C                     	;# 
   469  018D                     	;# 
   470  018E                     	;# 
   471  018F                     	;# 
   472  0190                     	;# 
   473  0191                     	;# 
   474  0192                     	;# 
   475  0196                     	;# 
   476  0197                     	;# 
   477  0198                     	;# 
   478  0199                     	;# 
   479  019A                     	;# 
   480  019B                     	;# 
   481  019C                     	;# 
   482  020C                     	;# 
   483  020C                     	;# 
   484  020D                     	;# 
   485  020E                     	;# 
   486  020F                     	;# 
   487  020F                     	;# 
   488  0210                     	;# 
   489  0210                     	;# 
   490  0211                     	;# 
   491  0211                     	;# 
   492  028C                     	;# 
   493  028C                     	;# 
   494  028D                     	;# 
   495  028D                     	;# 
   496  028E                     	;# 
   497  028F                     	;# 
   498  0290                     	;# 
   499  0291                     	;# 
   500  030C                     	;# 
   501  030C                     	;# 
   502  030D                     	;# 
   503  030E                     	;# 
   504  030F                     	;# 
   505  0310                     	;# 
   506  0310                     	;# 
   507  0311                     	;# 
   508  0312                     	;# 
   509  0313                     	;# 
   510  0314                     	;# 
   511  0314                     	;# 
   512  0315                     	;# 
   513  0316                     	;# 
   514  0318                     	;# 
   515  0318                     	;# 
   516  0319                     	;# 
   517  031A                     	;# 
   518  031C                     	;# 
   519  031C                     	;# 
   520  031D                     	;# 
   521  031E                     	;# 
   522  038C                     	;# 
   523  038C                     	;# 
   524  038D                     	;# 
   525  038E                     	;# 
   526  058C                     	;# 
   527  058C                     	;# 
   528  058D                     	;# 
   529  058E                     	;# 
   530  058F                     	;# 
   531  058F                     	;# 
   532  0590                     	;# 
   533  0591                     	;# 
   534  0592                     	;# 
   535  0593                     	;# 
   536  059C                     	;# 
   537  059C                     	;# 
   538  059D                     	;# 
   539  059D                     	;# 
   540  059E                     	;# 
   541  059F                     	;# 
   542  060C                     	;# 
   543  060D                     	;# 
   544  060E                     	;# 
   545  060F                     	;# 
   546  0610                     	;# 
   547  0611                     	;# 
   548  0612                     	;# 
   549  0613                     	;# 
   550  0614                     	;# 
   551  070C                     	;# 
   552  070D                     	;# 
   553  070E                     	;# 
   554  070F                     	;# 
   555  0710                     	;# 
   556  0711                     	;# 
   557  0712                     	;# 
   558  0713                     	;# 
   559  0716                     	;# 
   560  0717                     	;# 
   561  0718                     	;# 
   562  0719                     	;# 
   563  071A                     	;# 
   564  071B                     	;# 
   565  071C                     	;# 
   566  071D                     	;# 
   567  0796                     	;# 
   568  0797                     	;# 
   569  0798                     	;# 
   570  0799                     	;# 
   571  079A                     	;# 
   572  079B                     	;# 
   573  080C                     	;# 
   574  080D                     	;# 
   575  080E                     	;# 
   576  080F                     	;# 
   577  0810                     	;# 
   578  0811                     	;# 
   579  0812                     	;# 
   580  0813                     	;# 
   581  0814                     	;# 
   582  081A                     	;# 
   583  081A                     	;# 
   584  081B                     	;# 
   585  081C                     	;# 
   586  081C                     	;# 
   587  081D                     	;# 
   588  081E                     	;# 
   589  081F                     	;# 
   590  088C                     	;# 
   591  088D                     	;# 
   592  088E                     	;# 
   593  088F                     	;# 
   594  0890                     	;# 
   595  0891                     	;# 
   596  0892                     	;# 
   597  0893                     	;# 
   598  0895                     	;# 
   599  0896                     	;# 
   600  090C                     	;# 
   601  090E                     	;# 
   602  090F                     	;# 
   603  091F                     	;# 
   604  098F                     	;# 
   605  098F                     	;# 
   606  0990                     	;# 
   607  0991                     	;# 
   608  0992                     	;# 
   609  0993                     	;# 
   610  0994                     	;# 
   611  0995                     	;# 
   612  0996                     	;# 
   613  0997                     	;# 
   614  0A19                     	;# 
   615  0A19                     	;# 
   616  0A1A                     	;# 
   617  0A1A                     	;# 
   618  0A1B                     	;# 
   619  0A1B                     	;# 
   620  0A1B                     	;# 
   621  0A1C                     	;# 
   622  0A1C                     	;# 
   623  0A1D                     	;# 
   624  0A1D                     	;# 
   625  0A1E                     	;# 
   626  0A1E                     	;# 
   627  0A1F                     	;# 
   628  0A1F                     	;# 
   629  0A1F                     	;# 
   630  1E0F                     	;# 
   631  1E10                     	;# 
   632  1E11                     	;# 
   633  1E12                     	;# 
   634  1E13                     	;# 
   635  1E14                     	;# 
   636  1E15                     	;# 
   637  1E16                     	;# 
   638  1E17                     	;# 
   639  1E18                     	;# 
   640  1E19                     	;# 
   641  1E1A                     	;# 
   642  1E1B                     	;# 
   643  1E1C                     	;# 
   644  1E1D                     	;# 
   645  1E1E                     	;# 
   646  1E1F                     	;# 
   647  1E20                     	;# 
   648  1E21                     	;# 
   649  1E22                     	;# 
   650  1E23                     	;# 
   651  1E24                     	;# 
   652  1E25                     	;# 
   653  1E26                     	;# 
   654  1E27                     	;# 
   655  1E28                     	;# 
   656  1E29                     	;# 
   657  1E2A                     	;# 
   658  1E2B                     	;# 
   659  1E2C                     	;# 
   660  1E2D                     	;# 
   661  1E2E                     	;# 
   662  1E2F                     	;# 
   663  1E30                     	;# 
   664  1E31                     	;# 
   665  1E32                     	;# 
   666  1E33                     	;# 
   667  1E34                     	;# 
   668  1E35                     	;# 
   669  1E36                     	;# 
   670  1E37                     	;# 
   671  1E8F                     	;# 
   672  1E90                     	;# 
   673  1E91                     	;# 
   674  1E92                     	;# 
   675  1E93                     	;# 
   676  1E9C                     	;# 
   677  1EA1                     	;# 
   678  1EA2                     	;# 
   679  1EB1                     	;# 
   680  1EBB                     	;# 
   681  1EBC                     	;# 
   682  1EBD                     	;# 
   683  1EBE                     	;# 
   684  1EC3                     	;# 
   685  1EC5                     	;# 
   686  1EC6                     	;# 
   687  1EC7                     	;# 
   688  1EC8                     	;# 
   689  1EC9                     	;# 
   690  1ECA                     	;# 
   691  1ECB                     	;# 
   692  1ECC                     	;# 
   693  1ECD                     	;# 
   694  1ECE                     	;# 
   695  1F10                     	;# 
   696  1F11                     	;# 
   697  1F12                     	;# 
   698  1F13                     	;# 
   699  1F14                     	;# 
   700  1F15                     	;# 
   701  1F16                     	;# 
   702  1F17                     	;# 
   703  1F18                     	;# 
   704  1F19                     	;# 
   705  1F1A                     	;# 
   706  1F1B                     	;# 
   707  1F1C                     	;# 
   708  1F1D                     	;# 
   709  1F1E                     	;# 
   710  1F1F                     	;# 
   711  1F20                     	;# 
   712  1F21                     	;# 
   713  1F22                     	;# 
   714  1F23                     	;# 
   715  1F24                     	;# 
   716  1F25                     	;# 
   717  1F26                     	;# 
   718  1F27                     	;# 
   719  1F38                     	;# 
   720  1F39                     	;# 
   721  1F3A                     	;# 
   722  1F3B                     	;# 
   723  1F3C                     	;# 
   724  1F3D                     	;# 
   725  1F3E                     	;# 
   726  1F3F                     	;# 
   727  1F43                     	;# 
   728  1F44                     	;# 
   729  1F45                     	;# 
   730  1F46                     	;# 
   731  1F47                     	;# 
   732  1F48                     	;# 
   733  1F49                     	;# 
   734  1F4A                     	;# 
   735  1F4E                     	;# 
   736  1F4F                     	;# 
   737  1F50                     	;# 
   738  1F51                     	;# 
   739  1F52                     	;# 
   740  1F53                     	;# 
   741  1F54                     	;# 
   742  1F55                     	;# 
   743  1F65                     	;# 
   744  1F68                     	;# 
   745  1F69                     	;# 
   746  1F6A                     	;# 
   747  1F6B                     	;# 
   748  1FE4                     	;# 
   749  1FE5                     	;# 
   750  1FE6                     	;# 
   751  1FE7                     	;# 
   752  1FE8                     	;# 
   753  1FE8                     	;# 
   754  1FE9                     	;# 
   755  1FEA                     	;# 
   756  1FEB                     	;# 
   757  1FED                     	;# 
   758  1FEE                     	;# 
   759  1FEF                     	;# 
   760  0000                     	;# 
   761  0001                     	;# 
   762  0002                     	;# 
   763  0003                     	;# 
   764  0004                     	;# 
   765  0005                     	;# 
   766  0006                     	;# 
   767  0007                     	;# 
   768  0008                     	;# 
   769  0009                     	;# 
   770  000A                     	;# 
   771  000B                     	;# 
   772  000C                     	;# 
   773  000D                     	;# 
   774  000E                     	;# 
   775  0010                     	;# 
   776  0012                     	;# 
   777  0013                     	;# 
   778  0014                     	;# 
   779  0016                     	;# 
   780  0018                     	;# 
   781  0019                     	;# 
   782  001A                     	;# 
   783  009B                     	;# 
   784  009B                     	;# 
   785  009C                     	;# 
   786  009D                     	;# 
   787  009E                     	;# 
   788  009F                     	;# 
   789  0119                     	;# 
   790  0119                     	;# 
   791  0119                     	;# 
   792  011A                     	;# 
   793  011A                     	;# 
   794  011A                     	;# 
   795  011B                     	;# 
   796  011B                     	;# 
   797  011B                     	;# 
   798  011B                     	;# 
   799  011B                     	;# 
   800  011C                     	;# 
   801  011C                     	;# 
   802  011C                     	;# 
   803  011D                     	;# 
   804  011D                     	;# 
   805  011D                     	;# 
   806  011E                     	;# 
   807  011E                     	;# 
   808  011E                     	;# 
   809  011F                     	;# 
   810  011F                     	;# 
   811  011F                     	;# 
   812  011F                     	;# 
   813  011F                     	;# 
   814  018C                     	;# 
   815  018D                     	;# 
   816  018E                     	;# 
   817  018F                     	;# 
   818  0190                     	;# 
   819  0191                     	;# 
   820  0192                     	;# 
   821  0196                     	;# 
   822  0197                     	;# 
   823  0198                     	;# 
   824  0199                     	;# 
   825  019A                     	;# 
   826  019B                     	;# 
   827  019C                     	;# 
   828  020C                     	;# 
   829  020C                     	;# 
   830  020D                     	;# 
   831  020E                     	;# 
   832  020F                     	;# 
   833  020F                     	;# 
   834  0210                     	;# 
   835  0210                     	;# 
   836  0211                     	;# 
   837  0211                     	;# 
   838  028C                     	;# 
   839  028C                     	;# 
   840  028D                     	;# 
   841  028D                     	;# 
   842  028E                     	;# 
   843  028F                     	;# 
   844  0290                     	;# 
   845  0291                     	;# 
   846  030C                     	;# 
   847  030C                     	;# 
   848  030D                     	;# 
   849  030E                     	;# 
   850  030F                     	;# 
   851  0310                     	;# 
   852  0310                     	;# 
   853  0311                     	;# 
   854  0312                     	;# 
   855  0313                     	;# 
   856  0314                     	;# 
   857  0314                     	;# 
   858  0315                     	;# 
   859  0316                     	;# 
   860  0318                     	;# 
   861  0318                     	;# 
   862  0319                     	;# 
   863  031A                     	;# 
   864  031C                     	;# 
   865  031C                     	;# 
   866  031D                     	;# 
   867  031E                     	;# 
   868  038C                     	;# 
   869  038C                     	;# 
   870  038D                     	;# 
   871  038E                     	;# 
   872  058C                     	;# 
   873  058C                     	;# 
   874  058D                     	;# 
   875  058E                     	;# 
   876  058F                     	;# 
   877  058F                     	;# 
   878  0590                     	;# 
   879  0591                     	;# 
   880  0592                     	;# 
   881  0593                     	;# 
   882  059C                     	;# 
   883  059C                     	;# 
   884  059D                     	;# 
   885  059D                     	;# 
   886  059E                     	;# 
   887  059F                     	;# 
   888  060C                     	;# 
   889  060D                     	;# 
   890  060E                     	;# 
   891  060F                     	;# 
   892  0610                     	;# 
   893  0611                     	;# 
   894  0612                     	;# 
   895  0613                     	;# 
   896  0614                     	;# 
   897  070C                     	;# 
   898  070D                     	;# 
   899  070E                     	;# 
   900  070F                     	;# 
   901  0710                     	;# 
   902  0711                     	;# 
   903  0712                     	;# 
   904  0713                     	;# 
   905  0716                     	;# 
   906  0717                     	;# 
   907  0718                     	;# 
   908  0719                     	;# 
   909  071A                     	;# 
   910  071B                     	;# 
   911  071C                     	;# 
   912  071D                     	;# 
   913  0796                     	;# 
   914  0797                     	;# 
   915  0798                     	;# 
   916  0799                     	;# 
   917  079A                     	;# 
   918  079B                     	;# 
   919  080C                     	;# 
   920  080D                     	;# 
   921  080E                     	;# 
   922  080F                     	;# 
   923  0810                     	;# 
   924  0811                     	;# 
   925  0812                     	;# 
   926  0813                     	;# 
   927  0814                     	;# 
   928  081A                     	;# 
   929  081A                     	;# 
   930  081B                     	;# 
   931  081C                     	;# 
   932  081C                     	;# 
   933  081D                     	;# 
   934  081E                     	;# 
   935  081F                     	;# 
   936  088C                     	;# 
   937  088D                     	;# 
   938  088E                     	;# 
   939  088F                     	;# 
   940  0890                     	;# 
   941  0891                     	;# 
   942  0892                     	;# 
   943  0893                     	;# 
   944  0895                     	;# 
   945  0896                     	;# 
   946  090C                     	;# 
   947  090E                     	;# 
   948  090F                     	;# 
   949  091F                     	;# 
   950  098F                     	;# 
   951  098F                     	;# 
   952  0990                     	;# 
   953  0991                     	;# 
   954  0992                     	;# 
   955  0993                     	;# 
   956  0994                     	;# 
   957  0995                     	;# 
   958  0996                     	;# 
   959  0997                     	;# 
   960  0A19                     	;# 
   961  0A19                     	;# 
   962  0A1A                     	;# 
   963  0A1A                     	;# 
   964  0A1B                     	;# 
   965  0A1B                     	;# 
   966  0A1B                     	;# 
   967  0A1C                     	;# 
   968  0A1C                     	;# 
   969  0A1D                     	;# 
   970  0A1D                     	;# 
   971  0A1E                     	;# 
   972  0A1E                     	;# 
   973  0A1F                     	;# 
   974  0A1F                     	;# 
   975  0A1F                     	;# 
   976  1E0F                     	;# 
   977  1E10                     	;# 
   978  1E11                     	;# 
   979  1E12                     	;# 
   980  1E13                     	;# 
   981  1E14                     	;# 
   982  1E15                     	;# 
   983  1E16                     	;# 
   984  1E17                     	;# 
   985  1E18                     	;# 
   986  1E19                     	;# 
   987  1E1A                     	;# 
   988  1E1B                     	;# 
   989  1E1C                     	;# 
   990  1E1D                     	;# 
   991  1E1E                     	;# 
   992  1E1F                     	;# 
   993  1E20                     	;# 
   994  1E21                     	;# 
   995  1E22                     	;# 
   996  1E23                     	;# 
   997  1E24                     	;# 
   998  1E25                     	;# 
   999  1E26                     	;# 
  1000  1E27                     	;# 
  1001  1E28                     	;# 
  1002  1E29                     	;# 
  1003  1E2A                     	;# 
  1004  1E2B                     	;# 
  1005  1E2C                     	;# 
  1006  1E2D                     	;# 
  1007  1E2E                     	;# 
  1008  1E2F                     	;# 
  1009  1E30                     	;# 
  1010  1E31                     	;# 
  1011  1E32                     	;# 
  1012  1E33                     	;# 
  1013  1E34                     	;# 
  1014  1E35                     	;# 
  1015  1E36                     	;# 
  1016  1E37                     	;# 
  1017  1E8F                     	;# 
  1018  1E90                     	;# 
  1019  1E91                     	;# 
  1020  1E92                     	;# 
  1021  1E93                     	;# 
  1022  1E9C                     	;# 
  1023  1EA1                     	;# 
  1024  1EA2                     	;# 
  1025  1EB1                     	;# 
  1026  1EBB                     	;# 
  1027  1EBC                     	;# 
  1028  1EBD                     	;# 
  1029  1EBE                     	;# 
  1030  1EC3                     	;# 
  1031  1EC5                     	;# 
  1032  1EC6                     	;# 
  1033  1EC7                     	;# 
  1034  1EC8                     	;# 
  1035  1EC9                     	;# 
  1036  1ECA                     	;# 
  1037  1ECB                     	;# 
  1038  1ECC                     	;# 
  1039  1ECD                     	;# 
  1040  1ECE                     	;# 
  1041  1F10                     	;# 
  1042  1F11                     	;# 
  1043  1F12                     	;# 
  1044  1F13                     	;# 
  1045  1F14                     	;# 
  1046  1F15                     	;# 
  1047  1F16                     	;# 
  1048  1F17                     	;# 
  1049  1F18                     	;# 
  1050  1F19                     	;# 
  1051  1F1A                     	;# 
  1052  1F1B                     	;# 
  1053  1F1C                     	;# 
  1054  1F1D                     	;# 
  1055  1F1E                     	;# 
  1056  1F1F                     	;# 
  1057  1F20                     	;# 
  1058  1F21                     	;# 
  1059  1F22                     	;# 
  1060  1F23                     	;# 
  1061  1F24                     	;# 
  1062  1F25                     	;# 
  1063  1F26                     	;# 
  1064  1F27                     	;# 
  1065  1F38                     	;# 
  1066  1F39                     	;# 
  1067  1F3A                     	;# 
  1068  1F3B                     	;# 
  1069  1F3C                     	;# 
  1070  1F3D                     	;# 
  1071  1F3E                     	;# 
  1072  1F3F                     	;# 
  1073  1F43                     	;# 
  1074  1F44                     	;# 
  1075  1F45                     	;# 
  1076  1F46                     	;# 
  1077  1F47                     	;# 
  1078  1F48                     	;# 
  1079  1F49                     	;# 
  1080  1F4A                     	;# 
  1081  1F4E                     	;# 
  1082  1F4F                     	;# 
  1083  1F50                     	;# 
  1084  1F51                     	;# 
  1085  1F52                     	;# 
  1086  1F53                     	;# 
  1087  1F54                     	;# 
  1088  1F55                     	;# 
  1089  1F65                     	;# 
  1090  1F68                     	;# 
  1091  1F69                     	;# 
  1092  1F6A                     	;# 
  1093  1F6B                     	;# 
  1094  1FE4                     	;# 
  1095  1FE5                     	;# 
  1096  1FE6                     	;# 
  1097  1FE7                     	;# 
  1098  1FE8                     	;# 
  1099  1FE8                     	;# 
  1100  1FE9                     	;# 
  1101  1FEA                     	;# 
  1102  1FEB                     	;# 
  1103  1FED                     	;# 
  1104  1FEE                     	;# 
  1105  1FEF                     	;# 
  1106  0000                     	;# 
  1107  0001                     	;# 
  1108  0002                     	;# 
  1109  0003                     	;# 
  1110  0004                     	;# 
  1111  0005                     	;# 
  1112  0006                     	;# 
  1113  0007                     	;# 
  1114  0008                     	;# 
  1115  0009                     	;# 
  1116  000A                     	;# 
  1117  000B                     	;# 
  1118  000C                     	;# 
  1119  000D                     	;# 
  1120  000E                     	;# 
  1121  0010                     	;# 
  1122  0012                     	;# 
  1123  0013                     	;# 
  1124  0014                     	;# 
  1125  0016                     	;# 
  1126  0018                     	;# 
  1127  0019                     	;# 
  1128  001A                     	;# 
  1129  009B                     	;# 
  1130  009B                     	;# 
  1131  009C                     	;# 
  1132  009D                     	;# 
  1133  009E                     	;# 
  1134  009F                     	;# 
  1135  0119                     	;# 
  1136  0119                     	;# 
  1137  0119                     	;# 
  1138  011A                     	;# 
  1139  011A                     	;# 
  1140  011A                     	;# 
  1141  011B                     	;# 
  1142  011B                     	;# 
  1143  011B                     	;# 
  1144  011B                     	;# 
  1145  011B                     	;# 
  1146  011C                     	;# 
  1147  011C                     	;# 
  1148  011C                     	;# 
  1149  011D                     	;# 
  1150  011D                     	;# 
  1151  011D                     	;# 
  1152  011E                     	;# 
  1153  011E                     	;# 
  1154  011E                     	;# 
  1155  011F                     	;# 
  1156  011F                     	;# 
  1157  011F                     	;# 
  1158  011F                     	;# 
  1159  011F                     	;# 
  1160  018C                     	;# 
  1161  018D                     	;# 
  1162  018E                     	;# 
  1163  018F                     	;# 
  1164  0190                     	;# 
  1165  0191                     	;# 
  1166  0192                     	;# 
  1167  0196                     	;# 
  1168  0197                     	;# 
  1169  0198                     	;# 
  1170  0199                     	;# 
  1171  019A                     	;# 
  1172  019B                     	;# 
  1173  019C                     	;# 
  1174  020C                     	;# 
  1175  020C                     	;# 
  1176  020D                     	;# 
  1177  020E                     	;# 
  1178  020F                     	;# 
  1179  020F                     	;# 
  1180  0210                     	;# 
  1181  0210                     	;# 
  1182  0211                     	;# 
  1183  0211                     	;# 
  1184  028C                     	;# 
  1185  028C                     	;# 
  1186  028D                     	;# 
  1187  028D                     	;# 
  1188  028E                     	;# 
  1189  028F                     	;# 
  1190  0290                     	;# 
  1191  0291                     	;# 
  1192  030C                     	;# 
  1193  030C                     	;# 
  1194  030D                     	;# 
  1195  030E                     	;# 
  1196  030F                     	;# 
  1197  0310                     	;# 
  1198  0310                     	;# 
  1199  0311                     	;# 
  1200  0312                     	;# 
  1201  0313                     	;# 
  1202  0314                     	;# 
  1203  0314                     	;# 
  1204  0315                     	;# 
  1205  0316                     	;# 
  1206  0318                     	;# 
  1207  0318                     	;# 
  1208  0319                     	;# 
  1209  031A                     	;# 
  1210  031C                     	;# 
  1211  031C                     	;# 
  1212  031D                     	;# 
  1213  031E                     	;# 
  1214  038C                     	;# 
  1215  038C                     	;# 
  1216  038D                     	;# 
  1217  038E                     	;# 
  1218  058C                     	;# 
  1219  058C                     	;# 
  1220  058D                     	;# 
  1221  058E                     	;# 
  1222  058F                     	;# 
  1223  058F                     	;# 
  1224  0590                     	;# 
  1225  0591                     	;# 
  1226  0592                     	;# 
  1227  0593                     	;# 
  1228  059C                     	;# 
  1229  059C                     	;# 
  1230  059D                     	;# 
  1231  059D                     	;# 
  1232  059E                     	;# 
  1233  059F                     	;# 
  1234  060C                     	;# 
  1235  060D                     	;# 
  1236  060E                     	;# 
  1237  060F                     	;# 
  1238  0610                     	;# 
  1239  0611                     	;# 
  1240  0612                     	;# 
  1241  0613                     	;# 
  1242  0614                     	;# 
  1243  070C                     	;# 
  1244  070D                     	;# 
  1245  070E                     	;# 
  1246  070F                     	;# 
  1247  0710                     	;# 
  1248  0711                     	;# 
  1249  0712                     	;# 
  1250  0713                     	;# 
  1251  0716                     	;# 
  1252  0717                     	;# 
  1253  0718                     	;# 
  1254  0719                     	;# 
  1255  071A                     	;# 
  1256  071B                     	;# 
  1257  071C                     	;# 
  1258  071D                     	;# 
  1259  0796                     	;# 
  1260  0797                     	;# 
  1261  0798                     	;# 
  1262  0799                     	;# 
  1263  079A                     	;# 
  1264  079B                     	;# 
  1265  080C                     	;# 
  1266  080D                     	;# 
  1267  080E                     	;# 
  1268  080F                     	;# 
  1269  0810                     	;# 
  1270  0811                     	;# 
  1271  0812                     	;# 
  1272  0813                     	;# 
  1273  0814                     	;# 
  1274  081A                     	;# 
  1275  081A                     	;# 
  1276  081B                     	;# 
  1277  081C                     	;# 
  1278  081C                     	;# 
  1279  081D                     	;# 
  1280  081E                     	;# 
  1281  081F                     	;# 
  1282  088C                     	;# 
  1283  088D                     	;# 
  1284  088E                     	;# 
  1285  088F                     	;# 
  1286  0890                     	;# 
  1287  0891                     	;# 
  1288  0892                     	;# 
  1289  0893                     	;# 
  1290  0895                     	;# 
  1291  0896                     	;# 
  1292  090C                     	;# 
  1293  090E                     	;# 
  1294  090F                     	;# 
  1295  091F                     	;# 
  1296  098F                     	;# 
  1297  098F                     	;# 
  1298  0990                     	;# 
  1299  0991                     	;# 
  1300  0992                     	;# 
  1301  0993                     	;# 
  1302  0994                     	;# 
  1303  0995                     	;# 
  1304  0996                     	;# 
  1305  0997                     	;# 
  1306  0A19                     	;# 
  1307  0A19                     	;# 
  1308  0A1A                     	;# 
  1309  0A1A                     	;# 
  1310  0A1B                     	;# 
  1311  0A1B                     	;# 
  1312  0A1B                     	;# 
  1313  0A1C                     	;# 
  1314  0A1C                     	;# 
  1315  0A1D                     	;# 
  1316  0A1D                     	;# 
  1317  0A1E                     	;# 
  1318  0A1E                     	;# 
  1319  0A1F                     	;# 
  1320  0A1F                     	;# 
  1321  0A1F                     	;# 
  1322  1E0F                     	;# 
  1323  1E10                     	;# 
  1324  1E11                     	;# 
  1325  1E12                     	;# 
  1326  1E13                     	;# 
  1327  1E14                     	;# 
  1328  1E15                     	;# 
  1329  1E16                     	;# 
  1330  1E17                     	;# 
  1331  1E18                     	;# 
  1332  1E19                     	;# 
  1333  1E1A                     	;# 
  1334  1E1B                     	;# 
  1335  1E1C                     	;# 
  1336  1E1D                     	;# 
  1337  1E1E                     	;# 
  1338  1E1F                     	;# 
  1339  1E20                     	;# 
  1340  1E21                     	;# 
  1341  1E22                     	;# 
  1342  1E23                     	;# 
  1343  1E24                     	;# 
  1344  1E25                     	;# 
  1345  1E26                     	;# 
  1346  1E27                     	;# 
  1347  1E28                     	;# 
  1348  1E29                     	;# 
  1349  1E2A                     	;# 
  1350  1E2B                     	;# 
  1351  1E2C                     	;# 
  1352  1E2D                     	;# 
  1353  1E2E                     	;# 
  1354  1E2F                     	;# 
  1355  1E30                     	;# 
  1356  1E31                     	;# 
  1357  1E32                     	;# 
  1358  1E33                     	;# 
  1359  1E34                     	;# 
  1360  1E35                     	;# 
  1361  1E36                     	;# 
  1362  1E37                     	;# 
  1363  1E8F                     	;# 
  1364  1E90                     	;# 
  1365  1E91                     	;# 
  1366  1E92                     	;# 
  1367  1E93                     	;# 
  1368  1E9C                     	;# 
  1369  1EA1                     	;# 
  1370  1EA2                     	;# 
  1371  1EB1                     	;# 
  1372  1EBB                     	;# 
  1373  1EBC                     	;# 
  1374  1EBD                     	;# 
  1375  1EBE                     	;# 
  1376  1EC3                     	;# 
  1377  1EC5                     	;# 
  1378  1EC6                     	;# 
  1379  1EC7                     	;# 
  1380  1EC8                     	;# 
  1381  1EC9                     	;# 
  1382  1ECA                     	;# 
  1383  1ECB                     	;# 
  1384  1ECC                     	;# 
  1385  1ECD                     	;# 
  1386  1ECE                     	;# 
  1387  1F10                     	;# 
  1388  1F11                     	;# 
  1389  1F12                     	;# 
  1390  1F13                     	;# 
  1391  1F14                     	;# 
  1392  1F15                     	;# 
  1393  1F16                     	;# 
  1394  1F17                     	;# 
  1395  1F18                     	;# 
  1396  1F19                     	;# 
  1397  1F1A                     	;# 
  1398  1F1B                     	;# 
  1399  1F1C                     	;# 
  1400  1F1D                     	;# 
  1401  1F1E                     	;# 
  1402  1F1F                     	;# 
  1403  1F20                     	;# 
  1404  1F21                     	;# 
  1405  1F22                     	;# 
  1406  1F23                     	;# 
  1407  1F24                     	;# 
  1408  1F25                     	;# 
  1409  1F26                     	;# 
  1410  1F27                     	;# 
  1411  1F38                     	;# 
  1412  1F39                     	;# 
  1413  1F3A                     	;# 
  1414  1F3B                     	;# 
  1415  1F3C                     	;# 
  1416  1F3D                     	;# 
  1417  1F3E                     	;# 
  1418  1F3F                     	;# 
  1419  1F43                     	;# 
  1420  1F44                     	;# 
  1421  1F45                     	;# 
  1422  1F46                     	;# 
  1423  1F47                     	;# 
  1424  1F48                     	;# 
  1425  1F49                     	;# 
  1426  1F4A                     	;# 
  1427  1F4E                     	;# 
  1428  1F4F                     	;# 
  1429  1F50                     	;# 
  1430  1F51                     	;# 
  1431  1F52                     	;# 
  1432  1F53                     	;# 
  1433  1F54                     	;# 
  1434  1F55                     	;# 
  1435  1F65                     	;# 
  1436  1F68                     	;# 
  1437  1F69                     	;# 
  1438  1F6A                     	;# 
  1439  1F6B                     	;# 
  1440  1FE4                     	;# 
  1441  1FE5                     	;# 
  1442  1FE6                     	;# 
  1443  1FE7                     	;# 
  1444  1FE8                     	;# 
  1445  1FE8                     	;# 
  1446  1FE9                     	;# 
  1447  1FEA                     	;# 
  1448  1FEB                     	;# 
  1449  1FED                     	;# 
  1450  1FEE                     	;# 
  1451  1FEF                     	;# 
  1452  0000                     	;# 
  1453  0001                     	;# 
  1454  0002                     	;# 
  1455  0003                     	;# 
  1456  0004                     	;# 
  1457  0005                     	;# 
  1458  0006                     	;# 
  1459  0007                     	;# 
  1460  0008                     	;# 
  1461  0009                     	;# 
  1462  000A                     	;# 
  1463  000B                     	;# 
  1464  000C                     	;# 
  1465  000D                     	;# 
  1466  000E                     	;# 
  1467  0010                     	;# 
  1468  0012                     	;# 
  1469  0013                     	;# 
  1470  0014                     	;# 
  1471  0016                     	;# 
  1472  0018                     	;# 
  1473  0019                     	;# 
  1474  001A                     	;# 
  1475  009B                     	;# 
  1476  009B                     	;# 
  1477  009C                     	;# 
  1478  009D                     	;# 
  1479  009E                     	;# 
  1480  009F                     	;# 
  1481  0119                     	;# 
  1482  0119                     	;# 
  1483  0119                     	;# 
  1484  011A                     	;# 
  1485  011A                     	;# 
  1486  011A                     	;# 
  1487  011B                     	;# 
  1488  011B                     	;# 
  1489  011B                     	;# 
  1490  011B                     	;# 
  1491  011B                     	;# 
  1492  011C                     	;# 
  1493  011C                     	;# 
  1494  011C                     	;# 
  1495  011D                     	;# 
  1496  011D                     	;# 
  1497  011D                     	;# 
  1498  011E                     	;# 
  1499  011E                     	;# 
  1500  011E                     	;# 
  1501  011F                     	;# 
  1502  011F                     	;# 
  1503  011F                     	;# 
  1504  011F                     	;# 
  1505  011F                     	;# 
  1506  018C                     	;# 
  1507  018D                     	;# 
  1508  018E                     	;# 
  1509  018F                     	;# 
  1510  0190                     	;# 
  1511  0191                     	;# 
  1512  0192                     	;# 
  1513  0196                     	;# 
  1514  0197                     	;# 
  1515  0198                     	;# 
  1516  0199                     	;# 
  1517  019A                     	;# 
  1518  019B                     	;# 
  1519  019C                     	;# 
  1520  020C                     	;# 
  1521  020C                     	;# 
  1522  020D                     	;# 
  1523  020E                     	;# 
  1524  020F                     	;# 
  1525  020F                     	;# 
  1526  0210                     	;# 
  1527  0210                     	;# 
  1528  0211                     	;# 
  1529  0211                     	;# 
  1530  028C                     	;# 
  1531  028C                     	;# 
  1532  028D                     	;# 
  1533  028D                     	;# 
  1534  028E                     	;# 
  1535  028F                     	;# 
  1536  0290                     	;# 
  1537  0291                     	;# 
  1538  030C                     	;# 
  1539  030C                     	;# 
  1540  030D                     	;# 
  1541  030E                     	;# 
  1542  030F                     	;# 
  1543  0310                     	;# 
  1544  0310                     	;# 
  1545  0311                     	;# 
  1546  0312                     	;# 
  1547  0313                     	;# 
  1548  0314                     	;# 
  1549  0314                     	;# 
  1550  0315                     	;# 
  1551  0316                     	;# 
  1552  0318                     	;# 
  1553  0318                     	;# 
  1554  0319                     	;# 
  1555  031A                     	;# 
  1556  031C                     	;# 
  1557  031C                     	;# 
  1558  031D                     	;# 
  1559  031E                     	;# 
  1560  038C                     	;# 
  1561  038C                     	;# 
  1562  038D                     	;# 
  1563  038E                     	;# 
  1564  058C                     	;# 
  1565  058C                     	;# 
  1566  058D                     	;# 
  1567  058E                     	;# 
  1568  058F                     	;# 
  1569  058F                     	;# 
  1570  0590                     	;# 
  1571  0591                     	;# 
  1572  0592                     	;# 
  1573  0593                     	;# 
  1574  059C                     	;# 
  1575  059C                     	;# 
  1576  059D                     	;# 
  1577  059D                     	;# 
  1578  059E                     	;# 
  1579  059F                     	;# 
  1580  060C                     	;# 
  1581  060D                     	;# 
  1582  060E                     	;# 
  1583  060F                     	;# 
  1584  0610                     	;# 
  1585  0611                     	;# 
  1586  0612                     	;# 
  1587  0613                     	;# 
  1588  0614                     	;# 
  1589  070C                     	;# 
  1590  070D                     	;# 
  1591  070E                     	;# 
  1592  070F                     	;# 
  1593  0710                     	;# 
  1594  0711                     	;# 
  1595  0712                     	;# 
  1596  0713                     	;# 
  1597  0716                     	;# 
  1598  0717                     	;# 
  1599  0718                     	;# 
  1600  0719                     	;# 
  1601  071A                     	;# 
  1602  071B                     	;# 
  1603  071C                     	;# 
  1604  071D                     	;# 
  1605  0796                     	;# 
  1606  0797                     	;# 
  1607  0798                     	;# 
  1608  0799                     	;# 
  1609  079A                     	;# 
  1610  079B                     	;# 
  1611  080C                     	;# 
  1612  080D                     	;# 
  1613  080E                     	;# 
  1614  080F                     	;# 
  1615  0810                     	;# 
  1616  0811                     	;# 
  1617  0812                     	;# 
  1618  0813                     	;# 
  1619  0814                     	;# 
  1620  081A                     	;# 
  1621  081A                     	;# 
  1622  081B                     	;# 
  1623  081C                     	;# 
  1624  081C                     	;# 
  1625  081D                     	;# 
  1626  081E                     	;# 
  1627  081F                     	;# 
  1628  088C                     	;# 
  1629  088D                     	;# 
  1630  088E                     	;# 
  1631  088F                     	;# 
  1632  0890                     	;# 
  1633  0891                     	;# 
  1634  0892                     	;# 
  1635  0893                     	;# 
  1636  0895                     	;# 
  1637  0896                     	;# 
  1638  090C                     	;# 
  1639  090E                     	;# 
  1640  090F                     	;# 
  1641  091F                     	;# 
  1642  098F                     	;# 
  1643  098F                     	;# 
  1644  0990                     	;# 
  1645  0991                     	;# 
  1646  0992                     	;# 
  1647  0993                     	;# 
  1648  0994                     	;# 
  1649  0995                     	;# 
  1650  0996                     	;# 
  1651  0997                     	;# 
  1652  0A19                     	;# 
  1653  0A19                     	;# 
  1654  0A1A                     	;# 
  1655  0A1A                     	;# 
  1656  0A1B                     	;# 
  1657  0A1B                     	;# 
  1658  0A1B                     	;# 
  1659  0A1C                     	;# 
  1660  0A1C                     	;# 
  1661  0A1D                     	;# 
  1662  0A1D                     	;# 
  1663  0A1E                     	;# 
  1664  0A1E                     	;# 
  1665  0A1F                     	;# 
  1666  0A1F                     	;# 
  1667  0A1F                     	;# 
  1668  1E0F                     	;# 
  1669  1E10                     	;# 
  1670  1E11                     	;# 
  1671  1E12                     	;# 
  1672  1E13                     	;# 
  1673  1E14                     	;# 
  1674  1E15                     	;# 
  1675  1E16                     	;# 
  1676  1E17                     	;# 
  1677  1E18                     	;# 
  1678  1E19                     	;# 
  1679  1E1A                     	;# 
  1680  1E1B                     	;# 
  1681  1E1C                     	;# 
  1682  1E1D                     	;# 
  1683  1E1E                     	;# 
  1684  1E1F                     	;# 
  1685  1E20                     	;# 
  1686  1E21                     	;# 
  1687  1E22                     	;# 
  1688  1E23                     	;# 
  1689  1E24                     	;# 
  1690  1E25                     	;# 
  1691  1E26                     	;# 
  1692  1E27                     	;# 
  1693  1E28                     	;# 
  1694  1E29                     	;# 
  1695  1E2A                     	;# 
  1696  1E2B                     	;# 
  1697  1E2C                     	;# 
  1698  1E2D                     	;# 
  1699  1E2E                     	;# 
  1700  1E2F                     	;# 
  1701  1E30                     	;# 
  1702  1E31                     	;# 
  1703  1E32                     	;# 
  1704  1E33                     	;# 
  1705  1E34                     	;# 
  1706  1E35                     	;# 
  1707  1E36                     	;# 
  1708  1E37                     	;# 
  1709  1E8F                     	;# 
  1710  1E90                     	;# 
  1711  1E91                     	;# 
  1712  1E92                     	;# 
  1713  1E93                     	;# 
  1714  1E9C                     	;# 
  1715  1EA1                     	;# 
  1716  1EA2                     	;# 
  1717  1EB1                     	;# 
  1718  1EBB                     	;# 
  1719  1EBC                     	;# 
  1720  1EBD                     	;# 
  1721  1EBE                     	;# 
  1722  1EC3                     	;# 
  1723  1EC5                     	;# 
  1724  1EC6                     	;# 
  1725  1EC7                     	;# 
  1726  1EC8                     	;# 
  1727  1EC9                     	;# 
  1728  1ECA                     	;# 
  1729  1ECB                     	;# 
  1730  1ECC                     	;# 
  1731  1ECD                     	;# 
  1732  1ECE                     	;# 
  1733  1F10                     	;# 
  1734  1F11                     	;# 
  1735  1F12                     	;# 
  1736  1F13                     	;# 
  1737  1F14                     	;# 
  1738  1F15                     	;# 
  1739  1F16                     	;# 
  1740  1F17                     	;# 
  1741  1F18                     	;# 
  1742  1F19                     	;# 
  1743  1F1A                     	;# 
  1744  1F1B                     	;# 
  1745  1F1C                     	;# 
  1746  1F1D                     	;# 
  1747  1F1E                     	;# 
  1748  1F1F                     	;# 
  1749  1F20                     	;# 
  1750  1F21                     	;# 
  1751  1F22                     	;# 
  1752  1F23                     	;# 
  1753  1F24                     	;# 
  1754  1F25                     	;# 
  1755  1F26                     	;# 
  1756  1F27                     	;# 
  1757  1F38                     	;# 
  1758  1F39                     	;# 
  1759  1F3A                     	;# 
  1760  1F3B                     	;# 
  1761  1F3C                     	;# 
  1762  1F3D                     	;# 
  1763  1F3E                     	;# 
  1764  1F3F                     	;# 
  1765  1F43                     	;# 
  1766  1F44                     	;# 
  1767  1F45                     	;# 
  1768  1F46                     	;# 
  1769  1F47                     	;# 
  1770  1F48                     	;# 
  1771  1F49                     	;# 
  1772  1F4A                     	;# 
  1773  1F4E                     	;# 
  1774  1F4F                     	;# 
  1775  1F50                     	;# 
  1776  1F51                     	;# 
  1777  1F52                     	;# 
  1778  1F53                     	;# 
  1779  1F54                     	;# 
  1780  1F55                     	;# 
  1781  1F65                     	;# 
  1782  1F68                     	;# 
  1783  1F69                     	;# 
  1784  1F6A                     	;# 
  1785  1F6B                     	;# 
  1786  1FE4                     	;# 
  1787  1FE5                     	;# 
  1788  1FE6                     	;# 
  1789  1FE7                     	;# 
  1790  1FE8                     	;# 
  1791  1FE8                     	;# 
  1792  1FE9                     	;# 
  1793  1FEA                     	;# 
  1794  1FEB                     	;# 
  1795  1FED                     	;# 
  1796  1FEE                     	;# 
  1797  1FEF                     	;# 
  1798  0000                     	;# 
  1799  0001                     	;# 
  1800  0002                     	;# 
  1801  0003                     	;# 
  1802  0004                     	;# 
  1803  0005                     	;# 
  1804  0006                     	;# 
  1805  0007                     	;# 
  1806  0008                     	;# 
  1807  0009                     	;# 
  1808  000A                     	;# 
  1809  000B                     	;# 
  1810  000C                     	;# 
  1811  000D                     	;# 
  1812  000E                     	;# 
  1813  0010                     	;# 
  1814  0012                     	;# 
  1815  0013                     	;# 
  1816  0014                     	;# 
  1817  0016                     	;# 
  1818  0018                     	;# 
  1819  0019                     	;# 
  1820  001A                     	;# 
  1821  009B                     	;# 
  1822  009B                     	;# 
  1823  009C                     	;# 
  1824  009D                     	;# 
  1825  009E                     	;# 
  1826  009F                     	;# 
  1827  0119                     	;# 
  1828  0119                     	;# 
  1829  0119                     	;# 
  1830  011A                     	;# 
  1831  011A                     	;# 
  1832  011A                     	;# 
  1833  011B                     	;# 
  1834  011B                     	;# 
  1835  011B                     	;# 
  1836  011B                     	;# 
  1837  011B                     	;# 
  1838  011C                     	;# 
  1839  011C                     	;# 
  1840  011C                     	;# 
  1841  011D                     	;# 
  1842  011D                     	;# 
  1843  011D                     	;# 
  1844  011E                     	;# 
  1845  011E                     	;# 
  1846  011E                     	;# 
  1847  011F                     	;# 
  1848  011F                     	;# 
  1849  011F                     	;# 
  1850  011F                     	;# 
  1851  011F                     	;# 
  1852  018C                     	;# 
  1853  018D                     	;# 
  1854  018E                     	;# 
  1855  018F                     	;# 
  1856  0190                     	;# 
  1857  0191                     	;# 
  1858  0192                     	;# 
  1859  0196                     	;# 
  1860  0197                     	;# 
  1861  0198                     	;# 
  1862  0199                     	;# 
  1863  019A                     	;# 
  1864  019B                     	;# 
  1865  019C                     	;# 
  1866  020C                     	;# 
  1867  020C                     	;# 
  1868  020D                     	;# 
  1869  020E                     	;# 
  1870  020F                     	;# 
  1871  020F                     	;# 
  1872  0210                     	;# 
  1873  0210                     	;# 
  1874  0211                     	;# 
  1875  0211                     	;# 
  1876  028C                     	;# 
  1877  028C                     	;# 
  1878  028D                     	;# 
  1879  028D                     	;# 
  1880  028E                     	;# 
  1881  028F                     	;# 
  1882  0290                     	;# 
  1883  0291                     	;# 
  1884  030C                     	;# 
  1885  030C                     	;# 
  1886  030D                     	;# 
  1887  030E                     	;# 
  1888  030F                     	;# 
  1889  0310                     	;# 
  1890  0310                     	;# 
  1891  0311                     	;# 
  1892  0312                     	;# 
  1893  0313                     	;# 
  1894  0314                     	;# 
  1895  0314                     	;# 
  1896  0315                     	;# 
  1897  0316                     	;# 
  1898  0318                     	;# 
  1899  0318                     	;# 
  1900  0319                     	;# 
  1901  031A                     	;# 
  1902  031C                     	;# 
  1903  031C                     	;# 
  1904  031D                     	;# 
  1905  031E                     	;# 
  1906  038C                     	;# 
  1907  038C                     	;# 
  1908  038D                     	;# 
  1909  038E                     	;# 
  1910  058C                     	;# 
  1911  058C                     	;# 
  1912  058D                     	;# 
  1913  058E                     	;# 
  1914  058F                     	;# 
  1915  058F                     	;# 
  1916  0590                     	;# 
  1917  0591                     	;# 
  1918  0592                     	;# 
  1919  0593                     	;# 
  1920  059C                     	;# 
  1921  059C                     	;# 
  1922  059D                     	;# 
  1923  059D                     	;# 
  1924  059E                     	;# 
  1925  059F                     	;# 
  1926  060C                     	;# 
  1927  060D                     	;# 
  1928  060E                     	;# 
  1929  060F                     	;# 
  1930  0610                     	;# 
  1931  0611                     	;# 
  1932  0612                     	;# 
  1933  0613                     	;# 
  1934  0614                     	;# 
  1935  070C                     	;# 
  1936  070D                     	;# 
  1937  070E                     	;# 
  1938  070F                     	;# 
  1939  0710                     	;# 
  1940  0711                     	;# 
  1941  0712                     	;# 
  1942  0713                     	;# 
  1943  0716                     	;# 
  1944  0717                     	;# 
  1945  0718                     	;# 
  1946  0719                     	;# 
  1947  071A                     	;# 
  1948  071B                     	;# 
  1949  071C                     	;# 
  1950  071D                     	;# 
  1951  0796                     	;# 
  1952  0797                     	;# 
  1953  0798                     	;# 
  1954  0799                     	;# 
  1955  079A                     	;# 
  1956  079B                     	;# 
  1957  080C                     	;# 
  1958  080D                     	;# 
  1959  080E                     	;# 
  1960  080F                     	;# 
  1961  0810                     	;# 
  1962  0811                     	;# 
  1963  0812                     	;# 
  1964  0813                     	;# 
  1965  0814                     	;# 
  1966  081A                     	;# 
  1967  081A                     	;# 
  1968  081B                     	;# 
  1969  081C                     	;# 
  1970  081C                     	;# 
  1971  081D                     	;# 
  1972  081E                     	;# 
  1973  081F                     	;# 
  1974  088C                     	;# 
  1975  088D                     	;# 
  1976  088E                     	;# 
  1977  088F                     	;# 
  1978  0890                     	;# 
  1979  0891                     	;# 
  1980  0892                     	;# 
  1981  0893                     	;# 
  1982  0895                     	;# 
  1983  0896                     	;# 
  1984  090C                     	;# 
  1985  090E                     	;# 
  1986  090F                     	;# 
  1987  091F                     	;# 
  1988  098F                     	;# 
  1989  098F                     	;# 
  1990  0990                     	;# 
  1991  0991                     	;# 
  1992  0992                     	;# 
  1993  0993                     	;# 
  1994  0994                     	;# 
  1995  0995                     	;# 
  1996  0996                     	;# 
  1997  0997                     	;# 
  1998  0A19                     	;# 
  1999  0A19                     	;# 
  2000  0A1A                     	;# 
  2001  0A1A                     	;# 
  2002  0A1B                     	;# 
  2003  0A1B                     	;# 
  2004  0A1B                     	;# 
  2005  0A1C                     	;# 
  2006  0A1C                     	;# 
  2007  0A1D                     	;# 
  2008  0A1D                     	;# 
  2009  0A1E                     	;# 
  2010  0A1E                     	;# 
  2011  0A1F                     	;# 
  2012  0A1F                     	;# 
  2013  0A1F                     	;# 
  2014  1E0F                     	;# 
  2015  1E10                     	;# 
  2016  1E11                     	;# 
  2017  1E12                     	;# 
  2018  1E13                     	;# 
  2019  1E14                     	;# 
  2020  1E15                     	;# 
  2021  1E16                     	;# 
  2022  1E17                     	;# 
  2023  1E18                     	;# 
  2024  1E19                     	;# 
  2025  1E1A                     	;# 
  2026  1E1B                     	;# 
  2027  1E1C                     	;# 
  2028  1E1D                     	;# 
  2029  1E1E                     	;# 
  2030  1E1F                     	;# 
  2031  1E20                     	;# 
  2032  1E21                     	;# 
  2033  1E22                     	;# 
  2034  1E23                     	;# 
  2035  1E24                     	;# 
  2036  1E25                     	;# 
  2037  1E26                     	;# 
  2038  1E27                     	;# 
  2039  1E28                     	;# 
  2040  1E29                     	;# 
  2041  1E2A                     	;# 
  2042  1E2B                     	;# 
  2043  1E2C                     	;# 
  2044  1E2D                     	;# 
  2045  1E2E                     	;# 
  2046  1E2F                     	;# 
  2047  1E30                     	;# 
  2048  1E31                     	;# 
  2049  1E32                     	;# 
  2050  1E33                     	;# 
  2051  1E34                     	;# 
  2052  1E35                     	;# 
  2053  1E36                     	;# 
  2054  1E37                     	;# 
  2055  1E8F                     	;# 
  2056  1E90                     	;# 
  2057  1E91                     	;# 
  2058  1E92                     	;# 
  2059  1E93                     	;# 
  2060  1E9C                     	;# 
  2061  1EA1                     	;# 
  2062  1EA2                     	;# 
  2063  1EB1                     	;# 
  2064  1EBB                     	;# 
  2065  1EBC                     	;# 
  2066  1EBD                     	;# 
  2067  1EBE                     	;# 
  2068  1EC3                     	;# 
  2069  1EC5                     	;# 
  2070  1EC6                     	;# 
  2071  1EC7                     	;# 
  2072  1EC8                     	;# 
  2073  1EC9                     	;# 
  2074  1ECA                     	;# 
  2075  1ECB                     	;# 
  2076  1ECC                     	;# 
  2077  1ECD                     	;# 
  2078  1ECE                     	;# 
  2079  1F10                     	;# 
  2080  1F11                     	;# 
  2081  1F12                     	;# 
  2082  1F13                     	;# 
  2083  1F14                     	;# 
  2084  1F15                     	;# 
  2085  1F16                     	;# 
  2086  1F17                     	;# 
  2087  1F18                     	;# 
  2088  1F19                     	;# 
  2089  1F1A                     	;# 
  2090  1F1B                     	;# 
  2091  1F1C                     	;# 
  2092  1F1D                     	;# 
  2093  1F1E                     	;# 
  2094  1F1F                     	;# 
  2095  1F20                     	;# 
  2096  1F21                     	;# 
  2097  1F22                     	;# 
  2098  1F23                     	;# 
  2099  1F24                     	;# 
  2100  1F25                     	;# 
  2101  1F26                     	;# 
  2102  1F27                     	;# 
  2103  1F38                     	;# 
  2104  1F39                     	;# 
  2105  1F3A                     	;# 
  2106  1F3B                     	;# 
  2107  1F3C                     	;# 
  2108  1F3D                     	;# 
  2109  1F3E                     	;# 
  2110  1F3F                     	;# 
  2111  1F43                     	;# 
  2112  1F44                     	;# 
  2113  1F45                     	;# 
  2114  1F46                     	;# 
  2115  1F47                     	;# 
  2116  1F48                     	;# 
  2117  1F49                     	;# 
  2118  1F4A                     	;# 
  2119  1F4E                     	;# 
  2120  1F4F                     	;# 
  2121  1F50                     	;# 
  2122  1F51                     	;# 
  2123  1F52                     	;# 
  2124  1F53                     	;# 
  2125  1F54                     	;# 
  2126  1F55                     	;# 
  2127  1F65                     	;# 
  2128  1F68                     	;# 
  2129  1F69                     	;# 
  2130  1F6A                     	;# 
  2131  1F6B                     	;# 
  2132  1FE4                     	;# 
  2133  1FE5                     	;# 
  2134  1FE6                     	;# 
  2135  1FE7                     	;# 
  2136  1FE8                     	;# 
  2137  1FE8                     	;# 
  2138  1FE9                     	;# 
  2139  1FEA                     	;# 
  2140  1FEB                     	;# 
  2141  1FED                     	;# 
  2142  1FEE                     	;# 
  2143  1FEF                     	;# 
  2144  0000                     	;# 
  2145  0001                     	;# 
  2146  0002                     	;# 
  2147  0003                     	;# 
  2148  0004                     	;# 
  2149  0005                     	;# 
  2150  0006                     	;# 
  2151  0007                     	;# 
  2152  0008                     	;# 
  2153  0009                     	;# 
  2154  000A                     	;# 
  2155  000B                     	;# 
  2156  000C                     	;# 
  2157  000D                     	;# 
  2158  000E                     	;# 
  2159  0010                     	;# 
  2160  0012                     	;# 
  2161  0013                     	;# 
  2162  0014                     	;# 
  2163  0016                     	;# 
  2164  0018                     	;# 
  2165  0019                     	;# 
  2166  001A                     	;# 
  2167  009B                     	;# 
  2168  009B                     	;# 
  2169  009C                     	;# 
  2170  009D                     	;# 
  2171  009E                     	;# 
  2172  009F                     	;# 
  2173  0119                     	;# 
  2174  0119                     	;# 
  2175  0119                     	;# 
  2176  011A                     	;# 
  2177  011A                     	;# 
  2178  011A                     	;# 
  2179  011B                     	;# 
  2180  011B                     	;# 
  2181  011B                     	;# 
  2182  011B                     	;# 
  2183  011B                     	;# 
  2184  011C                     	;# 
  2185  011C                     	;# 
  2186  011C                     	;# 
  2187  011D                     	;# 
  2188  011D                     	;# 
  2189  011D                     	;# 
  2190  011E                     	;# 
  2191  011E                     	;# 
  2192  011E                     	;# 
  2193  011F                     	;# 
  2194  011F                     	;# 
  2195  011F                     	;# 
  2196  011F                     	;# 
  2197  011F                     	;# 
  2198  018C                     	;# 
  2199  018D                     	;# 
  2200  018E                     	;# 
  2201  018F                     	;# 
  2202  0190                     	;# 
  2203  0191                     	;# 
  2204  0192                     	;# 
  2205  0196                     	;# 
  2206  0197                     	;# 
  2207  0198                     	;# 
  2208  0199                     	;# 
  2209  019A                     	;# 
  2210  019B                     	;# 
  2211  019C                     	;# 
  2212  020C                     	;# 
  2213  020C                     	;# 
  2214  020D                     	;# 
  2215  020E                     	;# 
  2216  020F                     	;# 
  2217  020F                     	;# 
  2218  0210                     	;# 
  2219  0210                     	;# 
  2220  0211                     	;# 
  2221  0211                     	;# 
  2222  028C                     	;# 
  2223  028C                     	;# 
  2224  028D                     	;# 
  2225  028D                     	;# 
  2226  028E                     	;# 
  2227  028F                     	;# 
  2228  0290                     	;# 
  2229  0291                     	;# 
  2230  030C                     	;# 
  2231  030C                     	;# 
  2232  030D                     	;# 
  2233  030E                     	;# 
  2234  030F                     	;# 
  2235  0310                     	;# 
  2236  0310                     	;# 
  2237  0311                     	;# 
  2238  0312                     	;# 
  2239  0313                     	;# 
  2240  0314                     	;# 
  2241  0314                     	;# 
  2242  0315                     	;# 
  2243  0316                     	;# 
  2244  0318                     	;# 
  2245  0318                     	;# 
  2246  0319                     	;# 
  2247  031A                     	;# 
  2248  031C                     	;# 
  2249  031C                     	;# 
  2250  031D                     	;# 
  2251  031E                     	;# 
  2252  038C                     	;# 
  2253  038C                     	;# 
  2254  038D                     	;# 
  2255  038E                     	;# 
  2256  058C                     	;# 
  2257  058C                     	;# 
  2258  058D                     	;# 
  2259  058E                     	;# 
  2260  058F                     	;# 
  2261  058F                     	;# 
  2262  0590                     	;# 
  2263  0591                     	;# 
  2264  0592                     	;# 
  2265  0593                     	;# 
  2266  059C                     	;# 
  2267  059C                     	;# 
  2268  059D                     	;# 
  2269  059D                     	;# 
  2270  059E                     	;# 
  2271  059F                     	;# 
  2272  060C                     	;# 
  2273  060D                     	;# 
  2274  060E                     	;# 
  2275  060F                     	;# 
  2276  0610                     	;# 
  2277  0611                     	;# 
  2278  0612                     	;# 
  2279  0613                     	;# 
  2280  0614                     	;# 
  2281  070C                     	;# 
  2282  070D                     	;# 
  2283  070E                     	;# 
  2284  070F                     	;# 
  2285  0710                     	;# 
  2286  0711                     	;# 
  2287  0712                     	;# 
  2288  0713                     	;# 
  2289  0716                     	;# 
  2290  0717                     	;# 
  2291  0718                     	;# 
  2292  0719                     	;# 
  2293  071A                     	;# 
  2294  071B                     	;# 
  2295  071C                     	;# 
  2296  071D                     	;# 
  2297  0796                     	;# 
  2298  0797                     	;# 
  2299  0798                     	;# 
  2300  0799                     	;# 
  2301  079A                     	;# 
  2302  079B                     	;# 
  2303  080C                     	;# 
  2304  080D                     	;# 
  2305  080E                     	;# 
  2306  080F                     	;# 
  2307  0810                     	;# 
  2308  0811                     	;# 
  2309  0812                     	;# 
  2310  0813                     	;# 
  2311  0814                     	;# 
  2312  081A                     	;# 
  2313  081A                     	;# 
  2314  081B                     	;# 
  2315  081C                     	;# 
  2316  081C                     	;# 
  2317  081D                     	;# 
  2318  081E                     	;# 
  2319  081F                     	;# 
  2320  088C                     	;# 
  2321  088D                     	;# 
  2322  088E                     	;# 
  2323  088F                     	;# 
  2324  0890                     	;# 
  2325  0891                     	;# 
  2326  0892                     	;# 
  2327  0893                     	;# 
  2328  0895                     	;# 
  2329  0896                     	;# 
  2330  090C                     	;# 
  2331  090E                     	;# 
  2332  090F                     	;# 
  2333  091F                     	;# 
  2334  098F                     	;# 
  2335  098F                     	;# 
  2336  0990                     	;# 
  2337  0991                     	;# 
  2338  0992                     	;# 
  2339  0993                     	;# 
  2340  0994                     	;# 
  2341  0995                     	;# 
  2342  0996                     	;# 
  2343  0997                     	;# 
  2344  0A19                     	;# 
  2345  0A19                     	;# 
  2346  0A1A                     	;# 
  2347  0A1A                     	;# 
  2348  0A1B                     	;# 
  2349  0A1B                     	;# 
  2350  0A1B                     	;# 
  2351  0A1C                     	;# 
  2352  0A1C                     	;# 
  2353  0A1D                     	;# 
  2354  0A1D                     	;# 
  2355  0A1E                     	;# 
  2356  0A1E                     	;# 
  2357  0A1F                     	;# 
  2358  0A1F                     	;# 
  2359  0A1F                     	;# 
  2360  1E0F                     	;# 
  2361  1E10                     	;# 
  2362  1E11                     	;# 
  2363  1E12                     	;# 
  2364  1E13                     	;# 
  2365  1E14                     	;# 
  2366  1E15                     	;# 
  2367  1E16                     	;# 
  2368  1E17                     	;# 
  2369  1E18                     	;# 
  2370  1E19                     	;# 
  2371  1E1A                     	;# 
  2372  1E1B                     	;# 
  2373  1E1C                     	;# 
  2374  1E1D                     	;# 
  2375  1E1E                     	;# 
  2376  1E1F                     	;# 
  2377  1E20                     	;# 
  2378  1E21                     	;# 
  2379  1E22                     	;# 
  2380  1E23                     	;# 
  2381  1E24                     	;# 
  2382  1E25                     	;# 
  2383  1E26                     	;# 
  2384  1E27                     	;# 
  2385  1E28                     	;# 
  2386  1E29                     	;# 
  2387  1E2A                     	;# 
  2388  1E2B                     	;# 
  2389  1E2C                     	;# 
  2390  1E2D                     	;# 
  2391  1E2E                     	;# 
  2392  1E2F                     	;# 
  2393  1E30                     	;# 
  2394  1E31                     	;# 
  2395  1E32                     	;# 
  2396  1E33                     	;# 
  2397  1E34                     	;# 
  2398  1E35                     	;# 
  2399  1E36                     	;# 
  2400  1E37                     	;# 
  2401  1E8F                     	;# 
  2402  1E90                     	;# 
  2403  1E91                     	;# 
  2404  1E92                     	;# 
  2405  1E93                     	;# 
  2406  1E9C                     	;# 
  2407  1EA1                     	;# 
  2408  1EA2                     	;# 
  2409  1EB1                     	;# 
  2410  1EBB                     	;# 
  2411  1EBC                     	;# 
  2412  1EBD                     	;# 
  2413  1EBE                     	;# 
  2414  1EC3                     	;# 
  2415  1EC5                     	;# 
  2416  1EC6                     	;# 
  2417  1EC7                     	;# 
  2418  1EC8                     	;# 
  2419  1EC9                     	;# 
  2420  1ECA                     	;# 
  2421  1ECB                     	;# 
  2422  1ECC                     	;# 
  2423  1ECD                     	;# 
  2424  1ECE                     	;# 
  2425  1F10                     	;# 
  2426  1F11                     	;# 
  2427  1F12                     	;# 
  2428  1F13                     	;# 
  2429  1F14                     	;# 
  2430  1F15                     	;# 
  2431  1F16                     	;# 
  2432  1F17                     	;# 
  2433  1F18                     	;# 
  2434  1F19                     	;# 
  2435  1F1A                     	;# 
  2436  1F1B                     	;# 
  2437  1F1C                     	;# 
  2438  1F1D                     	;# 
  2439  1F1E                     	;# 
  2440  1F1F                     	;# 
  2441  1F20                     	;# 
  2442  1F21                     	;# 
  2443  1F22                     	;# 
  2444  1F23                     	;# 
  2445  1F24                     	;# 
  2446  1F25                     	;# 
  2447  1F26                     	;# 
  2448  1F27                     	;# 
  2449  1F38                     	;# 
  2450  1F39                     	;# 
  2451  1F3A                     	;# 
  2452  1F3B                     	;# 
  2453  1F3C                     	;# 
  2454  1F3D                     	;# 
  2455  1F3E                     	;# 
  2456  1F3F                     	;# 
  2457  1F43                     	;# 
  2458  1F44                     	;# 
  2459  1F45                     	;# 
  2460  1F46                     	;# 
  2461  1F47                     	;# 
  2462  1F48                     	;# 
  2463  1F49                     	;# 
  2464  1F4A                     	;# 
  2465  1F4E                     	;# 
  2466  1F4F                     	;# 
  2467  1F50                     	;# 
  2468  1F51                     	;# 
  2469  1F52                     	;# 
  2470  1F53                     	;# 
  2471  1F54                     	;# 
  2472  1F55                     	;# 
  2473  1F65                     	;# 
  2474  1F68                     	;# 
  2475  1F69                     	;# 
  2476  1F6A                     	;# 
  2477  1F6B                     	;# 
  2478  1FE4                     	;# 
  2479  1FE5                     	;# 
  2480  1FE6                     	;# 
  2481  1FE7                     	;# 
  2482  1FE8                     	;# 
  2483  1FE8                     	;# 
  2484  1FE9                     	;# 
  2485  1FEA                     	;# 
  2486  1FEB                     	;# 
  2487  1FED                     	;# 
  2488  1FEE                     	;# 
  2489  1FEF                     	;# 
  2490  0000                     	;# 
  2491  0001                     	;# 
  2492  0002                     	;# 
  2493  0003                     	;# 
  2494  0004                     	;# 
  2495  0005                     	;# 
  2496  0006                     	;# 
  2497  0007                     	;# 
  2498  0008                     	;# 
  2499  0009                     	;# 
  2500  000A                     	;# 
  2501  000B                     	;# 
  2502  000C                     	;# 
  2503  000D                     	;# 
  2504  000E                     	;# 
  2505  0010                     	;# 
  2506  0012                     	;# 
  2507  0013                     	;# 
  2508  0014                     	;# 
  2509  0016                     	;# 
  2510  0018                     	;# 
  2511  0019                     	;# 
  2512  001A                     	;# 
  2513  009B                     	;# 
  2514  009B                     	;# 
  2515  009C                     	;# 
  2516  009D                     	;# 
  2517  009E                     	;# 
  2518  009F                     	;# 
  2519  0119                     	;# 
  2520  0119                     	;# 
  2521  0119                     	;# 
  2522  011A                     	;# 
  2523  011A                     	;# 
  2524  011A                     	;# 
  2525  011B                     	;# 
  2526  011B                     	;# 
  2527  011B                     	;# 
  2528  011B                     	;# 
  2529  011B                     	;# 
  2530  011C                     	;# 
  2531  011C                     	;# 
  2532  011C                     	;# 
  2533  011D                     	;# 
  2534  011D                     	;# 
  2535  011D                     	;# 
  2536  011E                     	;# 
  2537  011E                     	;# 
  2538  011E                     	;# 
  2539  011F                     	;# 
  2540  011F                     	;# 
  2541  011F                     	;# 
  2542  011F                     	;# 
  2543  011F                     	;# 
  2544  018C                     	;# 
  2545  018D                     	;# 
  2546  018E                     	;# 
  2547  018F                     	;# 
  2548  0190                     	;# 
  2549  0191                     	;# 
  2550  0192                     	;# 
  2551  0196                     	;# 
  2552  0197                     	;# 
  2553  0198                     	;# 
  2554  0199                     	;# 
  2555  019A                     	;# 
  2556  019B                     	;# 
  2557  019C                     	;# 
  2558  020C                     	;# 
  2559  020C                     	;# 
  2560  020D                     	;# 
  2561  020E                     	;# 
  2562  020F                     	;# 
  2563  020F                     	;# 
  2564  0210                     	;# 
  2565  0210                     	;# 
  2566  0211                     	;# 
  2567  0211                     	;# 
  2568  028C                     	;# 
  2569  028C                     	;# 
  2570  028D                     	;# 
  2571  028D                     	;# 
  2572  028E                     	;# 
  2573  028F                     	;# 
  2574  0290                     	;# 
  2575  0291                     	;# 
  2576  030C                     	;# 
  2577  030C                     	;# 
  2578  030D                     	;# 
  2579  030E                     	;# 
  2580  030F                     	;# 
  2581  0310                     	;# 
  2582  0310                     	;# 
  2583  0311                     	;# 
  2584  0312                     	;# 
  2585  0313                     	;# 
  2586  0314                     	;# 
  2587  0314                     	;# 
  2588  0315                     	;# 
  2589  0316                     	;# 
  2590  0318                     	;# 
  2591  0318                     	;# 
  2592  0319                     	;# 
  2593  031A                     	;# 
  2594  031C                     	;# 
  2595  031C                     	;# 
  2596  031D                     	;# 
  2597  031E                     	;# 
  2598  038C                     	;# 
  2599  038C                     	;# 
  2600  038D                     	;# 
  2601  038E                     	;# 
  2602  058C                     	;# 
  2603  058C                     	;# 
  2604  058D                     	;# 
  2605  058E                     	;# 
  2606  058F                     	;# 
  2607  058F                     	;# 
  2608  0590                     	;# 
  2609  0591                     	;# 
  2610  0592                     	;# 
  2611  0593                     	;# 
  2612  059C                     	;# 
  2613  059C                     	;# 
  2614  059D                     	;# 
  2615  059D                     	;# 
  2616  059E                     	;# 
  2617  059F                     	;# 
  2618  060C                     	;# 
  2619  060D                     	;# 
  2620  060E                     	;# 
  2621  060F                     	;# 
  2622  0610                     	;# 
  2623  0611                     	;# 
  2624  0612                     	;# 
  2625  0613                     	;# 
  2626  0614                     	;# 
  2627  070C                     	;# 
  2628  070D                     	;# 
  2629  070E                     	;# 
  2630  070F                     	;# 
  2631  0710                     	;# 
  2632  0711                     	;# 
  2633  0712                     	;# 
  2634  0713                     	;# 
  2635  0716                     	;# 
  2636  0717                     	;# 
  2637  0718                     	;# 
  2638  0719                     	;# 
  2639  071A                     	;# 
  2640  071B                     	;# 
  2641  071C                     	;# 
  2642  071D                     	;# 
  2643  0796                     	;# 
  2644  0797                     	;# 
  2645  0798                     	;# 
  2646  0799                     	;# 
  2647  079A                     	;# 
  2648  079B                     	;# 
  2649  080C                     	;# 
  2650  080D                     	;# 
  2651  080E                     	;# 
  2652  080F                     	;# 
  2653  0810                     	;# 
  2654  0811                     	;# 
  2655  0812                     	;# 
  2656  0813                     	;# 
  2657  0814                     	;# 
  2658  081A                     	;# 
  2659  081A                     	;# 
  2660  081B                     	;# 
  2661  081C                     	;# 
  2662  081C                     	;# 
  2663  081D                     	;# 
  2664  081E                     	;# 
  2665  081F                     	;# 
  2666  088C                     	;# 
  2667  088D                     	;# 
  2668  088E                     	;# 
  2669  088F                     	;# 
  2670  0890                     	;# 
  2671  0891                     	;# 
  2672  0892                     	;# 
  2673  0893                     	;# 
  2674  0895                     	;# 
  2675  0896                     	;# 
  2676  090C                     	;# 
  2677  090E                     	;# 
  2678  090F                     	;# 
  2679  091F                     	;# 
  2680  098F                     	;# 
  2681  098F                     	;# 
  2682  0990                     	;# 
  2683  0991                     	;# 
  2684  0992                     	;# 
  2685  0993                     	;# 
  2686  0994                     	;# 
  2687  0995                     	;# 
  2688  0996                     	;# 
  2689  0997                     	;# 
  2690  0A19                     	;# 
  2691  0A19                     	;# 
  2692  0A1A                     	;# 
  2693  0A1A                     	;# 
  2694  0A1B                     	;# 
  2695  0A1B                     	;# 
  2696  0A1B                     	;# 
  2697  0A1C                     	;# 
  2698  0A1C                     	;# 
  2699  0A1D                     	;# 
  2700  0A1D                     	;# 
  2701  0A1E                     	;# 
  2702  0A1E                     	;# 
  2703  0A1F                     	;# 
  2704  0A1F                     	;# 
  2705  0A1F                     	;# 
  2706  1E0F                     	;# 
  2707  1E10                     	;# 
  2708  1E11                     	;# 
  2709  1E12                     	;# 
  2710  1E13                     	;# 
  2711  1E14                     	;# 
  2712  1E15                     	;# 
  2713  1E16                     	;# 
  2714  1E17                     	;# 
  2715  1E18                     	;# 
  2716  1E19                     	;# 
  2717  1E1A                     	;# 
  2718  1E1B                     	;# 
  2719  1E1C                     	;# 
  2720  1E1D                     	;# 
  2721  1E1E                     	;# 
  2722  1E1F                     	;# 
  2723  1E20                     	;# 
  2724  1E21                     	;# 
  2725  1E22                     	;# 
  2726  1E23                     	;# 
  2727  1E24                     	;# 
  2728  1E25                     	;# 
  2729  1E26                     	;# 
  2730  1E27                     	;# 
  2731  1E28                     	;# 
  2732  1E29                     	;# 
  2733  1E2A                     	;# 
  2734  1E2B                     	;# 
  2735  1E2C                     	;# 
  2736  1E2D                     	;# 
  2737  1E2E                     	;# 
  2738  1E2F                     	;# 
  2739  1E30                     	;# 
  2740  1E31                     	;# 
  2741  1E32                     	;# 
  2742  1E33                     	;# 
  2743  1E34                     	;# 
  2744  1E35                     	;# 
  2745  1E36                     	;# 
  2746  1E37                     	;# 
  2747  1E8F                     	;# 
  2748  1E90                     	;# 
  2749  1E91                     	;# 
  2750  1E92                     	;# 
  2751  1E93                     	;# 
  2752  1E9C                     	;# 
  2753  1EA1                     	;# 
  2754  1EA2                     	;# 
  2755  1EB1                     	;# 
  2756  1EBB                     	;# 
  2757  1EBC                     	;# 
  2758  1EBD                     	;# 
  2759  1EBE                     	;# 
  2760  1EC3                     	;# 
  2761  1EC5                     	;# 
  2762  1EC6                     	;# 
  2763  1EC7                     	;# 
  2764  1EC8                     	;# 
  2765  1EC9                     	;# 
  2766  1ECA                     	;# 
  2767  1ECB                     	;# 
  2768  1ECC                     	;# 
  2769  1ECD                     	;# 
  2770  1ECE                     	;# 
  2771  1F10                     	;# 
  2772  1F11                     	;# 
  2773  1F12                     	;# 
  2774  1F13                     	;# 
  2775  1F14                     	;# 
  2776  1F15                     	;# 
  2777  1F16                     	;# 
  2778  1F17                     	;# 
  2779  1F18                     	;# 
  2780  1F19                     	;# 
  2781  1F1A                     	;# 
  2782  1F1B                     	;# 
  2783  1F1C                     	;# 
  2784  1F1D                     	;# 
  2785  1F1E                     	;# 
  2786  1F1F                     	;# 
  2787  1F20                     	;# 
  2788  1F21                     	;# 
  2789  1F22                     	;# 
  2790  1F23                     	;# 
  2791  1F24                     	;# 
  2792  1F25                     	;# 
  2793  1F26                     	;# 
  2794  1F27                     	;# 
  2795  1F38                     	;# 
  2796  1F39                     	;# 
  2797  1F3A                     	;# 
  2798  1F3B                     	;# 
  2799  1F3C                     	;# 
  2800  1F3D                     	;# 
  2801  1F3E                     	;# 
  2802  1F3F                     	;# 
  2803  1F43                     	;# 
  2804  1F44                     	;# 
  2805  1F45                     	;# 
  2806  1F46                     	;# 
  2807  1F47                     	;# 
  2808  1F48                     	;# 
  2809  1F49                     	;# 
  2810  1F4A                     	;# 
  2811  1F4E                     	;# 
  2812  1F4F                     	;# 
  2813  1F50                     	;# 
  2814  1F51                     	;# 
  2815  1F52                     	;# 
  2816  1F53                     	;# 
  2817  1F54                     	;# 
  2818  1F55                     	;# 
  2819  1F65                     	;# 
  2820  1F68                     	;# 
  2821  1F69                     	;# 
  2822  1F6A                     	;# 
  2823  1F6B                     	;# 
  2824  1FE4                     	;# 
  2825  1FE5                     	;# 
  2826  1FE6                     	;# 
  2827  1FE7                     	;# 
  2828  1FE8                     	;# 
  2829  1FE8                     	;# 
  2830  1FE9                     	;# 
  2831  1FEA                     	;# 
  2832  1FEB                     	;# 
  2833  1FED                     	;# 
  2834  1FEE                     	;# 
  2835  1FEF                     	;# 
  2836  0000                     	;# 
  2837  0001                     	;# 
  2838  0002                     	;# 
  2839  0003                     	;# 
  2840  0004                     	;# 
  2841  0005                     	;# 
  2842  0006                     	;# 
  2843  0007                     	;# 
  2844  0008                     	;# 
  2845  0009                     	;# 
  2846  000A                     	;# 
  2847  000B                     	;# 
  2848  000C                     	;# 
  2849  000D                     	;# 
  2850  000E                     	;# 
  2851  0010                     	;# 
  2852  0012                     	;# 
  2853  0013                     	;# 
  2854  0014                     	;# 
  2855  0016                     	;# 
  2856  0018                     	;# 
  2857  0019                     	;# 
  2858  001A                     	;# 
  2859  009B                     	;# 
  2860  009B                     	;# 
  2861  009C                     	;# 
  2862  009D                     	;# 
  2863  009E                     	;# 
  2864  009F                     	;# 
  2865  0119                     	;# 
  2866  0119                     	;# 
  2867  0119                     	;# 
  2868  011A                     	;# 
  2869  011A                     	;# 
  2870  011A                     	;# 
  2871  011B                     	;# 
  2872  011B                     	;# 
  2873  011B                     	;# 
  2874  011B                     	;# 
  2875  011B                     	;# 
  2876  011C                     	;# 
  2877  011C                     	;# 
  2878  011C                     	;# 
  2879  011D                     	;# 
  2880  011D                     	;# 
  2881  011D                     	;# 
  2882  011E                     	;# 
  2883  011E                     	;# 
  2884  011E                     	;# 
  2885  011F                     	;# 
  2886  011F                     	;# 
  2887  011F                     	;# 
  2888  011F                     	;# 
  2889  011F                     	;# 
  2890  018C                     	;# 
  2891  018D                     	;# 
  2892  018E                     	;# 
  2893  018F                     	;# 
  2894  0190                     	;# 
  2895  0191                     	;# 
  2896  0192                     	;# 
  2897  0196                     	;# 
  2898  0197                     	;# 
  2899  0198                     	;# 
  2900  0199                     	;# 
  2901  019A                     	;# 
  2902  019B                     	;# 
  2903  019C                     	;# 
  2904  020C                     	;# 
  2905  020C                     	;# 
  2906  020D                     	;# 
  2907  020E                     	;# 
  2908  020F                     	;# 
  2909  020F                     	;# 
  2910  0210                     	;# 
  2911  0210                     	;# 
  2912  0211                     	;# 
  2913  0211                     	;# 
  2914  028C                     	;# 
  2915  028C                     	;# 
  2916  028D                     	;# 
  2917  028D                     	;# 
  2918  028E                     	;# 
  2919  028F                     	;# 
  2920  0290                     	;# 
  2921  0291                     	;# 
  2922  030C                     	;# 
  2923  030C                     	;# 
  2924  030D                     	;# 
  2925  030E                     	;# 
  2926  030F                     	;# 
  2927  0310                     	;# 
  2928  0310                     	;# 
  2929  0311                     	;# 
  2930  0312                     	;# 
  2931  0313                     	;# 
  2932  0314                     	;# 
  2933  0314                     	;# 
  2934  0315                     	;# 
  2935  0316                     	;# 
  2936  0318                     	;# 
  2937  0318                     	;# 
  2938  0319                     	;# 
  2939  031A                     	;# 
  2940  031C                     	;# 
  2941  031C                     	;# 
  2942  031D                     	;# 
  2943  031E                     	;# 
  2944  038C                     	;# 
  2945  038C                     	;# 
  2946  038D                     	;# 
  2947  038E                     	;# 
  2948  058C                     	;# 
  2949  058C                     	;# 
  2950  058D                     	;# 
  2951  058E                     	;# 
  2952  058F                     	;# 
  2953  058F                     	;# 
  2954  0590                     	;# 
  2955  0591                     	;# 
  2956  0592                     	;# 
  2957  0593                     	;# 
  2958  059C                     	;# 
  2959  059C                     	;# 
  2960  059D                     	;# 
  2961  059D                     	;# 
  2962  059E                     	;# 
  2963  059F                     	;# 
  2964  060C                     	;# 
  2965  060D                     	;# 
  2966  060E                     	;# 
  2967  060F                     	;# 
  2968  0610                     	;# 
  2969  0611                     	;# 
  2970  0612                     	;# 
  2971  0613                     	;# 
  2972  0614                     	;# 
  2973  070C                     	;# 
  2974  070D                     	;# 
  2975  070E                     	;# 
  2976  070F                     	;# 
  2977  0710                     	;# 
  2978  0711                     	;# 
  2979  0712                     	;# 
  2980  0713                     	;# 
  2981  0716                     	;# 
  2982  0717                     	;# 
  2983  0718                     	;# 
  2984  0719                     	;# 
  2985  071A                     	;# 
  2986  071B                     	;# 
  2987  071C                     	;# 
  2988  071D                     	;# 
  2989  0796                     	;# 
  2990  0797                     	;# 
  2991  0798                     	;# 
  2992  0799                     	;# 
  2993  079A                     	;# 
  2994  079B                     	;# 
  2995  080C                     	;# 
  2996  080D                     	;# 
  2997  080E                     	;# 
  2998  080F                     	;# 
  2999  0810                     	;# 
  3000  0811                     	;# 
  3001  0812                     	;# 
  3002  0813                     	;# 
  3003  0814                     	;# 
  3004  081A                     	;# 
  3005  081A                     	;# 
  3006  081B                     	;# 
  3007  081C                     	;# 
  3008  081C                     	;# 
  3009  081D                     	;# 
  3010  081E                     	;# 
  3011  081F                     	;# 
  3012  088C                     	;# 
  3013  088D                     	;# 
  3014  088E                     	;# 
  3015  088F                     	;# 
  3016  0890                     	;# 
  3017  0891                     	;# 
  3018  0892                     	;# 
  3019  0893                     	;# 
  3020  0895                     	;# 
  3021  0896                     	;# 
  3022  090C                     	;# 
  3023  090E                     	;# 
  3024  090F                     	;# 
  3025  091F                     	;# 
  3026  098F                     	;# 
  3027  098F                     	;# 
  3028  0990                     	;# 
  3029  0991                     	;# 
  3030  0992                     	;# 
  3031  0993                     	;# 
  3032  0994                     	;# 
  3033  0995                     	;# 
  3034  0996                     	;# 
  3035  0997                     	;# 
  3036  0A19                     	;# 
  3037  0A19                     	;# 
  3038  0A1A                     	;# 
  3039  0A1A                     	;# 
  3040  0A1B                     	;# 
  3041  0A1B                     	;# 
  3042  0A1B                     	;# 
  3043  0A1C                     	;# 
  3044  0A1C                     	;# 
  3045  0A1D                     	;# 
  3046  0A1D                     	;# 
  3047  0A1E                     	;# 
  3048  0A1E                     	;# 
  3049  0A1F                     	;# 
  3050  0A1F                     	;# 
  3051  0A1F                     	;# 
  3052  1E0F                     	;# 
  3053  1E10                     	;# 
  3054  1E11                     	;# 
  3055  1E12                     	;# 
  3056  1E13                     	;# 
  3057  1E14                     	;# 
  3058  1E15                     	;# 
  3059  1E16                     	;# 
  3060  1E17                     	;# 
  3061  1E18                     	;# 
  3062  1E19                     	;# 
  3063  1E1A                     	;# 
  3064  1E1B                     	;# 
  3065  1E1C                     	;# 
  3066  1E1D                     	;# 
  3067  1E1E                     	;# 
  3068  1E1F                     	;# 
  3069  1E20                     	;# 
  3070  1E21                     	;# 
  3071  1E22                     	;# 
  3072  1E23                     	;# 
  3073  1E24                     	;# 
  3074  1E25                     	;# 
  3075  1E26                     	;# 
  3076  1E27                     	;# 
  3077  1E28                     	;# 
  3078  1E29                     	;# 
  3079  1E2A                     	;# 
  3080  1E2B                     	;# 
  3081  1E2C                     	;# 
  3082  1E2D                     	;# 
  3083  1E2E                     	;# 
  3084  1E2F                     	;# 
  3085  1E30                     	;# 
  3086  1E31                     	;# 
  3087  1E32                     	;# 
  3088  1E33                     	;# 
  3089  1E34                     	;# 
  3090  1E35                     	;# 
  3091  1E36                     	;# 
  3092  1E37                     	;# 
  3093  1E8F                     	;# 
  3094  1E90                     	;# 
  3095  1E91                     	;# 
  3096  1E92                     	;# 
  3097  1E93                     	;# 
  3098  1E9C                     	;# 
  3099  1EA1                     	;# 
  3100  1EA2                     	;# 
  3101  1EB1                     	;# 
  3102  1EBB                     	;# 
  3103  1EBC                     	;# 
  3104  1EBD                     	;# 
  3105  1EBE                     	;# 
  3106  1EC3                     	;# 
  3107  1EC5                     	;# 
  3108  1EC6                     	;# 
  3109  1EC7                     	;# 
  3110  1EC8                     	;# 
  3111  1EC9                     	;# 
  3112  1ECA                     	;# 
  3113  1ECB                     	;# 
  3114  1ECC                     	;# 
  3115  1ECD                     	;# 
  3116  1ECE                     	;# 
  3117  1F10                     	;# 
  3118  1F11                     	;# 
  3119  1F12                     	;# 
  3120  1F13                     	;# 
  3121  1F14                     	;# 
  3122  1F15                     	;# 
  3123  1F16                     	;# 
  3124  1F17                     	;# 
  3125  1F18                     	;# 
  3126  1F19                     	;# 
  3127  1F1A                     	;# 
  3128  1F1B                     	;# 
  3129  1F1C                     	;# 
  3130  1F1D                     	;# 
  3131  1F1E                     	;# 
  3132  1F1F                     	;# 
  3133  1F20                     	;# 
  3134  1F21                     	;# 
  3135  1F22                     	;# 
  3136  1F23                     	;# 
  3137  1F24                     	;# 
  3138  1F25                     	;# 
  3139  1F26                     	;# 
  3140  1F27                     	;# 
  3141  1F38                     	;# 
  3142  1F39                     	;# 
  3143  1F3A                     	;# 
  3144  1F3B                     	;# 
  3145  1F3C                     	;# 
  3146  1F3D                     	;# 
  3147  1F3E                     	;# 
  3148  1F3F                     	;# 
  3149  1F43                     	;# 
  3150  1F44                     	;# 
  3151  1F45                     	;# 
  3152  1F46                     	;# 
  3153  1F47                     	;# 
  3154  1F48                     	;# 
  3155  1F49                     	;# 
  3156  1F4A                     	;# 
  3157  1F4E                     	;# 
  3158  1F4F                     	;# 
  3159  1F50                     	;# 
  3160  1F51                     	;# 
  3161  1F52                     	;# 
  3162  1F53                     	;# 
  3163  1F54                     	;# 
  3164  1F55                     	;# 
  3165  1F65                     	;# 
  3166  1F68                     	;# 
  3167  1F69                     	;# 
  3168  1F6A                     	;# 
  3169  1F6B                     	;# 
  3170  1FE4                     	;# 
  3171  1FE5                     	;# 
  3172  1FE6                     	;# 
  3173  1FE7                     	;# 
  3174  1FE8                     	;# 
  3175  1FE8                     	;# 
  3176  1FE9                     	;# 
  3177  1FEA                     	;# 
  3178  1FEB                     	;# 
  3179  1FED                     	;# 
  3180  1FEE                     	;# 
  3181  1FEF                     	;# 
  3182  0014                     _TRISC	set	20
  3183  0013                     _TRISB	set	19
  3184  0012                     _TRISA	set	18
  3185  001A                     _LATC	set	26
  3186  0019                     _LATB	set	25
  3187  0018                     _LATA	set	24
  3188  000B                     _INTCONbits	set	11
  3189  011A                     _TX1REG	set	282
  3190  011C                     _SP1BRGH	set	284
  3191  011B                     _SP1BRGL	set	283
  3192  011E                     _TX1STA	set	286
  3193  011D                     _RC1STA	set	285
  3194  011F                     _BAUD1CON	set	287
  3195  0119                     _RC1REG	set	281
  3196  028D                     _PR2	set	653
  3197  028C                     _TMR2	set	652
  3198  028E                     _T2CONbits	set	654
  3199  0291                     _T2RSTbits	set	657
  3200  028F                     _T2HLTbits	set	655
  3201  028E                     _T2CON	set	654
  3202  028C                     _T2TMR	set	652
  3203  028D                     _T2PR	set	653
  3204  0291                     _T2RST	set	657
  3205  028F                     _T2HLT	set	655
  3206  0290                     _T2CLKCON	set	656
  3207  031C                     _PWM5DCL	set	796
  3208  031D                     _PWM5DCH	set	797
  3209  031E                     _PWM5CON	set	798
  3210  0318                     _PWM4DCL	set	792
  3211  0319                     _PWM4DCH	set	793
  3212  031A                     _PWM4CON	set	794
  3213  0314                     _PWM3DCL	set	788
  3214  0315                     _PWM3DCH	set	789
  3215  0316                     _PWM3CON	set	790
  3216  0710                     _PIR4bits	set	1808
  3217  0719                     _PIE3bits	set	1817
  3218  070F                     _PIR3bits	set	1807
  3219  079B                     _PMD5	set	1947
  3220  079A                     _PMD4	set	1946
  3221  0799                     _PMD3	set	1945
  3222  0798                     _PMD2	set	1944
  3223  0797                     _PMD1	set	1943
  3224  0796                     _PMD0	set	1942
  3225  0892                     _OSCTUNE	set	2194
  3226  0890                     _OSCSTAT	set	2192
  3227  0893                     _OSCFRQ	set	2195
  3228  0891                     _OSCEN	set	2193
  3229  088F                     _OSCCON3	set	2191
  3230  088D                     _OSCCON1	set	2189
  3231  4480                     _PLLR	set	17536
  3232  1ECB                     _RX1DTPPS	set	7883
  3233  1F26                     _RC6PPS	set	7974
  3234  1F22                     _RC2PPS	set	7970
  3235  1F21                     _RC1PPS	set	7969
  3236  1F20                     _RC0PPS	set	7968
  3237  1F68                     _INLVLE	set	8040
  3238  1F52                     _INLVLC	set	8018
  3239  1F47                     _INLVLB	set	8007
  3240  1F3C                     _INLVLA	set	7996
  3241  1F51                     _SLRCONC	set	8017
  3242  1F46                     _SLRCONB	set	8006
  3243  1F3B                     _SLRCONA	set	7995
  3244  1F50                     _ODCONC	set	8016
  3245  1F45                     _ODCONB	set	8005
  3246  1F3A                     _ODCONA	set	7994
  3247  1F4F                     _WPUC	set	8015
  3248  1F39                     _WPUA	set	7993
  3249  1F44                     _WPUB	set	8004
  3250  1F65                     _WPUE	set	8037
  3251  1F38                     _ANSELA	set	7992
  3252  1F43                     _ANSELB	set	8003
  3253  1F4E                     _ANSELC	set	8014
  3254                           
  3255                           ; #config settings
  3256  0000                     
  3257                           	psect	cinit
  3258  0012                     start_initialization:	
  3259  0012                     __initialization:	
  3260                           
  3261                           ; Clear objects allocated to COMMON
  3262  0012  01FA               	clrf	__pbssCOMMON& (0+127)
  3263  0013  01FB               	clrf	(__pbssCOMMON+1)& (0+127)
  3264                           
  3265                           ; Clear objects allocated to BANK0
  3266  0014  3020               	movlw	low __pbssBANK0
  3267  0015  0084               	movwf	4
  3268  0016  3000               	movlw	high __pbssBANK0
  3269  0017  0085               	movwf	5
  3270  0018  3018               	movlw	24
  3271  0019  3183  230D  3180   	fcall	clear_ram0
  3272  001C                     end_of_initialization:	
  3273                           ;End of C runtime variable initialization code
  3274                           
  3275  001C                     __end_of__initialization:	
  3276  001C  107E               	bcf	int$flags,0	;clear compiler interrupt flag (level 1)
  3277  001D  0140               	movlb	0
  3278  001E  3181  2952         	ljmp	_main	;jump to C main() function
  3279                           
  3280                           	psect	bssCOMMON
  3281  007A                     __pbssCOMMON:	
  3282  007A                     _UARTReceivedByte:	
  3283  007A                     	ds	1
  3284  007B                     _UARTBufferIndex:	
  3285  007B                     	ds	1
  3286                           
  3287                           	psect	bssBANK0
  3288  0020                     __pbssBANK0:	
  3289  0020                     _rgb:	
  3290  0020                     	ds	6
  3291  0026                     _receive_state:	
  3292  0026                     	ds	1
  3293  0027                     _transfer_done:	
  3294  0027                     	ds	1
  3295  0028                     _UARTBuffer:	
  3296  0028                     	ds	16
  3297                           
  3298                           	psect	clrtext
  3299  030D                     clear_ram0:	
  3300                           ;	Called with FSR0 containing the base address, and
  3301                           ;	WREG with the size to clear
  3302                           
  3303  030D  0064               	clrwdt	;clear the watchdog before getting into this loop
  3304  030E                     clrloop0:	
  3305  030E  0180               	clrf	0	;clear RAM location pointed to by FSR
  3306  030F  3101               	addfsr 0,1
  3307  0310  0B89               	decfsz	9,f	;Have we reached the end of clearing yet?
  3308  0311  2B0E               	goto	clrloop0	;have we reached the end yet?
  3309  0312  3400               	retlw	0	;all done for this memory range, return
  3310                           
  3311                           	psect	cstackCOMMON
  3312  0070                     __pcstackCOMMON:	
  3313  0070                     ?_PMD_Initialize:	
  3314  0070                     ?_PIN_MANAGER_Initialize:	
  3315                           ; 1 bytes @ 0x0
  3316                           
  3317  0070                     ?_OSCILLATOR_Initialize:	
  3318                           ; 1 bytes @ 0x0
  3319                           
  3320  0070                     ?_PWM4_Initialize:	
  3321                           ; 1 bytes @ 0x0
  3322                           
  3323  0070                     ?_PWM3_Initialize:	
  3324                           ; 1 bytes @ 0x0
  3325                           
  3326  0070                     ?_TMR2_Initialize:	
  3327                           ; 1 bytes @ 0x0
  3328                           
  3329  0070                     ?_PWM5_Initialize:	
  3330                           ; 1 bytes @ 0x0
  3331                           
  3332  0070                     ?_EUSART1_Initialize:	
  3333                           ; 1 bytes @ 0x0
  3334                           
  3335  0070                     ?_Interrupt_Switch:	
  3336                           ; 1 bytes @ 0x0
  3337                           
  3338  0070                     ?_UART_Rx_IntHandler:	
  3339                           ; 1 bytes @ 0x0
  3340                           
  3341  0070                     ??_UART_Rx_IntHandler:	
  3342                           ; 1 bytes @ 0x0
  3343                           
  3344  0070                     ?_Interrupt_Handler:	
  3345                           ; 1 bytes @ 0x0
  3346                           
  3347  0070                     ?_SYSTEM_Initialize:	
  3348                           ; 1 bytes @ 0x0
  3349                           
  3350  0070                     ?_main:	
  3351                           ; 1 bytes @ 0x0
  3352                           
  3353                           
  3354                           ; 1 bytes @ 0x0
  3355  0070                     	ds	2
  3356  0072                     ??_PMD_Initialize:	
  3357  0072                     ??_PIN_MANAGER_Initialize:	
  3358                           ; 1 bytes @ 0x2
  3359                           
  3360  0072                     ??_OSCILLATOR_Initialize:	
  3361                           ; 1 bytes @ 0x2
  3362                           
  3363  0072                     ??_PWM4_Initialize:	
  3364                           ; 1 bytes @ 0x2
  3365                           
  3366  0072                     ??_PWM3_Initialize:	
  3367                           ; 1 bytes @ 0x2
  3368                           
  3369  0072                     ??_TMR2_Initialize:	
  3370                           ; 1 bytes @ 0x2
  3371                           
  3372  0072                     ??_PWM5_Initialize:	
  3373                           ; 1 bytes @ 0x2
  3374                           
  3375  0072                     ??_EUSART1_Initialize:	
  3376                           ; 1 bytes @ 0x2
  3377                           
  3378  0072                     ?_memcpy:	
  3379                           ; 1 bytes @ 0x2
  3380                           
  3381  0072                     ??_Interrupt_Switch:	
  3382                           ; 1 bytes @ 0x2
  3383                           
  3384  0072                     ??_Interrupt_Handler:	
  3385                           ; 1 bytes @ 0x2
  3386                           
  3387  0072                     ??_SYSTEM_Initialize:	
  3388                           ; 1 bytes @ 0x2
  3389                           
  3390  0072                     ?_PWM3_LoadDutyValue:	
  3391                           ; 1 bytes @ 0x2
  3392                           
  3393  0072                     ?_PWM4_LoadDutyValue:	
  3394                           ; 1 bytes @ 0x2
  3395                           
  3396  0072                     ?_PWM5_LoadDutyValue:	
  3397                           ; 1 bytes @ 0x2
  3398                           
  3399  0072                     ?_isspace:	
  3400                           ; 1 bytes @ 0x2
  3401                           
  3402  0072                     ?_isdigit:	
  3403                           ; 2 bytes @ 0x2
  3404                           
  3405  0072                     ?___wmul:	
  3406                           ; 2 bytes @ 0x2
  3407                           
  3408  0072                     memcpy@s1:	
  3409                           ; 2 bytes @ 0x2
  3410                           
  3411  0072                     PWM3_LoadDutyValue@dutyValue:	
  3412                           ; 1 bytes @ 0x2
  3413                           
  3414  0072                     PWM4_LoadDutyValue@dutyValue:	
  3415                           ; 2 bytes @ 0x2
  3416                           
  3417  0072                     PWM5_LoadDutyValue@dutyValue:	
  3418                           ; 2 bytes @ 0x2
  3419                           
  3420  0072                     ___wmul@multiplier:	
  3421                           ; 2 bytes @ 0x2
  3422                           
  3423  0072                     isdigit@c:	
  3424                           ; 2 bytes @ 0x2
  3425                           
  3426  0072                     isspace@c:	
  3427                           ; 2 bytes @ 0x2
  3428                           
  3429                           
  3430                           ; 2 bytes @ 0x2
  3431  0072                     	ds	1
  3432  0073                     memcpy@n:	
  3433                           
  3434                           ; 2 bytes @ 0x3
  3435  0073                     	ds	1
  3436  0074                     ??_isspace:	
  3437  0074                     ??_isdigit:	
  3438                           ; 1 bytes @ 0x4
  3439                           
  3440  0074                     ??_PWM3_LoadDutyValue:	
  3441                           ; 1 bytes @ 0x4
  3442                           
  3443  0074                     ??_PWM4_LoadDutyValue:	
  3444                           ; 1 bytes @ 0x4
  3445                           
  3446  0074                     ??_PWM5_LoadDutyValue:	
  3447                           ; 1 bytes @ 0x4
  3448                           
  3449  0074                     Interrupt_Switch@state:	
  3450                           ; 1 bytes @ 0x4
  3451                           
  3452  0074                     ___wmul@multiplicand:	
  3453                           ; 1 bytes @ 0x4
  3454                           
  3455                           
  3456                           ; 2 bytes @ 0x4
  3457  0074                     	ds	1
  3458  0075                     ??_memcpy:	
  3459                           
  3460                           ; 1 bytes @ 0x5
  3461  0075                     	ds	1
  3462  0076                     ??___wmul:	
  3463  0076                     _isspace$848:	
  3464                           ; 1 bytes @ 0x6
  3465                           
  3466  0076                     memcpy@tmp:	
  3467                           ; 1 bytes @ 0x6
  3468                           
  3469  0076                     ___wmul@product:	
  3470                           ; 1 bytes @ 0x6
  3471                           
  3472                           
  3473                           ; 2 bytes @ 0x6
  3474  0076                     	ds	1
  3475  0077                     memcpy@d1:	
  3476                           
  3477                           ; 1 bytes @ 0x7
  3478  0077                     	ds	1
  3479  0078                     ?_atoi:	
  3480  0078                     memcpy@d:	
  3481                           ; 2 bytes @ 0x8
  3482                           
  3483                           
  3484                           ; 1 bytes @ 0x8
  3485  0078                     	ds	1
  3486  0079                     memcpy@s:	
  3487                           
  3488                           ; 1 bytes @ 0x9
  3489  0079                     	ds	1
  3490  007A                     ??_main:	
  3491                           
  3492                           	psect	cstackBANK0
  3493  0038                     __pcstackBANK0:	
  3494                           ; 1 bytes @ 0xA
  3495                           
  3496  0038                     ??_atoi:	
  3497                           
  3498                           ; 1 bytes @ 0x0
  3499  0038                     	ds	4
  3500  003C                     atoi@neg:	
  3501                           
  3502                           ; 2 bytes @ 0x4
  3503  003C                     	ds	2
  3504  003E                     _atoi$830:	
  3505                           
  3506                           ; 2 bytes @ 0x6
  3507  003E                     	ds	2
  3508  0040                     _atoi$832:	
  3509                           
  3510                           ; 2 bytes @ 0x8
  3511  0040                     	ds	2
  3512  0042                     _atoi$831:	
  3513                           
  3514                           ; 1 bytes @ 0xA
  3515  0042                     	ds	1
  3516  0043                     atoi@n:	
  3517                           
  3518                           ; 2 bytes @ 0xB
  3519  0043                     	ds	2
  3520  0045                     atoi@s:	
  3521                           
  3522                           ; 1 bytes @ 0xD
  3523  0045                     	ds	1
  3524  0046                     ?_string_to_decimal:	
  3525                           
  3526                           ; 2 bytes @ 0xE
  3527  0046                     	ds	2
  3528  0048                     ??_string_to_decimal:	
  3529                           
  3530                           ; 1 bytes @ 0x10
  3531  0048                     	ds	1
  3532  0049                     string_to_decimal@temp_buffer:	
  3533                           
  3534                           ; 4 bytes @ 0x11
  3535  0049                     	ds	4
  3536  004D                     string_to_decimal@buffer:	
  3537                           
  3538                           ; 1 bytes @ 0x15
  3539  004D                     	ds	1
  3540                           
  3541                           	psect	maintext
  3542  0152                     __pmaintext:	
  3543 ;;
  3544 ;;Main: autosize = 0, tempsize = 0, incstack = 0, save=0
  3545 ;;
  3546 ;; *************** function _main *****************
  3547 ;; Defined at:
  3548 ;;		line 66 in file "main.c"
  3549 ;; Parameters:    Size  Location     Type
  3550 ;;		None
  3551 ;; Auto vars:     Size  Location     Type
  3552 ;;  state           1    0        unsigned char 
  3553 ;; Return value:  Size  Location     Type
  3554 ;;                  1    wreg      void 
  3555 ;; Registers used:
  3556 ;;		wreg, fsr0l, fsr0h, fsr1l, fsr1h, status,2, status,0, pclath, cstack
  3557 ;; Tracked objects:
  3558 ;;		On entry : B3F/0
  3559 ;;		On exit  : 0/0
  3560 ;;		Unchanged: 0/0
  3561 ;; Data sizes:     COMMON   BANK0   BANK1   BANK2   BANK3   BANK4   BANK5   BANK6   BANK7   BANK8   BANK9  BANK10  BANK1
      +1  BANK12  BANK13  BANK14  BANK15  BANK16  BANK17  BANK18  BANK19  BANK20  BANK21  BANK22  BANK23  BANK24  BANK25
  3562 ;;      Params:         0       0       0       0       0       0       0       0       0       0       0       0       
      +0       0       0       0       0       0       0       0       0       0       0       0       0       0       0
  3563 ;;      Locals:         0       1       0       0       0       0       0       0       0       0       0       0       
      +0       0       0       0       0       0       0       0       0       0       0       0       0       0       0
  3564 ;;      Temps:          0       0       0       0       0       0       0       0       0       0       0       0       
      +0       0       0       0       0       0       0       0       0       0       0       0       0       0       0
  3565 ;;      Totals:         0       1       0       0       0       0       0       0       0       0       0       0       
      +0       0       0       0       0       0       0       0       0       0       0       0       0       0       0
  3566 ;;Total ram usage:        1 bytes
  3567 ;; Hardware stack levels required when called:    5
  3568 ;; This function calls:
  3569 ;;		_Interrupt_Switch
  3570 ;;		_PWM3_LoadDutyValue
  3571 ;;		_PWM4_LoadDutyValue
  3572 ;;		_PWM5_LoadDutyValue
  3573 ;;		_SYSTEM_Initialize
  3574 ;;		_string_to_decimal
  3575 ;; This function is called by:
  3576 ;;		Startup code after reset
  3577 ;; This function uses a non-reentrant model
  3578 ;;
  3579                           
  3580                           
  3581                           ;psect for function _main
  3582  0152                     _main:	
  3583  0152                     l1744:	
  3584                           ;incstack = 0
  3585                           ; Regs used in _main: [wreg-fsr1h+status,2+status,0+pclath+cstack]
  3586                           
  3587  0152                     l1746:	
  3588                           
  3589                           ;main.c: 71:     SYSTEM_Initialize();
  3590  0152  3182  2236  3181   	fcall	_SYSTEM_Initialize
  3591  0155                     l1748:	
  3592                           
  3593                           ;main.c: 74:     Interrupt_Switch(1);
  3594  0155  3001               	movlw	1
  3595  0156  3182  224F  3181   	fcall	_Interrupt_Switch
  3596  0159                     l1750:	
  3597                           
  3598                           ;main.c: 77:     {;main.c: 78:         if(transfer_done == 1)
  3599  0159  0140               	movlb	0	; select bank0
  3600  015A  0327               	decf	_transfer_done,w
  3601  015B  1D03               	btfss	3,2
  3602  015C  295E               	goto	u631
  3603  015D  295F               	goto	u630
  3604  015E                     u631:	
  3605  015E  2959               	goto	l1750
  3606  015F                     u630:	
  3607  015F                     l1752:	
  3608                           
  3609                           ;main.c: 79:         {;main.c: 80:             transfer_done = 0;
  3610  015F  01A7               	clrf	_transfer_done
  3611  0160                     l1754:	
  3612                           
  3613                           ;main.c: 82:             rgb.red = string_to_decimal(&UARTBuffer[0]);
  3614  0160  3028               	movlw	(low (_UARTBuffer| 0))& (0+255)
  3615  0161  3182  2268  3181   	fcall	_string_to_decimal
  3616  0164  0140               	movlb	0	; select bank0
  3617  0165  0847               	movf	?_string_to_decimal+1,w
  3618  0166  00A1               	movwf	_rgb+1
  3619  0167  0846               	movf	?_string_to_decimal,w
  3620  0168  00A0               	movwf	_rgb
  3621  0169                     l1756:	
  3622                           
  3623                           ;main.c: 83:             rgb.grn = string_to_decimal(&UARTBuffer[4]);
  3624  0169  302C               	movlw	(low ((_UARTBuffer| 0+4)))& (0+255)
  3625  016A  3182  2268  3181   	fcall	_string_to_decimal
  3626  016D  0140               	movlb	0	; select bank0
  3627  016E  0847               	movf	?_string_to_decimal+1,w
  3628  016F  00A3               	movwf	_rgb+3
  3629  0170  0846               	movf	?_string_to_decimal,w
  3630  0171  00A2               	movwf	_rgb+2
  3631  0172                     l1758:	
  3632                           
  3633                           ;main.c: 84:             rgb.blu = string_to_decimal(&UARTBuffer[8]);
  3634  0172  3030               	movlw	(low ((_UARTBuffer| 0+8)))& (0+255)
  3635  0173  3182  2268  3181   	fcall	_string_to_decimal
  3636  0176  0140               	movlb	0	; select bank0
  3637  0177  0847               	movf	?_string_to_decimal+1,w
  3638  0178  00A5               	movwf	_rgb+5
  3639  0179  0846               	movf	?_string_to_decimal,w
  3640  017A  00A4               	movwf	_rgb+4
  3641  017B                     l1760:	
  3642                           
  3643                           ;main.c: 87:             PWM3_LoadDutyValue(rgb.red);
  3644  017B  0821               	movf	_rgb+1,w
  3645  017C  00F3               	movwf	PWM3_LoadDutyValue@dutyValue+1
  3646  017D  0820               	movf	_rgb,w
  3647  017E  00F2               	movwf	PWM3_LoadDutyValue@dutyValue
  3648  017F  3182  22C4  3181   	fcall	_PWM3_LoadDutyValue
  3649  0182                     l1762:	
  3650                           
  3651                           ;main.c: 88:             PWM4_LoadDutyValue(rgb.grn);
  3652  0182  0140               	movlb	0	; select bank0
  3653  0183  0823               	movf	_rgb+3,w
  3654  0184  00F3               	movwf	PWM4_LoadDutyValue@dutyValue+1
  3655  0185  0822               	movf	_rgb+2,w
  3656  0186  00F2               	movwf	PWM4_LoadDutyValue@dutyValue
  3657  0187  3182  22AE  3181   	fcall	_PWM4_LoadDutyValue
  3658  018A                     l1764:	
  3659                           
  3660                           ;main.c: 89:             PWM5_LoadDutyValue(rgb.blu);
  3661  018A  0140               	movlb	0	; select bank0
  3662  018B  0825               	movf	_rgb+5,w
  3663  018C  00F3               	movwf	PWM5_LoadDutyValue@dutyValue+1
  3664  018D  0824               	movf	_rgb+4,w
  3665  018E  00F2               	movwf	PWM5_LoadDutyValue@dutyValue
  3666  018F  3182  2298  3181   	fcall	_PWM5_LoadDutyValue
  3667  0192  2959               	goto	l1750
  3668  0193  3180  2810         	ljmp	start
  3669  0195                     __end_of_main:	
  3670                           
  3671                           	psect	text1
  3672  0268                     __ptext1:	
  3673 ;; *************** function _string_to_decimal *****************
  3674 ;; Defined at:
  3675 ;;		line 60 in file "main.c"
  3676 ;; Parameters:    Size  Location     Type
  3677 ;;  buffer          1    wreg     PTR unsigned char 
  3678 ;;		 -> UARTBuffer(16), 
  3679 ;; Auto vars:     Size  Location     Type
  3680 ;;  buffer          1   21[BANK0 ] PTR unsigned char 
  3681 ;;		 -> UARTBuffer(16), 
  3682 ;;  temp_buffer     4   17[BANK0 ] unsigned char [4]
  3683 ;; Return value:  Size  Location     Type
  3684 ;;                  2   14[BANK0 ] unsigned short 
  3685 ;; Registers used:
  3686 ;;		wreg, fsr0l, fsr0h, fsr1l, fsr1h, status,2, status,0, pclath, cstack
  3687 ;; Tracked objects:
  3688 ;;		On entry : 0/0
  3689 ;;		On exit  : 0/0
  3690 ;;		Unchanged: 0/0
  3691 ;; Data sizes:     COMMON   BANK0   BANK1   BANK2   BANK3   BANK4   BANK5   BANK6   BANK7   BANK8   BANK9  BANK10  BANK1
      +1  BANK12  BANK13  BANK14  BANK15  BANK16  BANK17  BANK18  BANK19  BANK20  BANK21  BANK22  BANK23  BANK24  BANK25
  3692 ;;      Params:         0       2       0       0       0       0       0       0       0       0       0       0       
      +0       0       0       0       0       0       0       0       0       0       0       0       0       0       0
  3693 ;;      Locals:         0       5       0       0       0       0       0       0       0       0       0       0       
      +0       0       0       0       0       0       0       0       0       0       0       0       0       0       0
  3694 ;;      Temps:          0       1       0       0       0       0       0       0       0       0       0       0       
      +0       0       0       0       0       0       0       0       0       0       0       0       0       0       0
  3695 ;;      Totals:         0       8       0       0       0       0       0       0       0       0       0       0       
      +0       0       0       0       0       0       0       0       0       0       0       0       0       0       0
  3696 ;;Total ram usage:        8 bytes
  3697 ;; Hardware stack levels used:    1
  3698 ;; Hardware stack levels required when called:    4
  3699 ;; This function calls:
  3700 ;;		_atoi
  3701 ;;		_memcpy
  3702 ;; This function is called by:
  3703 ;;		_main
  3704 ;; This function uses a non-reentrant model
  3705 ;;
  3706                           
  3707                           
  3708                           ;psect for function _string_to_decimal
  3709  0268                     _string_to_decimal:	
  3710                           
  3711                           ;incstack = 0
  3712                           ; Regs used in _string_to_decimal: [wreg-fsr1h+status,2+status,0+pclath+cstack]
  3713                           ;string_to_decimal@buffer stored from wreg
  3714  0268  0140               	movlb	0	; select bank0
  3715  0269  00CD               	movwf	string_to_decimal@buffer
  3716  026A                     l1738:	
  3717                           
  3718                           ;main.c: 60: uint16_t string_to_decimal(uint8_t *buffer);main.c: 61: {;main.c: 62:     c
      +                          har temp_buffer[4];;main.c: 63:     memcpy(temp_buffer,buffer,4);
  3719  026A  084D               	movf	string_to_decimal@buffer,w
  3720  026B  00C8               	movwf	??_string_to_decimal
  3721  026C  0848               	movf	??_string_to_decimal,w
  3722  026D  00F2               	movwf	memcpy@s1
  3723  026E  3004               	movlw	4
  3724  026F  00F3               	movwf	memcpy@n
  3725  0270  3000               	movlw	0
  3726  0271  00F4               	movwf	memcpy@n+1
  3727  0272  3049               	movlw	(low (string_to_decimal@temp_buffer| 0))& (0+255)
  3728  0273  3181  21C9  3182   	fcall	_memcpy
  3729  0276                     l1740:	
  3730                           
  3731                           ;main.c: 64:     return atoi(temp_buffer);
  3732  0276  3049               	movlw	(low (string_to_decimal@temp_buffer| 0))& (0+255)
  3733  0277  3180  2020  3182   	fcall	_atoi
  3734  027A  0879               	movf	?_atoi+1,w
  3735  027B  0140               	movlb	0	; select bank0
  3736  027C  00C7               	movwf	?_string_to_decimal+1
  3737  027D  0878               	movf	?_atoi,w
  3738  027E  00C6               	movwf	?_string_to_decimal
  3739  027F                     l322:	
  3740  027F  0008               	return
  3741  0280                     __end_of_string_to_decimal:	
  3742                           
  3743                           	psect	text2
  3744  01C9                     __ptext2:	
  3745 ;; *************** function _memcpy *****************
  3746 ;; Defined at:
  3747 ;;		line 4 in file "D:\Program Files (x86)\Microchip\xc8\v2.10\pic\sources\c99\common\memcpy.c"
  3748 ;; Parameters:    Size  Location     Type
  3749 ;;  d1              1    wreg     PTR void 
  3750 ;;		 -> string_to_decimal@temp_buffer(4), 
  3751 ;;  s1              1    2[COMMON] PTR const void 
  3752 ;;		 -> UARTBuffer(16), 
  3753 ;;  n               2    3[COMMON] unsigned int 
  3754 ;; Auto vars:     Size  Location     Type
  3755 ;;  d1              1    7[COMMON] PTR void 
  3756 ;;		 -> string_to_decimal@temp_buffer(4), 
  3757 ;;  s               1    9[COMMON] PTR const unsigned char 
  3758 ;;		 -> UARTBuffer(16), 
  3759 ;;  d               1    8[COMMON] PTR unsigned char 
  3760 ;;		 -> string_to_decimal@temp_buffer(4), 
  3761 ;;  tmp             1    6[COMMON] unsigned char 
  3762 ;; Return value:  Size  Location     Type
  3763 ;;                  1    wreg      PTR void 
  3764 ;; Registers used:
  3765 ;;		wreg, fsr1l, fsr1h, status,2, status,0
  3766 ;; Tracked objects:
  3767 ;;		On entry : 0/0
  3768 ;;		On exit  : 0/0
  3769 ;;		Unchanged: 0/0
  3770 ;; Data sizes:     COMMON   BANK0   BANK1   BANK2   BANK3   BANK4   BANK5   BANK6   BANK7   BANK8   BANK9  BANK10  BANK1
      +1  BANK12  BANK13  BANK14  BANK15  BANK16  BANK17  BANK18  BANK19  BANK20  BANK21  BANK22  BANK23  BANK24  BANK25
  3771 ;;      Params:         3       0       0       0       0       0       0       0       0       0       0       0       
      +0       0       0       0       0       0       0       0       0       0       0       0       0       0       0
  3772 ;;      Locals:         4       0       0       0       0       0       0       0       0       0       0       0       
      +0       0       0       0       0       0       0       0       0       0       0       0       0       0       0
  3773 ;;      Temps:          1       0       0       0       0       0       0       0       0       0       0       0       
      +0       0       0       0       0       0       0       0       0       0       0       0       0       0       0
  3774 ;;      Totals:         8       0       0       0       0       0       0       0       0       0       0       0       
      +0       0       0       0       0       0       0       0       0       0       0       0       0       0       0
  3775 ;;Total ram usage:        8 bytes
  3776 ;; Hardware stack levels used:    1
  3777 ;; Hardware stack levels required when called:    2
  3778 ;; This function calls:
  3779 ;;		Nothing
  3780 ;; This function is called by:
  3781 ;;		_string_to_decimal
  3782 ;; This function uses a non-reentrant model
  3783 ;;
  3784                           
  3785                           
  3786                           ;psect for function _memcpy
  3787  01C9                     _memcpy:	
  3788                           
  3789                           ;incstack = 0
  3790                           ; Regs used in _memcpy: [wreg+fsr1l+fsr1h+status,2+status,0]
  3791                           ;memcpy@d1 stored from wreg
  3792  01C9  00F7               	movwf	memcpy@d1
  3793  01CA                     l1474:	
  3794  01CA  0872               	movf	memcpy@s1,w
  3795  01CB  00F5               	movwf	??_memcpy
  3796  01CC  0875               	movf	??_memcpy,w
  3797  01CD  00F9               	movwf	memcpy@s
  3798  01CE  0877               	movf	memcpy@d1,w
  3799  01CF  00F5               	movwf	??_memcpy
  3800  01D0  0875               	movf	??_memcpy,w
  3801  01D1  00F8               	movwf	memcpy@d
  3802  01D2  29E9               	goto	l897
  3803  01D3                     l1476:	
  3804  01D3  0879               	movf	memcpy@s,w
  3805  01D4  0086               	movwf	6
  3806  01D5  0187               	clrf	7
  3807  01D6  0801               	movf	1,w
  3808  01D7  00F5               	movwf	??_memcpy
  3809  01D8  0875               	movf	??_memcpy,w
  3810  01D9  00F6               	movwf	memcpy@tmp
  3811  01DA                     l1478:	
  3812  01DA  3001               	movlw	1
  3813  01DB  00F5               	movwf	??_memcpy
  3814  01DC  0875               	movf	??_memcpy,w
  3815  01DD  07F9               	addwf	memcpy@s,f
  3816  01DE                     l1480:	
  3817  01DE  0876               	movf	memcpy@tmp,w
  3818  01DF  00F5               	movwf	??_memcpy
  3819  01E0  0878               	movf	memcpy@d,w
  3820  01E1  0086               	movwf	6
  3821  01E2  0187               	clrf	7
  3822  01E3  0875               	movf	??_memcpy,w
  3823  01E4  0081               	movwf	1
  3824  01E5  3001               	movlw	1
  3825  01E6  00F5               	movwf	??_memcpy
  3826  01E7  0875               	movf	??_memcpy,w
  3827  01E8  07F8               	addwf	memcpy@d,f
  3828  01E9                     l897:	
  3829  01E9  3001               	movlw	1
  3830  01EA  02F3               	subwf	memcpy@n,f
  3831  01EB  3000               	movlw	0
  3832  01EC  3BF4               	subwfb	memcpy@n+1,f
  3833  01ED  0A73               	incf	memcpy@n,w
  3834  01EE  1D03               	skipz
  3835  01EF  29F4               	goto	u421
  3836  01F0  0A74               	incf	memcpy@n+1,w
  3837  01F1  1D03               	btfss	3,2
  3838  01F2  29F4               	goto	u421
  3839  01F3  29F5               	goto	u420
  3840  01F4                     u421:	
  3841  01F4  29D3               	goto	l1476
  3842  01F5                     u420:	
  3843  01F5                     l900:	
  3844  01F5  0008               	return
  3845  01F6                     __end_of_memcpy:	
  3846                           
  3847                           	psect	text3
  3848  0020                     __ptext3:	
  3849 ;; *************** function _atoi *****************
  3850 ;; Defined at:
  3851 ;;		line 4 in file "D:\Program Files (x86)\Microchip\xc8\v2.10\pic\sources\c99\common\atoi.c"
  3852 ;; Parameters:    Size  Location     Type
  3853 ;;  s               1    wreg     PTR const unsigned char 
  3854 ;;		 -> string_to_decimal@temp_buffer(4), 
  3855 ;; Auto vars:     Size  Location     Type
  3856 ;;  s               1   13[BANK0 ] PTR const unsigned char 
  3857 ;;		 -> string_to_decimal@temp_buffer(4), 
  3858 ;;  n               2   11[BANK0 ] int 
  3859 ;;  neg             2    4[BANK0 ] int 
  3860 ;; Return value:  Size  Location     Type
  3861 ;;                  2    8[COMMON] int 
  3862 ;; Registers used:
  3863 ;;		wreg, fsr0l, fsr0h, fsr1l, fsr1h, status,2, status,0, pclath, cstack
  3864 ;; Tracked objects:
  3865 ;;		On entry : 0/0
  3866 ;;		On exit  : 0/0
  3867 ;;		Unchanged: 0/0
  3868 ;; Data sizes:     COMMON   BANK0   BANK1   BANK2   BANK3   BANK4   BANK5   BANK6   BANK7   BANK8   BANK9  BANK10  BANK1
      +1  BANK12  BANK13  BANK14  BANK15  BANK16  BANK17  BANK18  BANK19  BANK20  BANK21  BANK22  BANK23  BANK24  BANK25
  3869 ;;      Params:         2       0       0       0       0       0       0       0       0       0       0       0       
      +0       0       0       0       0       0       0       0       0       0       0       0       0       0       0
  3870 ;;      Locals:         0      10       0       0       0       0       0       0       0       0       0       0       
      +0       0       0       0       0       0       0       0       0       0       0       0       0       0       0
  3871 ;;      Temps:          0       4       0       0       0       0       0       0       0       0       0       0       
      +0       0       0       0       0       0       0       0       0       0       0       0       0       0       0
  3872 ;;      Totals:         2      14       0       0       0       0       0       0       0       0       0       0       
      +0       0       0       0       0       0       0       0       0       0       0       0       0       0       0
  3873 ;;Total ram usage:       16 bytes
  3874 ;; Hardware stack levels used:    1
  3875 ;; Hardware stack levels required when called:    3
  3876 ;; This function calls:
  3877 ;;		___wmul
  3878 ;;		_isdigit
  3879 ;;		_isspace
  3880 ;; This function is called by:
  3881 ;;		_string_to_decimal
  3882 ;; This function uses a non-reentrant model
  3883 ;;
  3884                           
  3885                           
  3886                           ;psect for function _atoi
  3887  0020                     _atoi:	
  3888                           
  3889                           ;incstack = 0
  3890                           ; Regs used in _atoi: [wreg-fsr1h+status,2+status,0+pclath+cstack]
  3891                           ;atoi@s stored from wreg
  3892  0020  0140               	movlb	0	; select bank0
  3893  0021  00C5               	movwf	atoi@s
  3894  0022                     l1482:	
  3895  0022  01C3               	clrf	atoi@n
  3896  0023  01C4               	clrf	atoi@n+1
  3897  0024  01BC               	clrf	atoi@neg
  3898  0025  01BD               	clrf	atoi@neg+1
  3899  0026  282B               	goto	l1486
  3900  0027                     l1484:	
  3901  0027  3001               	movlw	1
  3902  0028  00B8               	movwf	??_atoi
  3903  0029  0838               	movf	??_atoi,w
  3904  002A  07C5               	addwf	atoi@s,f
  3905  002B                     l1486:	
  3906  002B  01C2               	clrf	_atoi$831
  3907  002C  0AC2               	incf	_atoi$831,f
  3908  002D                     l1488:	
  3909  002D  0845               	movf	atoi@s,w
  3910  002E  0086               	movwf	6
  3911  002F  0187               	clrf	7
  3912  0030  3020               	movlw	32
  3913  0031  0601               	xorwf	1,w
  3914  0032  1903               	btfsc	3,2
  3915  0033  2835               	goto	u431
  3916  0034  2836               	goto	u430
  3917  0035                     u431:	
  3918  0035  284A               	goto	l1494
  3919  0036                     u430:	
  3920  0036                     l1490:	
  3921  0036  0845               	movf	atoi@s,w
  3922  0037  0086               	movwf	6
  3923  0038  0187               	clrf	7
  3924  0039  0801               	movf	1,w
  3925  003A  3EF7               	addlw	247
  3926  003B  00B8               	movwf	??_atoi
  3927  003C  30FF               	movlw	255
  3928  003D  1803               	skipnc
  3929  003E  3000               	movlw	0
  3930  003F  00B9               	movwf	??_atoi+1
  3931  0040  3000               	movlw	0
  3932  0041  0239               	subwf	??_atoi+1,w
  3933  0042  3005               	movlw	5
  3934  0043  1903               	skipnz
  3935  0044  0238               	subwf	??_atoi,w
  3936  0045  1C03               	skipc
  3937  0046  2848               	goto	u441
  3938  0047  2849               	goto	u440
  3939  0048                     u441:	
  3940  0048  284A               	goto	l1494
  3941  0049                     u440:	
  3942  0049                     l1492:	
  3943  0049  01C2               	clrf	_atoi$831
  3944  004A                     l1494:	
  3945  004A  0842               	movf	_atoi$831,w
  3946  004B  00B8               	movwf	??_atoi
  3947  004C  01B9               	clrf	??_atoi+1
  3948  004D  0838               	movf	??_atoi,w
  3949  004E  00BE               	movwf	_atoi$830
  3950  004F  0839               	movf	??_atoi+1,w
  3951  0050  00BF               	movwf	_atoi$830+1
  3952  0051                     l1498:	
  3953  0051  083E               	movf	_atoi$830,w
  3954  0052  043F               	iorwf	_atoi$830+1,w
  3955  0053  1D03               	btfss	3,2
  3956  0054  2856               	goto	u451
  3957  0055  2857               	goto	u450
  3958  0056                     u451:	
  3959  0056  2827               	goto	l1484
  3960  0057                     u450:	
  3961  0057  2861               	goto	l1504
  3962  0058                     l1500:	
  3963  0058  3001               	movlw	1
  3964  0059  00BC               	movwf	atoi@neg
  3965  005A  3000               	movlw	0
  3966  005B  00BD               	movwf	atoi@neg+1
  3967  005C                     l1502:	
  3968  005C  3001               	movlw	1
  3969  005D  00B8               	movwf	??_atoi
  3970  005E  0838               	movf	??_atoi,w
  3971  005F  07C5               	addwf	atoi@s,f
  3972  0060  2891               	goto	l1510
  3973  0061                     l1504:	
  3974  0061  0845               	movf	atoi@s,w
  3975  0062  0086               	movwf	6
  3976  0063  0187               	clrf	7
  3977  0064  0801               	movf	1,w
  3978  0065  00B8               	movwf	??_atoi
  3979  0066  01B9               	clrf	??_atoi+1
  3980                           
  3981                           ; Switch on 2 bytes has been partitioned into a top level switch of size 1, and 1 sub-sw
      +                          itches
  3982                           ; Switch size 1, requested type "simple"
  3983                           ; Number of cases is 1, Range of values is 0 to 0
  3984                           ; switch strategies available:
  3985                           ; Name         Instructions Cycles
  3986                           ; simple_byte            4     3 (average)
  3987                           ; direct_byte            8     6 (fixed)
  3988                           ; jumptable            260     6 (fixed)
  3989                           ;	Chosen strategy is simple_byte
  3990  0067  0839               	movf	??_atoi+1,w
  3991  0068  3A00               	xorlw	0	; case 0
  3992  0069  1903               	skipnz
  3993  006A  286C               	goto	l1846
  3994  006B  2891               	goto	l1510
  3995  006C                     l1846:	
  3996                           
  3997                           ; Switch size 1, requested type "simple"
  3998                           ; Number of cases is 2, Range of values is 43 to 45
  3999                           ; switch strategies available:
  4000                           ; Name         Instructions Cycles
  4001                           ; simple_byte            7     4 (average)
  4002                           ; direct_byte           15     9 (fixed)
  4003                           ; jumptable            263     9 (fixed)
  4004                           ;	Chosen strategy is simple_byte
  4005  006C  0838               	movf	??_atoi,w
  4006  006D  3A2B               	xorlw	43	; case 43
  4007  006E  1903               	skipnz
  4008  006F  285C               	goto	l1502
  4009  0070  3A06               	xorlw	6	; case 45
  4010  0071  1903               	skipnz
  4011  0072  2858               	goto	l1500
  4012  0073  2891               	goto	l1510
  4013  0074                     l1506:	
  4014  0074  0845               	movf	atoi@s,w
  4015  0075  0086               	movwf	6
  4016  0076  0187               	clrf	7
  4017  0077  0844               	movf	atoi@n+1,w
  4018  0078  00F3               	movwf	___wmul@multiplier+1
  4019  0079  0843               	movf	atoi@n,w
  4020  007A  00F2               	movwf	___wmul@multiplier
  4021  007B  300A               	movlw	10
  4022  007C  00F4               	movwf	___wmul@multiplicand
  4023  007D  3000               	movlw	0
  4024  007E  00F5               	movwf	___wmul@multiplicand+1
  4025  007F  3182  2217  3180   	fcall	___wmul
  4026  0082  0873               	movf	?___wmul+1,w
  4027  0083  0140               	movlb	0	; select bank0
  4028  0084  00B9               	movwf	??_atoi+1
  4029  0085  0801               	movf	1,w
  4030  0086  0272               	subwf	?___wmul,w
  4031  0087  00B8               	movwf	??_atoi
  4032  0088  1C03               	skipc
  4033  0089  03B9               	decf	??_atoi+1,f
  4034  008A  0838               	movf	??_atoi,w
  4035  008B  3E30               	addlw	48
  4036  008C  00C3               	movwf	atoi@n
  4037  008D  3000               	movlw	0
  4038  008E  3D39               	addwfc	??_atoi+1,w
  4039  008F  00C4               	movwf	atoi@n+1
  4040  0090  285C               	goto	l1502
  4041  0091                     l1510:	
  4042  0091  0845               	movf	atoi@s,w
  4043  0092  0086               	movwf	6
  4044  0093  0187               	clrf	7
  4045  0094  0801               	movf	1,w
  4046  0095  3ED0               	addlw	208
  4047  0096  00B8               	movwf	??_atoi
  4048  0097  30FF               	movlw	255
  4049  0098  1803               	skipnc
  4050  0099  3000               	movlw	0
  4051  009A  00B9               	movwf	??_atoi+1
  4052  009B  3000               	movlw	0
  4053  009C  0239               	subwf	??_atoi+1,w
  4054  009D  300A               	movlw	10
  4055  009E  1903               	skipnz
  4056  009F  0238               	subwf	??_atoi,w
  4057  00A0  1C03               	skipc
  4058  00A1  28A3               	goto	u461
  4059  00A2  28A5               	goto	u460
  4060  00A3                     u461:	
  4061  00A3  3001               	movlw	1
  4062  00A4  28A6               	goto	u470
  4063  00A5                     u460:	
  4064  00A5  3000               	movlw	0
  4065  00A6                     u470:	
  4066  00A6  00BA               	movwf	??_atoi+2
  4067  00A7  01BB               	clrf	??_atoi+3
  4068  00A8  083A               	movf	??_atoi+2,w
  4069  00A9  00C0               	movwf	_atoi$832
  4070  00AA  083B               	movf	??_atoi+3,w
  4071  00AB  00C1               	movwf	_atoi$832+1
  4072  00AC                     l1514:	
  4073  00AC  0840               	movf	_atoi$832,w
  4074  00AD  0441               	iorwf	_atoi$832+1,w
  4075  00AE  1D03               	btfss	3,2
  4076  00AF  28B1               	goto	u481
  4077  00B0  28B2               	goto	u480
  4078  00B1                     u481:	
  4079  00B1  2874               	goto	l1506
  4080  00B2                     u480:	
  4081  00B2                     l1516:	
  4082  00B2  083C               	movf	atoi@neg,w
  4083  00B3  043D               	iorwf	atoi@neg+1,w
  4084  00B4  1D03               	btfss	3,2
  4085  00B5  28B7               	goto	u491
  4086  00B6  28B8               	goto	u490
  4087  00B7                     u491:	
  4088  00B7  28C4               	goto	l1520
  4089  00B8                     u490:	
  4090  00B8                     l1518:	
  4091  00B8  0943               	comf	atoi@n,w
  4092  00B9  00B8               	movwf	??_atoi
  4093  00BA  0944               	comf	atoi@n+1,w
  4094  00BB  00B9               	movwf	??_atoi+1
  4095  00BC  0AB8               	incf	??_atoi,f
  4096  00BD  1903               	skipnz
  4097  00BE  0AB9               	incf	??_atoi+1,f
  4098  00BF  0838               	movf	??_atoi,w
  4099  00C0  00F8               	movwf	?_atoi
  4100  00C1  0839               	movf	??_atoi+1,w
  4101  00C2  00F9               	movwf	?_atoi+1
  4102  00C3  28C8               	goto	l880
  4103  00C4                     l1520:	
  4104  00C4  0844               	movf	atoi@n+1,w
  4105  00C5  00F9               	movwf	?_atoi+1
  4106  00C6  0843               	movf	atoi@n,w
  4107  00C7  00F8               	movwf	?_atoi
  4108  00C8                     l880:	
  4109  00C8  0008               	return
  4110  00C9                     __end_of_atoi:	
  4111                           
  4112                           	psect	text4
  4113  01F6                     __ptext4:	
  4114 ;; *************** function _isspace *****************
  4115 ;; Defined at:
  4116 ;;		line 5 in file "D:\Program Files (x86)\Microchip\xc8\v2.10\pic\sources\c99\common\isspace.c"
  4117 ;; Parameters:    Size  Location     Type
  4118 ;;  c               2    2[COMMON] int 
  4119 ;; Auto vars:     Size  Location     Type
  4120 ;;		None
  4121 ;; Return value:  Size  Location     Type
  4122 ;;                  2    2[COMMON] int 
  4123 ;; Registers used:
  4124 ;;		wreg, status,2, status,0
  4125 ;; Tracked objects:
  4126 ;;		On entry : 0/0
  4127 ;;		On exit  : 0/0
  4128 ;;		Unchanged: 0/0
  4129 ;; Data sizes:     COMMON   BANK0   BANK1   BANK2   BANK3   BANK4   BANK5   BANK6   BANK7   BANK8   BANK9  BANK10  BANK1
      +1  BANK12  BANK13  BANK14  BANK15  BANK16  BANK17  BANK18  BANK19  BANK20  BANK21  BANK22  BANK23  BANK24  BANK25
  4130 ;;      Params:         2       0       0       0       0       0       0       0       0       0       0       0       
      +0       0       0       0       0       0       0       0       0       0       0       0       0       0       0
  4131 ;;      Locals:         1       0       0       0       0       0       0       0       0       0       0       0       
      +0       0       0       0       0       0       0       0       0       0       0       0       0       0       0
  4132 ;;      Temps:          2       0       0       0       0       0       0       0       0       0       0       0       
      +0       0       0       0       0       0       0       0       0       0       0       0       0       0       0
  4133 ;;      Totals:         5       0       0       0       0       0       0       0       0       0       0       0       
      +0       0       0       0       0       0       0       0       0       0       0       0       0       0       0
  4134 ;;Total ram usage:        5 bytes
  4135 ;; Hardware stack levels used:    1
  4136 ;; Hardware stack levels required when called:    2
  4137 ;; This function calls:
  4138 ;;		Nothing
  4139 ;; This function is called by:
  4140 ;;		_atoi
  4141 ;; This function uses a non-reentrant model
  4142 ;;
  4143                           
  4144                           
  4145                           ;psect for function _isspace
  4146  01F6                     _isspace:	
  4147  01F6                     l1356:	
  4148                           ;incstack = 0
  4149                           ; Regs used in _isspace: [wreg+status,2+status,0]
  4150                           
  4151  01F6  01F6               	clrf	_isspace$848
  4152  01F7  0AF6               	incf	_isspace$848,f
  4153  01F8                     l1358:	
  4154  01F8  3020               	movlw	32
  4155  01F9  0672               	xorwf	isspace@c,w
  4156  01FA  0473               	iorwf	isspace@c+1,w
  4157  01FB  1903               	btfsc	3,2
  4158  01FC  29FE               	goto	u371
  4159  01FD  29FF               	goto	u370
  4160  01FE                     u371:	
  4161  01FE  2A0F               	goto	l1364
  4162  01FF                     u370:	
  4163  01FF                     l1360:	
  4164  01FF  0872               	movf	isspace@c,w
  4165  0200  3EF7               	addlw	247
  4166  0201  00F4               	movwf	??_isspace
  4167  0202  30FF               	movlw	255
  4168  0203  3D73               	addwfc	isspace@c+1,w
  4169  0204  00F5               	movwf	??_isspace+1
  4170  0205  3000               	movlw	0
  4171  0206  0275               	subwf	??_isspace+1,w
  4172  0207  3005               	movlw	5
  4173  0208  1903               	skipnz
  4174  0209  0274               	subwf	??_isspace,w
  4175  020A  1C03               	skipc
  4176  020B  2A0D               	goto	u381
  4177  020C  2A0E               	goto	u380
  4178  020D                     u381:	
  4179  020D  2A0F               	goto	l1364
  4180  020E                     u380:	
  4181  020E                     l1362:	
  4182  020E  01F6               	clrf	_isspace$848
  4183  020F                     l1364:	
  4184  020F  0876               	movf	_isspace$848,w
  4185  0210  00F4               	movwf	??_isspace
  4186  0211  01F5               	clrf	??_isspace+1
  4187  0212  0874               	movf	??_isspace,w
  4188  0213  00F2               	movwf	?_isspace
  4189  0214  0875               	movf	??_isspace+1,w
  4190  0215  00F3               	movwf	?_isspace+1
  4191  0216                     l891:	
  4192  0216  0008               	return
  4193  0217                     __end_of_isspace:	
  4194                           
  4195                           	psect	text5
  4196  0280                     __ptext5:	
  4197 ;; *************** function _isdigit *****************
  4198 ;; Defined at:
  4199 ;;		line 5 in file "D:\Program Files (x86)\Microchip\xc8\v2.10\pic\sources\c99\common\isdigit.c"
  4200 ;; Parameters:    Size  Location     Type
  4201 ;;  c               2    2[COMMON] int 
  4202 ;; Auto vars:     Size  Location     Type
  4203 ;;		None
  4204 ;; Return value:  Size  Location     Type
  4205 ;;                  2    2[COMMON] int 
  4206 ;; Registers used:
  4207 ;;		wreg, status,2, status,0
  4208 ;; Tracked objects:
  4209 ;;		On entry : 0/0
  4210 ;;		On exit  : 0/0
  4211 ;;		Unchanged: 0/0
  4212 ;; Data sizes:     COMMON   BANK0   BANK1   BANK2   BANK3   BANK4   BANK5   BANK6   BANK7   BANK8   BANK9  BANK10  BANK1
      +1  BANK12  BANK13  BANK14  BANK15  BANK16  BANK17  BANK18  BANK19  BANK20  BANK21  BANK22  BANK23  BANK24  BANK25
  4213 ;;      Params:         2       0       0       0       0       0       0       0       0       0       0       0       
      +0       0       0       0       0       0       0       0       0       0       0       0       0       0       0
  4214 ;;      Locals:         0       0       0       0       0       0       0       0       0       0       0       0       
      +0       0       0       0       0       0       0       0       0       0       0       0       0       0       0
  4215 ;;      Temps:          4       0       0       0       0       0       0       0       0       0       0       0       
      +0       0       0       0       0       0       0       0       0       0       0       0       0       0       0
  4216 ;;      Totals:         6       0       0       0       0       0       0       0       0       0       0       0       
      +0       0       0       0       0       0       0       0       0       0       0       0       0       0       0
  4217 ;;Total ram usage:        6 bytes
  4218 ;; Hardware stack levels used:    1
  4219 ;; Hardware stack levels required when called:    2
  4220 ;; This function calls:
  4221 ;;		Nothing
  4222 ;; This function is called by:
  4223 ;;		_atoi
  4224 ;; This function uses a non-reentrant model
  4225 ;;
  4226                           
  4227                           
  4228                           ;psect for function _isdigit
  4229  0280                     _isdigit:	
  4230  0280                     l1368:	
  4231                           ;incstack = 0
  4232                           ; Regs used in _isdigit: [wreg+status,2+status,0]
  4233                           
  4234  0280  0872               	movf	isdigit@c,w
  4235  0281  3ED0               	addlw	208
  4236  0282  00F4               	movwf	??_isdigit
  4237  0283  30FF               	movlw	255
  4238  0284  3D73               	addwfc	isdigit@c+1,w
  4239  0285  00F5               	movwf	??_isdigit+1
  4240  0286  3000               	movlw	0
  4241  0287  0275               	subwf	??_isdigit+1,w
  4242  0288  300A               	movlw	10
  4243  0289  1903               	skipnz
  4244  028A  0274               	subwf	??_isdigit,w
  4245  028B  1C03               	skipc
  4246  028C  2A8E               	goto	u391
  4247  028D  2A90               	goto	u390
  4248  028E                     u391:	
  4249  028E  3001               	movlw	1
  4250  028F  2A91               	goto	u400
  4251  0290                     u390:	
  4252  0290  3000               	movlw	0
  4253  0291                     u400:	
  4254  0291  00F6               	movwf	??_isdigit+2
  4255  0292  01F7               	clrf	??_isdigit+3
  4256  0293  0876               	movf	??_isdigit+2,w
  4257  0294  00F2               	movwf	?_isdigit
  4258  0295  0877               	movf	??_isdigit+3,w
  4259  0296  00F3               	movwf	?_isdigit+1
  4260  0297                     l883:	
  4261  0297  0008               	return
  4262  0298                     __end_of_isdigit:	
  4263                           
  4264                           	psect	text6
  4265  0217                     __ptext6:	
  4266 ;; *************** function ___wmul *****************
  4267 ;; Defined at:
  4268 ;;		line 15 in file "D:\Program Files (x86)\Microchip\xc8\v2.10\pic\sources\c99\common\Umul16.c"
  4269 ;; Parameters:    Size  Location     Type
  4270 ;;  multiplier      2    2[COMMON] unsigned int 
  4271 ;;  multiplicand    2    4[COMMON] unsigned int 
  4272 ;; Auto vars:     Size  Location     Type
  4273 ;;  product         2    6[COMMON] unsigned int 
  4274 ;; Return value:  Size  Location     Type
  4275 ;;                  2    2[COMMON] unsigned int 
  4276 ;; Registers used:
  4277 ;;		wreg, status,2, status,0
  4278 ;; Tracked objects:
  4279 ;;		On entry : 0/0
  4280 ;;		On exit  : 0/0
  4281 ;;		Unchanged: 0/0
  4282 ;; Data sizes:     COMMON   BANK0   BANK1   BANK2   BANK3   BANK4   BANK5   BANK6   BANK7   BANK8   BANK9  BANK10  BANK1
      +1  BANK12  BANK13  BANK14  BANK15  BANK16  BANK17  BANK18  BANK19  BANK20  BANK21  BANK22  BANK23  BANK24  BANK25
  4283 ;;      Params:         4       0       0       0       0       0       0       0       0       0       0       0       
      +0       0       0       0       0       0       0       0       0       0       0       0       0       0       0
  4284 ;;      Locals:         2       0       0       0       0       0       0       0       0       0       0       0       
      +0       0       0       0       0       0       0       0       0       0       0       0       0       0       0
  4285 ;;      Temps:          0       0       0       0       0       0       0       0       0       0       0       0       
      +0       0       0       0       0       0       0       0       0       0       0       0       0       0       0
  4286 ;;      Totals:         6       0       0       0       0       0       0       0       0       0       0       0       
      +0       0       0       0       0       0       0       0       0       0       0       0       0       0       0
  4287 ;;Total ram usage:        6 bytes
  4288 ;; Hardware stack levels used:    1
  4289 ;; Hardware stack levels required when called:    2
  4290 ;; This function calls:
  4291 ;;		Nothing
  4292 ;; This function is called by:
  4293 ;;		_atoi
  4294 ;; This function uses a non-reentrant model
  4295 ;;
  4296                           
  4297                           
  4298                           ;psect for function ___wmul
  4299  0217                     ___wmul:	
  4300  0217                     l1342:	
  4301                           ;incstack = 0
  4302                           ; Regs used in ___wmul: [wreg+status,2+status,0]
  4303                           
  4304  0217  01F6               	clrf	___wmul@product
  4305  0218  01F7               	clrf	___wmul@product+1
  4306  0219                     l1344:	
  4307  0219  1C72               	btfss	___wmul@multiplier,0
  4308  021A  2A1C               	goto	u331
  4309  021B  2A1D               	goto	u330
  4310  021C                     u331:	
  4311  021C  2A21               	goto	l399
  4312  021D                     u330:	
  4313  021D                     l1346:	
  4314  021D  0874               	movf	___wmul@multiplicand,w
  4315  021E  07F6               	addwf	___wmul@product,f
  4316  021F  0875               	movf	___wmul@multiplicand+1,w
  4317  0220  3DF7               	addwfc	___wmul@product+1,f
  4318  0221                     l399:	
  4319  0221  3001               	movlw	1
  4320  0222                     u345:	
  4321  0222  35F4               	lslf	___wmul@multiplicand,f
  4322  0223  0DF5               	rlf	___wmul@multiplicand+1,f
  4323  0224  0B89               	decfsz	9,f
  4324  0225  2A22               	goto	u345
  4325  0226                     l1348:	
  4326  0226  3001               	movlw	1
  4327  0227                     u355:	
  4328  0227  36F3               	lsrf	___wmul@multiplier+1,f
  4329  0228  0CF2               	rrf	___wmul@multiplier,f
  4330  0229  0B89               	decfsz	9,f
  4331  022A  2A27               	goto	u355
  4332  022B                     l1350:	
  4333  022B  0872               	movf	___wmul@multiplier,w
  4334  022C  0473               	iorwf	___wmul@multiplier+1,w
  4335  022D  1D03               	btfss	3,2
  4336  022E  2A30               	goto	u361
  4337  022F  2A31               	goto	u360
  4338  0230                     u361:	
  4339  0230  2A19               	goto	l1344
  4340  0231                     u360:	
  4341  0231                     l1352:	
  4342  0231  0877               	movf	___wmul@product+1,w
  4343  0232  00F3               	movwf	?___wmul+1
  4344  0233  0876               	movf	___wmul@product,w
  4345  0234  00F2               	movwf	?___wmul
  4346  0235                     l401:	
  4347  0235  0008               	return
  4348  0236                     __end_of___wmul:	
  4349                           
  4350                           	psect	text7
  4351  0236                     __ptext7:	
  4352 ;; *************** function _SYSTEM_Initialize *****************
  4353 ;; Defined at:
  4354 ;;		line 50 in file "mcc_generated_files/mcc.c"
  4355 ;; Parameters:    Size  Location     Type
  4356 ;;		None
  4357 ;; Auto vars:     Size  Location     Type
  4358 ;;		None
  4359 ;; Return value:  Size  Location     Type
  4360 ;;                  1    wreg      void 
  4361 ;; Registers used:
  4362 ;;		wreg, status,2, status,0, pclath, cstack
  4363 ;; Tracked objects:
  4364 ;;		On entry : 0/0
  4365 ;;		On exit  : 0/0
  4366 ;;		Unchanged: 0/0
  4367 ;; Data sizes:     COMMON   BANK0   BANK1   BANK2   BANK3   BANK4   BANK5   BANK6   BANK7   BANK8   BANK9  BANK10  BANK1
      +1  BANK12  BANK13  BANK14  BANK15  BANK16  BANK17  BANK18  BANK19  BANK20  BANK21  BANK22  BANK23  BANK24  BANK25
  4368 ;;      Params:         0       0       0       0       0       0       0       0       0       0       0       0       
      +0       0       0       0       0       0       0       0       0       0       0       0       0       0       0
  4369 ;;      Locals:         0       0       0       0       0       0       0       0       0       0       0       0       
      +0       0       0       0       0       0       0       0       0       0       0       0       0       0       0
  4370 ;;      Temps:          0       0       0       0       0       0       0       0       0       0       0       0       
      +0       0       0       0       0       0       0       0       0       0       0       0       0       0       0
  4371 ;;      Totals:         0       0       0       0       0       0       0       0       0       0       0       0       
      +0       0       0       0       0       0       0       0       0       0       0       0       0       0       0
  4372 ;;Total ram usage:        0 bytes
  4373 ;; Hardware stack levels used:    1
  4374 ;; Hardware stack levels required when called:    3
  4375 ;; This function calls:
  4376 ;;		_EUSART1_Initialize
  4377 ;;		_OSCILLATOR_Initialize
  4378 ;;		_PIN_MANAGER_Initialize
  4379 ;;		_PMD_Initialize
  4380 ;;		_PWM3_Initialize
  4381 ;;		_PWM4_Initialize
  4382 ;;		_PWM5_Initialize
  4383 ;;		_TMR2_Initialize
  4384 ;; This function is called by:
  4385 ;;		_main
  4386 ;; This function uses a non-reentrant model
  4387 ;;
  4388                           
  4389                           
  4390                           ;psect for function _SYSTEM_Initialize
  4391  0236                     _SYSTEM_Initialize:	
  4392  0236                     l1604:	
  4393                           ;incstack = 0
  4394                           ; Regs used in _SYSTEM_Initialize: [wreg+status,2+status,0+pclath+cstack]
  4395                           
  4396                           
  4397                           ;mcc_generated_files/mcc.c: 52:     PMD_Initialize();
  4398  0236  3183  2305  3182   	fcall	_PMD_Initialize
  4399  0239                     l1606:	
  4400                           
  4401                           ;mcc_generated_files/mcc.c: 53:     PIN_MANAGER_Initialize();
  4402  0239  3181  2195  3182   	fcall	_PIN_MANAGER_Initialize
  4403  023C                     l1608:	
  4404                           
  4405                           ;mcc_generated_files/mcc.c: 54:     OSCILLATOR_Initialize();
  4406  023C  3182  22F7  3182   	fcall	_OSCILLATOR_Initialize
  4407  023F                     l1610:	
  4408                           
  4409                           ;mcc_generated_files/mcc.c: 55:     PWM4_Initialize();
  4410  023F  3183  2319  3182   	fcall	_PWM4_Initialize
  4411  0242                     l1612:	
  4412                           
  4413                           ;mcc_generated_files/mcc.c: 56:     PWM3_Initialize();
  4414  0242  3183  231F  3182   	fcall	_PWM3_Initialize
  4415  0245                     l1614:	
  4416                           
  4417                           ;mcc_generated_files/mcc.c: 57:     TMR2_Initialize();
  4418  0245  3182  22E9  3182   	fcall	_TMR2_Initialize
  4419  0248                     l1616:	
  4420                           
  4421                           ;mcc_generated_files/mcc.c: 58:     PWM5_Initialize();
  4422  0248  3183  2313  3182   	fcall	_PWM5_Initialize
  4423  024B                     l1618:	
  4424                           
  4425                           ;mcc_generated_files/mcc.c: 59:     EUSART1_Initialize();
  4426  024B  3182  22DA  3182   	fcall	_EUSART1_Initialize
  4427  024E                     l96:	
  4428  024E  0008               	return
  4429  024F                     __end_of_SYSTEM_Initialize:	
  4430                           
  4431                           	psect	text8
  4432  02E9                     __ptext8:	
  4433 ;; *************** function _TMR2_Initialize *****************
  4434 ;; Defined at:
  4435 ;;		line 62 in file "mcc_generated_files/tmr2.c"
  4436 ;; Parameters:    Size  Location     Type
  4437 ;;		None
  4438 ;; Auto vars:     Size  Location     Type
  4439 ;;		None
  4440 ;; Return value:  Size  Location     Type
  4441 ;;                  1    wreg      void 
  4442 ;; Registers used:
  4443 ;;		wreg, status,2
  4444 ;; Tracked objects:
  4445 ;;		On entry : 0/0
  4446 ;;		On exit  : 0/0
  4447 ;;		Unchanged: 0/0
  4448 ;; Data sizes:     COMMON   BANK0   BANK1   BANK2   BANK3   BANK4   BANK5   BANK6   BANK7   BANK8   BANK9  BANK10  BANK1
      +1  BANK12  BANK13  BANK14  BANK15  BANK16  BANK17  BANK18  BANK19  BANK20  BANK21  BANK22  BANK23  BANK24  BANK25
  4449 ;;      Params:         0       0       0       0       0       0       0       0       0       0       0       0       
      +0       0       0       0       0       0       0       0       0       0       0       0       0       0       0
  4450 ;;      Locals:         0       0       0       0       0       0       0       0       0       0       0       0       
      +0       0       0       0       0       0       0       0       0       0       0       0       0       0       0
  4451 ;;      Temps:          0       0       0       0       0       0       0       0       0       0       0       0       
      +0       0       0       0       0       0       0       0       0       0       0       0       0       0       0
  4452 ;;      Totals:         0       0       0       0       0       0       0       0       0       0       0       0       
      +0       0       0       0       0       0       0       0       0       0       0       0       0       0       0
  4453 ;;Total ram usage:        0 bytes
  4454 ;; Hardware stack levels used:    1
  4455 ;; Hardware stack levels required when called:    2
  4456 ;; This function calls:
  4457 ;;		Nothing
  4458 ;; This function is called by:
  4459 ;;		_SYSTEM_Initialize
  4460 ;; This function uses a non-reentrant model
  4461 ;;
  4462                           
  4463                           
  4464                           ;psect for function _TMR2_Initialize
  4465  02E9                     _TMR2_Initialize:	
  4466  02E9                     l1450:	
  4467                           ;incstack = 0
  4468                           ; Regs used in _TMR2_Initialize: [wreg+status,2]
  4469                           
  4470                           
  4471                           ;mcc_generated_files/tmr2.c: 67:     T2CLKCON = 0x01;
  4472  02E9  3001               	movlw	1
  4473  02EA  0145               	movlb	5	; select bank5
  4474  02EB  0090               	movwf	16	;volatile
  4475  02EC                     l1452:	
  4476                           
  4477                           ;mcc_generated_files/tmr2.c: 70:     T2HLT = 0x00;
  4478  02EC  018F               	clrf	15	;volatile
  4479  02ED                     l1454:	
  4480                           
  4481                           ;mcc_generated_files/tmr2.c: 73:     T2RST = 0x00;
  4482  02ED  0191               	clrf	17	;volatile
  4483                           
  4484                           ;mcc_generated_files/tmr2.c: 76:     T2PR = 0xFF;
  4485  02EE  30FF               	movlw	255
  4486  02EF  008D               	movwf	13	;volatile
  4487  02F0                     l1456:	
  4488                           
  4489                           ;mcc_generated_files/tmr2.c: 79:     T2TMR = 0x00;
  4490  02F0  018C               	clrf	12	;volatile
  4491  02F1                     l1458:	
  4492                           
  4493                           ;mcc_generated_files/tmr2.c: 82:     PIR4bits.TMR2IF = 0;
  4494  02F1  014E               	movlb	14	; select bank14
  4495  02F2  1090               	bcf	16,1	;volatile
  4496  02F3                     l1460:	
  4497                           
  4498                           ;mcc_generated_files/tmr2.c: 85:     T2CON = 0x80;
  4499  02F3  3080               	movlw	128
  4500  02F4  0145               	movlb	5	; select bank5
  4501  02F5  008E               	movwf	14	;volatile
  4502  02F6                     l231:	
  4503  02F6  0008               	return
  4504  02F7                     __end_of_TMR2_Initialize:	
  4505                           
  4506                           	psect	text9
  4507  0313                     __ptext9:	
  4508 ;; *************** function _PWM5_Initialize *****************
  4509 ;; Defined at:
  4510 ;;		line 58 in file "mcc_generated_files/pwm5.c"
  4511 ;; Parameters:    Size  Location     Type
  4512 ;;		None
  4513 ;; Auto vars:     Size  Location     Type
  4514 ;;		None
  4515 ;; Return value:  Size  Location     Type
  4516 ;;                  1    wreg      void 
  4517 ;; Registers used:
  4518 ;;		wreg, status,2
  4519 ;; Tracked objects:
  4520 ;;		On entry : 0/0
  4521 ;;		On exit  : 0/0
  4522 ;;		Unchanged: 0/0
  4523 ;; Data sizes:     COMMON   BANK0   BANK1   BANK2   BANK3   BANK4   BANK5   BANK6   BANK7   BANK8   BANK9  BANK10  BANK1
      +1  BANK12  BANK13  BANK14  BANK15  BANK16  BANK17  BANK18  BANK19  BANK20  BANK21  BANK22  BANK23  BANK24  BANK25
  4524 ;;      Params:         0       0       0       0       0       0       0       0       0       0       0       0       
      +0       0       0       0       0       0       0       0       0       0       0       0       0       0       0
  4525 ;;      Locals:         0       0       0       0       0       0       0       0       0       0       0       0       
      +0       0       0       0       0       0       0       0       0       0       0       0       0       0       0
  4526 ;;      Temps:          0       0       0       0       0       0       0       0       0       0       0       0       
      +0       0       0       0       0       0       0       0       0       0       0       0       0       0       0
  4527 ;;      Totals:         0       0       0       0       0       0       0       0       0       0       0       0       
      +0       0       0       0       0       0       0       0       0       0       0       0       0       0       0
  4528 ;;Total ram usage:        0 bytes
  4529 ;; Hardware stack levels used:    1
  4530 ;; Hardware stack levels required when called:    2
  4531 ;; This function calls:
  4532 ;;		Nothing
  4533 ;; This function is called by:
  4534 ;;		_SYSTEM_Initialize
  4535 ;; This function uses a non-reentrant model
  4536 ;;
  4537                           
  4538                           
  4539                           ;psect for function _PWM5_Initialize
  4540  0313                     _PWM5_Initialize:	
  4541  0313                     l1462:	
  4542                           ;incstack = 0
  4543                           ; Regs used in _PWM5_Initialize: [wreg+status,2]
  4544                           
  4545                           
  4546                           ;mcc_generated_files/pwm5.c: 62:     PWM5CON = 0x90;
  4547  0313  3090               	movlw	144
  4548  0314  0146               	movlb	6	; select bank6
  4549  0315  009E               	movwf	30	;volatile
  4550  0316                     l1464:	
  4551                           
  4552                           ;mcc_generated_files/pwm5.c: 65:     PWM5DCH = 0x00;
  4553  0316  019D               	clrf	29	;volatile
  4554  0317                     l1466:	
  4555                           
  4556                           ;mcc_generated_files/pwm5.c: 68:     PWM5DCL = 0x00;
  4557  0317  019C               	clrf	28	;volatile
  4558  0318                     l292:	
  4559  0318  0008               	return
  4560  0319                     __end_of_PWM5_Initialize:	
  4561                           
  4562                           	psect	text10
  4563  0319                     __ptext10:	
  4564 ;; *************** function _PWM4_Initialize *****************
  4565 ;; Defined at:
  4566 ;;		line 58 in file "mcc_generated_files/pwm4.c"
  4567 ;; Parameters:    Size  Location     Type
  4568 ;;		None
  4569 ;; Auto vars:     Size  Location     Type
  4570 ;;		None
  4571 ;; Return value:  Size  Location     Type
  4572 ;;                  1    wreg      void 
  4573 ;; Registers used:
  4574 ;;		wreg, status,2
  4575 ;; Tracked objects:
  4576 ;;		On entry : 0/0
  4577 ;;		On exit  : 0/0
  4578 ;;		Unchanged: 0/0
  4579 ;; Data sizes:     COMMON   BANK0   BANK1   BANK2   BANK3   BANK4   BANK5   BANK6   BANK7   BANK8   BANK9  BANK10  BANK1
      +1  BANK12  BANK13  BANK14  BANK15  BANK16  BANK17  BANK18  BANK19  BANK20  BANK21  BANK22  BANK23  BANK24  BANK25
  4580 ;;      Params:         0       0       0       0       0       0       0       0       0       0       0       0       
      +0       0       0       0       0       0       0       0       0       0       0       0       0       0       0
  4581 ;;      Locals:         0       0       0       0       0       0       0       0       0       0       0       0       
      +0       0       0       0       0       0       0       0       0       0       0       0       0       0       0
  4582 ;;      Temps:          0       0       0       0       0       0       0       0       0       0       0       0       
      +0       0       0       0       0       0       0       0       0       0       0       0       0       0       0
  4583 ;;      Totals:         0       0       0       0       0       0       0       0       0       0       0       0       
      +0       0       0       0       0       0       0       0       0       0       0       0       0       0       0
  4584 ;;Total ram usage:        0 bytes
  4585 ;; Hardware stack levels used:    1
  4586 ;; Hardware stack levels required when called:    2
  4587 ;; This function calls:
  4588 ;;		Nothing
  4589 ;; This function is called by:
  4590 ;;		_SYSTEM_Initialize
  4591 ;; This function uses a non-reentrant model
  4592 ;;
  4593                           
  4594                           
  4595                           ;psect for function _PWM4_Initialize
  4596  0319                     _PWM4_Initialize:	
  4597  0319                     l1438:	
  4598                           ;incstack = 0
  4599                           ; Regs used in _PWM4_Initialize: [wreg+status,2]
  4600                           
  4601                           
  4602                           ;mcc_generated_files/pwm4.c: 62:     PWM4CON = 0x90;
  4603  0319  3090               	movlw	144
  4604  031A  0146               	movlb	6	; select bank6
  4605  031B  009A               	movwf	26	;volatile
  4606  031C                     l1440:	
  4607                           
  4608                           ;mcc_generated_files/pwm4.c: 65:     PWM4DCH = 0x00;
  4609  031C  0199               	clrf	25	;volatile
  4610  031D                     l1442:	
  4611                           
  4612                           ;mcc_generated_files/pwm4.c: 68:     PWM4DCL = 0x00;
  4613  031D  0198               	clrf	24	;volatile
  4614  031E                     l280:	
  4615  031E  0008               	return
  4616  031F                     __end_of_PWM4_Initialize:	
  4617                           
  4618                           	psect	text11
  4619  031F                     __ptext11:	
  4620 ;; *************** function _PWM3_Initialize *****************
  4621 ;; Defined at:
  4622 ;;		line 58 in file "mcc_generated_files/pwm3.c"
  4623 ;; Parameters:    Size  Location     Type
  4624 ;;		None
  4625 ;; Auto vars:     Size  Location     Type
  4626 ;;		None
  4627 ;; Return value:  Size  Location     Type
  4628 ;;                  1    wreg      void 
  4629 ;; Registers used:
  4630 ;;		wreg, status,2
  4631 ;; Tracked objects:
  4632 ;;		On entry : 0/0
  4633 ;;		On exit  : 0/0
  4634 ;;		Unchanged: 0/0
  4635 ;; Data sizes:     COMMON   BANK0   BANK1   BANK2   BANK3   BANK4   BANK5   BANK6   BANK7   BANK8   BANK9  BANK10  BANK1
      +1  BANK12  BANK13  BANK14  BANK15  BANK16  BANK17  BANK18  BANK19  BANK20  BANK21  BANK22  BANK23  BANK24  BANK25
  4636 ;;      Params:         0       0       0       0       0       0       0       0       0       0       0       0       
      +0       0       0       0       0       0       0       0       0       0       0       0       0       0       0
  4637 ;;      Locals:         0       0       0       0       0       0       0       0       0       0       0       0       
      +0       0       0       0       0       0       0       0       0       0       0       0       0       0       0
  4638 ;;      Temps:          0       0       0       0       0       0       0       0       0       0       0       0       
      +0       0       0       0       0       0       0       0       0       0       0       0       0       0       0
  4639 ;;      Totals:         0       0       0       0       0       0       0       0       0       0       0       0       
      +0       0       0       0       0       0       0       0       0       0       0       0       0       0       0
  4640 ;;Total ram usage:        0 bytes
  4641 ;; Hardware stack levels used:    1
  4642 ;; Hardware stack levels required when called:    2
  4643 ;; This function calls:
  4644 ;;		Nothing
  4645 ;; This function is called by:
  4646 ;;		_SYSTEM_Initialize
  4647 ;; This function uses a non-reentrant model
  4648 ;;
  4649                           
  4650                           
  4651                           ;psect for function _PWM3_Initialize
  4652  031F                     _PWM3_Initialize:	
  4653  031F                     l1444:	
  4654                           ;incstack = 0
  4655                           ; Regs used in _PWM3_Initialize: [wreg+status,2]
  4656                           
  4657                           
  4658                           ;mcc_generated_files/pwm3.c: 62:     PWM3CON = 0x90;
  4659  031F  3090               	movlw	144
  4660  0320  0146               	movlb	6	; select bank6
  4661  0321  0096               	movwf	22	;volatile
  4662  0322                     l1446:	
  4663                           
  4664                           ;mcc_generated_files/pwm3.c: 65:     PWM3DCH = 0x00;
  4665  0322  0195               	clrf	21	;volatile
  4666  0323                     l1448:	
  4667                           
  4668                           ;mcc_generated_files/pwm3.c: 68:     PWM3DCL = 0x00;
  4669  0323  0194               	clrf	20	;volatile
  4670  0324                     l201:	
  4671  0324  0008               	return
  4672  0325                     __end_of_PWM3_Initialize:	
  4673                           
  4674                           	psect	text12
  4675  0305                     __ptext12:	
  4676 ;; *************** function _PMD_Initialize *****************
  4677 ;; Defined at:
  4678 ;;		line 82 in file "mcc_generated_files/mcc.c"
  4679 ;; Parameters:    Size  Location     Type
  4680 ;;		None
  4681 ;; Auto vars:     Size  Location     Type
  4682 ;;		None
  4683 ;; Return value:  Size  Location     Type
  4684 ;;                  1    wreg      void 
  4685 ;; Registers used:
  4686 ;;		status,2
  4687 ;; Tracked objects:
  4688 ;;		On entry : 0/0
  4689 ;;		On exit  : 0/0
  4690 ;;		Unchanged: 0/0
  4691 ;; Data sizes:     COMMON   BANK0   BANK1   BANK2   BANK3   BANK4   BANK5   BANK6   BANK7   BANK8   BANK9  BANK10  BANK1
      +1  BANK12  BANK13  BANK14  BANK15  BANK16  BANK17  BANK18  BANK19  BANK20  BANK21  BANK22  BANK23  BANK24  BANK25
  4692 ;;      Params:         0       0       0       0       0       0       0       0       0       0       0       0       
      +0       0       0       0       0       0       0       0       0       0       0       0       0       0       0
  4693 ;;      Locals:         0       0       0       0       0       0       0       0       0       0       0       0       
      +0       0       0       0       0       0       0       0       0       0       0       0       0       0       0
  4694 ;;      Temps:          0       0       0       0       0       0       0       0       0       0       0       0       
      +0       0       0       0       0       0       0       0       0       0       0       0       0       0       0
  4695 ;;      Totals:         0       0       0       0       0       0       0       0       0       0       0       0       
      +0       0       0       0       0       0       0       0       0       0       0       0       0       0       0
  4696 ;;Total ram usage:        0 bytes
  4697 ;; Hardware stack levels used:    1
  4698 ;; Hardware stack levels required when called:    2
  4699 ;; This function calls:
  4700 ;;		Nothing
  4701 ;; This function is called by:
  4702 ;;		_SYSTEM_Initialize
  4703 ;; This function uses a non-reentrant model
  4704 ;;
  4705                           
  4706                           
  4707                           ;psect for function _PMD_Initialize
  4708  0305                     _PMD_Initialize:	
  4709  0305                     l1372:	
  4710                           ;incstack = 0
  4711                           ; Regs used in _PMD_Initialize: [status,2]
  4712                           
  4713                           
  4714                           ;mcc_generated_files/mcc.c: 85:     PMD0 = 0x00;
  4715  0305  014F               	movlb	15	; select bank15
  4716  0306  0196               	clrf	22	;volatile
  4717                           
  4718                           ;mcc_generated_files/mcc.c: 87:     PMD1 = 0x00;
  4719  0307  0197               	clrf	23	;volatile
  4720                           
  4721                           ;mcc_generated_files/mcc.c: 89:     PMD2 = 0x00;
  4722  0308  0198               	clrf	24	;volatile
  4723                           
  4724                           ;mcc_generated_files/mcc.c: 91:     PMD3 = 0x00;
  4725  0309  0199               	clrf	25	;volatile
  4726                           
  4727                           ;mcc_generated_files/mcc.c: 93:     PMD4 = 0x00;
  4728  030A  019A               	clrf	26	;volatile
  4729                           
  4730                           ;mcc_generated_files/mcc.c: 95:     PMD5 = 0x00;
  4731  030B  019B               	clrf	27	;volatile
  4732  030C                     l105:	
  4733  030C  0008               	return
  4734  030D                     __end_of_PMD_Initialize:	
  4735                           
  4736                           	psect	text13
  4737  0195                     __ptext13:	
  4738 ;; *************** function _PIN_MANAGER_Initialize *****************
  4739 ;; Defined at:
  4740 ;;		line 55 in file "mcc_generated_files/pin_manager.c"
  4741 ;; Parameters:    Size  Location     Type
  4742 ;;		None
  4743 ;; Auto vars:     Size  Location     Type
  4744 ;;		None
  4745 ;; Return value:  Size  Location     Type
  4746 ;;                  1    wreg      void 
  4747 ;; Registers used:
  4748 ;;		wreg, status,2
  4749 ;; Tracked objects:
  4750 ;;		On entry : 0/0
  4751 ;;		On exit  : 0/0
  4752 ;;		Unchanged: 0/0
  4753 ;; Data sizes:     COMMON   BANK0   BANK1   BANK2   BANK3   BANK4   BANK5   BANK6   BANK7   BANK8   BANK9  BANK10  BANK1
      +1  BANK12  BANK13  BANK14  BANK15  BANK16  BANK17  BANK18  BANK19  BANK20  BANK21  BANK22  BANK23  BANK24  BANK25
  4754 ;;      Params:         0       0       0       0       0       0       0       0       0       0       0       0       
      +0       0       0       0       0       0       0       0       0       0       0       0       0       0       0
  4755 ;;      Locals:         0       0       0       0       0       0       0       0       0       0       0       0       
      +0       0       0       0       0       0       0       0       0       0       0       0       0       0       0
  4756 ;;      Temps:          0       0       0       0       0       0       0       0       0       0       0       0       
      +0       0       0       0       0       0       0       0       0       0       0       0       0       0       0
  4757 ;;      Totals:         0       0       0       0       0       0       0       0       0       0       0       0       
      +0       0       0       0       0       0       0       0       0       0       0       0       0       0       0
  4758 ;;Total ram usage:        0 bytes
  4759 ;; Hardware stack levels used:    1
  4760 ;; Hardware stack levels required when called:    2
  4761 ;; This function calls:
  4762 ;;		Nothing
  4763 ;; This function is called by:
  4764 ;;		_SYSTEM_Initialize
  4765 ;; This function uses a non-reentrant model
  4766 ;;
  4767                           
  4768                           
  4769                           ;psect for function _PIN_MANAGER_Initialize
  4770  0195                     _PIN_MANAGER_Initialize:	
  4771  0195                     l1374:	
  4772                           ;incstack = 0
  4773                           ; Regs used in _PIN_MANAGER_Initialize: [wreg+status,2]
  4774                           
  4775                           
  4776                           ;mcc_generated_files/pin_manager.c: 60:     LATA = 0x00;
  4777  0195  0140               	movlb	0	; select bank0
  4778  0196  0198               	clrf	24	;volatile
  4779                           
  4780                           ;mcc_generated_files/pin_manager.c: 61:     LATB = 0x00;
  4781  0197  0199               	clrf	25	;volatile
  4782  0198                     l1376:	
  4783                           
  4784                           ;mcc_generated_files/pin_manager.c: 62:     LATC = 0xC7;
  4785  0198  30C7               	movlw	199
  4786  0199  009A               	movwf	26	;volatile
  4787  019A                     l1378:	
  4788                           
  4789                           ;mcc_generated_files/pin_manager.c: 67:     TRISA = 0xFF;
  4790  019A  30FF               	movlw	255
  4791  019B  0092               	movwf	18	;volatile
  4792  019C                     l1380:	
  4793                           
  4794                           ;mcc_generated_files/pin_manager.c: 68:     TRISB = 0xFF;
  4795  019C  30FF               	movlw	255
  4796  019D  0093               	movwf	19	;volatile
  4797  019E                     l1382:	
  4798                           
  4799                           ;mcc_generated_files/pin_manager.c: 69:     TRISC = 0xB8;
  4800  019E  30B8               	movlw	184
  4801  019F  0094               	movwf	20	;volatile
  4802  01A0                     l1384:	
  4803                           
  4804                           ;mcc_generated_files/pin_manager.c: 74:     ANSELC = 0x38;
  4805  01A0  3038               	movlw	56
  4806  01A1  017E               	movlb	62	; select bank62
  4807  01A2  00CE               	movwf	78	;volatile
  4808  01A3                     l1386:	
  4809                           
  4810                           ;mcc_generated_files/pin_manager.c: 75:     ANSELB = 0xFF;
  4811  01A3  30FF               	movlw	255
  4812  01A4  00C3               	movwf	67	;volatile
  4813  01A5                     l1388:	
  4814                           
  4815                           ;mcc_generated_files/pin_manager.c: 76:     ANSELA = 0xFF;
  4816  01A5  30FF               	movlw	255
  4817  01A6  00B8               	movwf	56	;volatile
  4818  01A7                     l1390:	
  4819                           
  4820                           ;mcc_generated_files/pin_manager.c: 81:     WPUE = 0x00;
  4821  01A7  01E5               	clrf	101	;volatile
  4822  01A8                     l1392:	
  4823                           
  4824                           ;mcc_generated_files/pin_manager.c: 82:     WPUB = 0x00;
  4825  01A8  01C4               	clrf	68	;volatile
  4826  01A9                     l1394:	
  4827                           
  4828                           ;mcc_generated_files/pin_manager.c: 83:     WPUA = 0x00;
  4829  01A9  01B9               	clrf	57	;volatile
  4830  01AA                     l1396:	
  4831                           
  4832                           ;mcc_generated_files/pin_manager.c: 84:     WPUC = 0x00;
  4833  01AA  01CF               	clrf	79	;volatile
  4834  01AB                     l1398:	
  4835                           
  4836                           ;mcc_generated_files/pin_manager.c: 89:     ODCONA = 0x00;
  4837  01AB  01BA               	clrf	58	;volatile
  4838  01AC                     l1400:	
  4839                           
  4840                           ;mcc_generated_files/pin_manager.c: 90:     ODCONB = 0x00;
  4841  01AC  01C5               	clrf	69	;volatile
  4842  01AD                     l1402:	
  4843                           
  4844                           ;mcc_generated_files/pin_manager.c: 91:     ODCONC = 0x07;
  4845  01AD  3007               	movlw	7
  4846  01AE  00D0               	movwf	80	;volatile
  4847  01AF                     l1404:	
  4848                           
  4849                           ;mcc_generated_files/pin_manager.c: 96:     SLRCONA = 0xFF;
  4850  01AF  30FF               	movlw	255
  4851  01B0  00BB               	movwf	59	;volatile
  4852  01B1                     l1406:	
  4853                           
  4854                           ;mcc_generated_files/pin_manager.c: 97:     SLRCONB = 0xFF;
  4855  01B1  30FF               	movlw	255
  4856  01B2  00C6               	movwf	70	;volatile
  4857  01B3                     l1408:	
  4858                           
  4859                           ;mcc_generated_files/pin_manager.c: 98:     SLRCONC = 0xFF;
  4860  01B3  30FF               	movlw	255
  4861  01B4  00D1               	movwf	81	;volatile
  4862  01B5                     l1410:	
  4863                           
  4864                           ;mcc_generated_files/pin_manager.c: 103:     INLVLA = 0xFF;
  4865  01B5  30FF               	movlw	255
  4866  01B6  00BC               	movwf	60	;volatile
  4867  01B7                     l1412:	
  4868                           
  4869                           ;mcc_generated_files/pin_manager.c: 104:     INLVLB = 0xFF;
  4870  01B7  30FF               	movlw	255
  4871  01B8  00C7               	movwf	71	;volatile
  4872  01B9                     l1414:	
  4873                           
  4874                           ;mcc_generated_files/pin_manager.c: 105:     INLVLC = 0xFF;
  4875  01B9  30FF               	movlw	255
  4876  01BA  00D2               	movwf	82	;volatile
  4877  01BB                     l1416:	
  4878                           
  4879                           ;mcc_generated_files/pin_manager.c: 106:     INLVLE = 0x08;
  4880  01BB  3008               	movlw	8
  4881  01BC  00E8               	movwf	104	;volatile
  4882  01BD                     l1418:	
  4883                           
  4884                           ;mcc_generated_files/pin_manager.c: 115:     RC0PPS = 0x0B;
  4885  01BD  300B               	movlw	11
  4886  01BE  00A0               	movwf	32	;volatile
  4887  01BF                     l1420:	
  4888                           
  4889                           ;mcc_generated_files/pin_manager.c: 116:     RC1PPS = 0x0C;
  4890  01BF  300C               	movlw	12
  4891  01C0  00A1               	movwf	33	;volatile
  4892  01C1                     l1422:	
  4893                           
  4894                           ;mcc_generated_files/pin_manager.c: 117:     RC2PPS = 0x0D;
  4895  01C1  300D               	movlw	13
  4896  01C2  00A2               	movwf	34	;volatile
  4897  01C3                     l1424:	
  4898                           
  4899                           ;mcc_generated_files/pin_manager.c: 118:     RC6PPS = 0x0F;
  4900  01C3  300F               	movlw	15
  4901  01C4  00A6               	movwf	38	;volatile
  4902  01C5                     l1426:	
  4903                           
  4904                           ;mcc_generated_files/pin_manager.c: 119:     RX1DTPPS = 0x17;
  4905  01C5  3017               	movlw	23
  4906  01C6  017D               	movlb	61	; select bank61
  4907  01C7  00CB               	movwf	75	;volatile
  4908  01C8                     l164:	
  4909  01C8  0008               	return
  4910  01C9                     __end_of_PIN_MANAGER_Initialize:	
  4911                           
  4912                           	psect	text14
  4913  02F7                     __ptext14:	
  4914 ;; *************** function _OSCILLATOR_Initialize *****************
  4915 ;; Defined at:
  4916 ;;		line 62 in file "mcc_generated_files/mcc.c"
  4917 ;; Parameters:    Size  Location     Type
  4918 ;;		None
  4919 ;; Auto vars:     Size  Location     Type
  4920 ;;		None
  4921 ;; Return value:  Size  Location     Type
  4922 ;;                  1    wreg      void 
  4923 ;; Registers used:
  4924 ;;		wreg, status,2
  4925 ;; Tracked objects:
  4926 ;;		On entry : 0/0
  4927 ;;		On exit  : 0/0
  4928 ;;		Unchanged: 0/0
  4929 ;; Data sizes:     COMMON   BANK0   BANK1   BANK2   BANK3   BANK4   BANK5   BANK6   BANK7   BANK8   BANK9  BANK10  BANK1
      +1  BANK12  BANK13  BANK14  BANK15  BANK16  BANK17  BANK18  BANK19  BANK20  BANK21  BANK22  BANK23  BANK24  BANK25
  4930 ;;      Params:         0       0       0       0       0       0       0       0       0       0       0       0       
      +0       0       0       0       0       0       0       0       0       0       0       0       0       0       0
  4931 ;;      Locals:         0       0       0       0       0       0       0       0       0       0       0       0       
      +0       0       0       0       0       0       0       0       0       0       0       0       0       0       0
  4932 ;;      Temps:          0       0       0       0       0       0       0       0       0       0       0       0       
      +0       0       0       0       0       0       0       0       0       0       0       0       0       0       0
  4933 ;;      Totals:         0       0       0       0       0       0       0       0       0       0       0       0       
      +0       0       0       0       0       0       0       0       0       0       0       0       0       0       0
  4934 ;;Total ram usage:        0 bytes
  4935 ;; Hardware stack levels used:    1
  4936 ;; Hardware stack levels required when called:    2
  4937 ;; This function calls:
  4938 ;;		Nothing
  4939 ;; This function is called by:
  4940 ;;		_SYSTEM_Initialize
  4941 ;; This function uses a non-reentrant model
  4942 ;;
  4943                           
  4944                           
  4945                           ;psect for function _OSCILLATOR_Initialize
  4946  02F7                     _OSCILLATOR_Initialize:	
  4947  02F7                     l1428:	
  4948                           ;incstack = 0
  4949                           ; Regs used in _OSCILLATOR_Initialize: [wreg+status,2]
  4950                           
  4951                           
  4952                           ;mcc_generated_files/mcc.c: 65:     OSCCON1 = 0x10;
  4953  02F7  3010               	movlw	16
  4954  02F8  0151               	movlb	17	; select bank17
  4955  02F9  008D               	movwf	13	;volatile
  4956  02FA                     l1430:	
  4957                           
  4958                           ;mcc_generated_files/mcc.c: 67:     OSCCON3 = 0x00;
  4959  02FA  018F               	clrf	15	;volatile
  4960  02FB                     l1432:	
  4961                           
  4962                           ;mcc_generated_files/mcc.c: 69:     OSCEN = 0x00;
  4963  02FB  0191               	clrf	17	;volatile
  4964                           
  4965                           ;mcc_generated_files/mcc.c: 71:     OSCFRQ = 0x05;
  4966  02FC  3005               	movlw	5
  4967  02FD  0093               	movwf	19	;volatile
  4968  02FE                     l1434:	
  4969                           
  4970                           ;mcc_generated_files/mcc.c: 73:     OSCSTAT = 0x00;
  4971  02FE  0190               	clrf	16	;volatile
  4972  02FF                     l1436:	
  4973                           
  4974                           ;mcc_generated_files/mcc.c: 75:     OSCTUNE = 0x00;
  4975  02FF  0192               	clrf	18	;volatile
  4976  0300                     l99:	
  4977                           ;mcc_generated_files/mcc.c: 78:     {;mcc_generated_files/mcc.c: 79:     }
  4978                           
  4979                           
  4980                           ;mcc_generated_files/mcc.c: 77:     while(PLLR == 0)
  4981  0300  1C10               	btfss	16,0	;volatile
  4982  0301  2B03               	goto	u411
  4983  0302  2B04               	goto	u410
  4984  0303                     u411:	
  4985  0303  2B00               	goto	l99
  4986  0304                     u410:	
  4987  0304                     l102:	
  4988  0304  0008               	return
  4989  0305                     __end_of_OSCILLATOR_Initialize:	
  4990                           
  4991                           	psect	text15
  4992  02DA                     __ptext15:	
  4993 ;; *************** function _EUSART1_Initialize *****************
  4994 ;; Defined at:
  4995 ;;		line 54 in file "mcc_generated_files/eusart1.c"
  4996 ;; Parameters:    Size  Location     Type
  4997 ;;		None
  4998 ;; Auto vars:     Size  Location     Type
  4999 ;;		None
  5000 ;; Return value:  Size  Location     Type
  5001 ;;                  1    wreg      void 
  5002 ;; Registers used:
  5003 ;;		wreg
  5004 ;; Tracked objects:
  5005 ;;		On entry : 0/0
  5006 ;;		On exit  : 0/0
  5007 ;;		Unchanged: 0/0
  5008 ;; Data sizes:     COMMON   BANK0   BANK1   BANK2   BANK3   BANK4   BANK5   BANK6   BANK7   BANK8   BANK9  BANK10  BANK1
      +1  BANK12  BANK13  BANK14  BANK15  BANK16  BANK17  BANK18  BANK19  BANK20  BANK21  BANK22  BANK23  BANK24  BANK25
  5009 ;;      Params:         0       0       0       0       0       0       0       0       0       0       0       0       
      +0       0       0       0       0       0       0       0       0       0       0       0       0       0       0
  5010 ;;      Locals:         0       0       0       0       0       0       0       0       0       0       0       0       
      +0       0       0       0       0       0       0       0       0       0       0       0       0       0       0
  5011 ;;      Temps:          0       0       0       0       0       0       0       0       0       0       0       0       
      +0       0       0       0       0       0       0       0       0       0       0       0       0       0       0
  5012 ;;      Totals:         0       0       0       0       0       0       0       0       0       0       0       0       
      +0       0       0       0       0       0       0       0       0       0       0       0       0       0       0
  5013 ;;Total ram usage:        0 bytes
  5014 ;; Hardware stack levels used:    1
  5015 ;; Hardware stack levels required when called:    2
  5016 ;; This function calls:
  5017 ;;		Nothing
  5018 ;; This function is called by:
  5019 ;;		_SYSTEM_Initialize
  5020 ;; This function uses a non-reentrant model
  5021 ;;
  5022                           
  5023                           
  5024                           ;psect for function _EUSART1_Initialize
  5025  02DA                     _EUSART1_Initialize:	
  5026  02DA                     l1468:	
  5027                           ;incstack = 0
  5028                           ; Regs used in _EUSART1_Initialize: [wreg]
  5029                           
  5030                           
  5031                           ;mcc_generated_files/eusart1.c: 59:     BAUD1CON = 0x08;
  5032  02DA  3008               	movlw	8
  5033  02DB  0142               	movlb	2	; select bank2
  5034  02DC  009F               	movwf	31	;volatile
  5035                           
  5036                           ;mcc_generated_files/eusart1.c: 62:     RC1STA = 0x90;
  5037  02DD  3090               	movlw	144
  5038  02DE  009D               	movwf	29	;volatile
  5039                           
  5040                           ;mcc_generated_files/eusart1.c: 65:     TX1STA = 0x24;
  5041  02DF  3024               	movlw	36
  5042  02E0  009E               	movwf	30	;volatile
  5043                           
  5044                           ;mcc_generated_files/eusart1.c: 68:     SP1BRGL = 0x40;
  5045  02E1  3040               	movlw	64
  5046  02E2  009B               	movwf	27	;volatile
  5047                           
  5048                           ;mcc_generated_files/eusart1.c: 71:     SP1BRGH = 0x03;
  5049  02E3  3003               	movlw	3
  5050  02E4  009C               	movwf	28	;volatile
  5051  02E5                     l1470:	
  5052                           
  5053                           ;mcc_generated_files/eusart1.c: 74:     PIR3bits.RC1IF = 0;
  5054  02E5  014E               	movlb	14	; select bank14
  5055  02E6  128F               	bcf	15,5	;volatile
  5056  02E7                     l1472:	
  5057                           
  5058                           ;mcc_generated_files/eusart1.c: 75:     PIE3bits.RC1IE = 1;
  5059  02E7  1699               	bsf	25,5	;volatile
  5060  02E8                     l186:	
  5061  02E8  0008               	return
  5062  02E9                     __end_of_EUSART1_Initialize:	
  5063                           
  5064                           	psect	text16
  5065  0298                     __ptext16:	
  5066 ;; *************** function _PWM5_LoadDutyValue *****************
  5067 ;; Defined at:
  5068 ;;		line 72 in file "mcc_generated_files/pwm5.c"
  5069 ;; Parameters:    Size  Location     Type
  5070 ;;  dutyValue       2    2[COMMON] unsigned short 
  5071 ;; Auto vars:     Size  Location     Type
  5072 ;;		None
  5073 ;; Return value:  Size  Location     Type
  5074 ;;                  1    wreg      void 
  5075 ;; Registers used:
  5076 ;;		wreg, status,2, status,0
  5077 ;; Tracked objects:
  5078 ;;		On entry : 0/0
  5079 ;;		On exit  : 0/0
  5080 ;;		Unchanged: 0/0
  5081 ;; Data sizes:     COMMON   BANK0   BANK1   BANK2   BANK3   BANK4   BANK5   BANK6   BANK7   BANK8   BANK9  BANK10  BANK1
      +1  BANK12  BANK13  BANK14  BANK15  BANK16  BANK17  BANK18  BANK19  BANK20  BANK21  BANK22  BANK23  BANK24  BANK25
  5082 ;;      Params:         2       0       0       0       0       0       0       0       0       0       0       0       
      +0       0       0       0       0       0       0       0       0       0       0       0       0       0       0
  5083 ;;      Locals:         0       0       0       0       0       0       0       0       0       0       0       0       
      +0       0       0       0       0       0       0       0       0       0       0       0       0       0       0
  5084 ;;      Temps:          2       0       0       0       0       0       0       0       0       0       0       0       
      +0       0       0       0       0       0       0       0       0       0       0       0       0       0       0
  5085 ;;      Totals:         4       0       0       0       0       0       0       0       0       0       0       0       
      +0       0       0       0       0       0       0       0       0       0       0       0       0       0       0
  5086 ;;Total ram usage:        4 bytes
  5087 ;; Hardware stack levels used:    1
  5088 ;; Hardware stack levels required when called:    2
  5089 ;; This function calls:
  5090 ;;		Nothing
  5091 ;; This function is called by:
  5092 ;;		_main
  5093 ;; This function uses a non-reentrant model
  5094 ;;
  5095                           
  5096                           
  5097                           ;psect for function _PWM5_LoadDutyValue
  5098  0298                     _PWM5_LoadDutyValue:	
  5099  0298                     l1624:	
  5100                           ;incstack = 0
  5101                           ; Regs used in _PWM5_LoadDutyValue: [wreg+status,2+status,0]
  5102                           
  5103                           
  5104                           ;mcc_generated_files/pwm5.c: 72:  void PWM5_LoadDutyValue(uint16_t dutyValue);mcc_genera
      +                          ted_files/pwm5.c: 73:  {;mcc_generated_files/pwm5.c: 75:      PWM5DCH = (dutyValue & 0x0
      +                          3FC)>>2;
  5105  0298  0873               	movf	PWM5_LoadDutyValue@dutyValue+1,w
  5106  0299  00F5               	movwf	??_PWM5_LoadDutyValue+1
  5107  029A  0872               	movf	PWM5_LoadDutyValue@dutyValue,w
  5108  029B  00F4               	movwf	??_PWM5_LoadDutyValue
  5109  029C  36F5               	lsrf	??_PWM5_LoadDutyValue+1,f
  5110  029D  0CF4               	rrf	??_PWM5_LoadDutyValue,f
  5111  029E  36F5               	lsrf	??_PWM5_LoadDutyValue+1,f
  5112  029F  0CF4               	rrf	??_PWM5_LoadDutyValue,f
  5113  02A0  0874               	movf	??_PWM5_LoadDutyValue,w
  5114  02A1  0146               	movlb	6	; select bank6
  5115  02A2  009D               	movwf	29	;volatile
  5116                           
  5117                           ;mcc_generated_files/pwm5.c: 78:      PWM5DCL = (dutyValue & 0x0003)<<6;
  5118  02A3  0872               	movf	PWM5_LoadDutyValue@dutyValue,w
  5119  02A4  3903               	andlw	3
  5120  02A5  00F4               	movwf	??_PWM5_LoadDutyValue
  5121  02A6  3005               	movlw	5
  5122  02A7                     u605:	
  5123  02A7  35F4               	lslf	??_PWM5_LoadDutyValue,f
  5124  02A8  3EFF               	addlw	-1
  5125  02A9  1D03               	skipz
  5126  02AA  2AA7               	goto	u605
  5127  02AB  3574               	lslf	??_PWM5_LoadDutyValue,w
  5128  02AC  009C               	movwf	28	;volatile
  5129  02AD                     l295:	
  5130  02AD  0008               	return
  5131  02AE                     __end_of_PWM5_LoadDutyValue:	
  5132                           
  5133                           	psect	text17
  5134  02AE                     __ptext17:	
  5135 ;; *************** function _PWM4_LoadDutyValue *****************
  5136 ;; Defined at:
  5137 ;;		line 72 in file "mcc_generated_files/pwm4.c"
  5138 ;; Parameters:    Size  Location     Type
  5139 ;;  dutyValue       2    2[COMMON] unsigned short 
  5140 ;; Auto vars:     Size  Location     Type
  5141 ;;		None
  5142 ;; Return value:  Size  Location     Type
  5143 ;;                  1    wreg      void 
  5144 ;; Registers used:
  5145 ;;		wreg, status,2, status,0
  5146 ;; Tracked objects:
  5147 ;;		On entry : 0/0
  5148 ;;		On exit  : 0/0
  5149 ;;		Unchanged: 0/0
  5150 ;; Data sizes:     COMMON   BANK0   BANK1   BANK2   BANK3   BANK4   BANK5   BANK6   BANK7   BANK8   BANK9  BANK10  BANK1
      +1  BANK12  BANK13  BANK14  BANK15  BANK16  BANK17  BANK18  BANK19  BANK20  BANK21  BANK22  BANK23  BANK24  BANK25
  5151 ;;      Params:         2       0       0       0       0       0       0       0       0       0       0       0       
      +0       0       0       0       0       0       0       0       0       0       0       0       0       0       0
  5152 ;;      Locals:         0       0       0       0       0       0       0       0       0       0       0       0       
      +0       0       0       0       0       0       0       0       0       0       0       0       0       0       0
  5153 ;;      Temps:          2       0       0       0       0       0       0       0       0       0       0       0       
      +0       0       0       0       0       0       0       0       0       0       0       0       0       0       0
  5154 ;;      Totals:         4       0       0       0       0       0       0       0       0       0       0       0       
      +0       0       0       0       0       0       0       0       0       0       0       0       0       0       0
  5155 ;;Total ram usage:        4 bytes
  5156 ;; Hardware stack levels used:    1
  5157 ;; Hardware stack levels required when called:    2
  5158 ;; This function calls:
  5159 ;;		Nothing
  5160 ;; This function is called by:
  5161 ;;		_main
  5162 ;; This function uses a non-reentrant model
  5163 ;;
  5164                           
  5165                           
  5166                           ;psect for function _PWM4_LoadDutyValue
  5167  02AE                     _PWM4_LoadDutyValue:	
  5168  02AE                     l1622:	
  5169                           ;incstack = 0
  5170                           ; Regs used in _PWM4_LoadDutyValue: [wreg+status,2+status,0]
  5171                           
  5172                           
  5173                           ;mcc_generated_files/pwm4.c: 72:  void PWM4_LoadDutyValue(uint16_t dutyValue);mcc_genera
      +                          ted_files/pwm4.c: 73:  {;mcc_generated_files/pwm4.c: 75:      PWM4DCH = (dutyValue & 0x0
      +                          3FC)>>2;
  5174  02AE  0873               	movf	PWM4_LoadDutyValue@dutyValue+1,w
  5175  02AF  00F5               	movwf	??_PWM4_LoadDutyValue+1
  5176  02B0  0872               	movf	PWM4_LoadDutyValue@dutyValue,w
  5177  02B1  00F4               	movwf	??_PWM4_LoadDutyValue
  5178  02B2  36F5               	lsrf	??_PWM4_LoadDutyValue+1,f
  5179  02B3  0CF4               	rrf	??_PWM4_LoadDutyValue,f
  5180  02B4  36F5               	lsrf	??_PWM4_LoadDutyValue+1,f
  5181  02B5  0CF4               	rrf	??_PWM4_LoadDutyValue,f
  5182  02B6  0874               	movf	??_PWM4_LoadDutyValue,w
  5183  02B7  0146               	movlb	6	; select bank6
  5184  02B8  0099               	movwf	25	;volatile
  5185                           
  5186                           ;mcc_generated_files/pwm4.c: 78:      PWM4DCL = (dutyValue & 0x0003)<<6;
  5187  02B9  0872               	movf	PWM4_LoadDutyValue@dutyValue,w
  5188  02BA  3903               	andlw	3
  5189  02BB  00F4               	movwf	??_PWM4_LoadDutyValue
  5190  02BC  3005               	movlw	5
  5191  02BD                     u595:	
  5192  02BD  35F4               	lslf	??_PWM4_LoadDutyValue,f
  5193  02BE  3EFF               	addlw	-1
  5194  02BF  1D03               	skipz
  5195  02C0  2ABD               	goto	u595
  5196  02C1  3574               	lslf	??_PWM4_LoadDutyValue,w
  5197  02C2  0098               	movwf	24	;volatile
  5198  02C3                     l283:	
  5199  02C3  0008               	return
  5200  02C4                     __end_of_PWM4_LoadDutyValue:	
  5201                           
  5202                           	psect	text18
  5203  02C4                     __ptext18:	
  5204 ;; *************** function _PWM3_LoadDutyValue *****************
  5205 ;; Defined at:
  5206 ;;		line 72 in file "mcc_generated_files/pwm3.c"
  5207 ;; Parameters:    Size  Location     Type
  5208 ;;  dutyValue       2    2[COMMON] unsigned short 
  5209 ;; Auto vars:     Size  Location     Type
  5210 ;;		None
  5211 ;; Return value:  Size  Location     Type
  5212 ;;                  1    wreg      void 
  5213 ;; Registers used:
  5214 ;;		wreg, status,2, status,0
  5215 ;; Tracked objects:
  5216 ;;		On entry : 0/0
  5217 ;;		On exit  : 0/0
  5218 ;;		Unchanged: 0/0
  5219 ;; Data sizes:     COMMON   BANK0   BANK1   BANK2   BANK3   BANK4   BANK5   BANK6   BANK7   BANK8   BANK9  BANK10  BANK1
      +1  BANK12  BANK13  BANK14  BANK15  BANK16  BANK17  BANK18  BANK19  BANK20  BANK21  BANK22  BANK23  BANK24  BANK25
  5220 ;;      Params:         2       0       0       0       0       0       0       0       0       0       0       0       
      +0       0       0       0       0       0       0       0       0       0       0       0       0       0       0
  5221 ;;      Locals:         0       0       0       0       0       0       0       0       0       0       0       0       
      +0       0       0       0       0       0       0       0       0       0       0       0       0       0       0
  5222 ;;      Temps:          2       0       0       0       0       0       0       0       0       0       0       0       
      +0       0       0       0       0       0       0       0       0       0       0       0       0       0       0
  5223 ;;      Totals:         4       0       0       0       0       0       0       0       0       0       0       0       
      +0       0       0       0       0       0       0       0       0       0       0       0       0       0       0
  5224 ;;Total ram usage:        4 bytes
  5225 ;; Hardware stack levels used:    1
  5226 ;; Hardware stack levels required when called:    2
  5227 ;; This function calls:
  5228 ;;		Nothing
  5229 ;; This function is called by:
  5230 ;;		_main
  5231 ;; This function uses a non-reentrant model
  5232 ;;
  5233                           
  5234                           
  5235                           ;psect for function _PWM3_LoadDutyValue
  5236  02C4                     _PWM3_LoadDutyValue:	
  5237  02C4                     l1620:	
  5238                           ;incstack = 0
  5239                           ; Regs used in _PWM3_LoadDutyValue: [wreg+status,2+status,0]
  5240                           
  5241                           
  5242                           ;mcc_generated_files/pwm3.c: 72:  void PWM3_LoadDutyValue(uint16_t dutyValue);mcc_genera
      +                          ted_files/pwm3.c: 73:  {;mcc_generated_files/pwm3.c: 75:      PWM3DCH = (dutyValue & 0x0
      +                          3FC)>>2;
  5243  02C4  0873               	movf	PWM3_LoadDutyValue@dutyValue+1,w
  5244  02C5  00F5               	movwf	??_PWM3_LoadDutyValue+1
  5245  02C6  0872               	movf	PWM3_LoadDutyValue@dutyValue,w
  5246  02C7  00F4               	movwf	??_PWM3_LoadDutyValue
  5247  02C8  36F5               	lsrf	??_PWM3_LoadDutyValue+1,f
  5248  02C9  0CF4               	rrf	??_PWM3_LoadDutyValue,f
  5249  02CA  36F5               	lsrf	??_PWM3_LoadDutyValue+1,f
  5250  02CB  0CF4               	rrf	??_PWM3_LoadDutyValue,f
  5251  02CC  0874               	movf	??_PWM3_LoadDutyValue,w
  5252  02CD  0146               	movlb	6	; select bank6
  5253  02CE  0095               	movwf	21	;volatile
  5254                           
  5255                           ;mcc_generated_files/pwm3.c: 78:      PWM3DCL = (dutyValue & 0x0003)<<6;
  5256  02CF  0872               	movf	PWM3_LoadDutyValue@dutyValue,w
  5257  02D0  3903               	andlw	3
  5258  02D1  00F4               	movwf	??_PWM3_LoadDutyValue
  5259  02D2  3005               	movlw	5
  5260  02D3                     u585:	
  5261  02D3  35F4               	lslf	??_PWM3_LoadDutyValue,f
  5262  02D4  3EFF               	addlw	-1
  5263  02D5  1D03               	skipz
  5264  02D6  2AD3               	goto	u585
  5265  02D7  3574               	lslf	??_PWM3_LoadDutyValue,w
  5266  02D8  0094               	movwf	20	;volatile
  5267  02D9                     l204:	
  5268  02D9  0008               	return
  5269  02DA                     __end_of_PWM3_LoadDutyValue:	
  5270                           
  5271                           	psect	text19
  5272  024F                     __ptext19:	
  5273 ;; *************** function _Interrupt_Switch *****************
  5274 ;; Defined at:
  5275 ;;		line 11 in file "interrupt.c"
  5276 ;; Parameters:    Size  Location     Type
  5277 ;;  state           1    wreg     unsigned char 
  5278 ;; Auto vars:     Size  Location     Type
  5279 ;;  state           1    4[COMMON] unsigned char 
  5280 ;; Return value:  Size  Location     Type
  5281 ;;                  1    wreg      void 
  5282 ;; Registers used:
  5283 ;;		wreg, fsr0l, fsr0h, status,2, status,0
  5284 ;; Tracked objects:
  5285 ;;		On entry : 0/0
  5286 ;;		On exit  : 0/0
  5287 ;;		Unchanged: 0/0
  5288 ;; Data sizes:     COMMON   BANK0   BANK1   BANK2   BANK3   BANK4   BANK5   BANK6   BANK7   BANK8   BANK9  BANK10  BANK1
      +1  BANK12  BANK13  BANK14  BANK15  BANK16  BANK17  BANK18  BANK19  BANK20  BANK21  BANK22  BANK23  BANK24  BANK25
  5289 ;;      Params:         0       0       0       0       0       0       0       0       0       0       0       0       
      +0       0       0       0       0       0       0       0       0       0       0       0       0       0       0
  5290 ;;      Locals:         1       0       0       0       0       0       0       0       0       0       0       0       
      +0       0       0       0       0       0       0       0       0       0       0       0       0       0       0
  5291 ;;      Temps:          2       0       0       0       0       0       0       0       0       0       0       0       
      +0       0       0       0       0       0       0       0       0       0       0       0       0       0       0
  5292 ;;      Totals:         3       0       0       0       0       0       0       0       0       0       0       0       
      +0       0       0       0       0       0       0       0       0       0       0       0       0       0       0
  5293 ;;Total ram usage:        3 bytes
  5294 ;; Hardware stack levels used:    1
  5295 ;; Hardware stack levels required when called:    2
  5296 ;; This function calls:
  5297 ;;		Nothing
  5298 ;; This function is called by:
  5299 ;;		_main
  5300 ;; This function uses a non-reentrant model
  5301 ;;
  5302                           
  5303                           
  5304                           ;psect for function _Interrupt_Switch
  5305  024F                     _Interrupt_Switch:	
  5306                           
  5307                           ;incstack = 0
  5308                           ; Regs used in _Interrupt_Switch: [wreg-fsr0h+status,2+status,0]
  5309                           ;Interrupt_Switch@state stored from wreg
  5310  024F  00F4               	movwf	Interrupt_Switch@state
  5311  0250                     l1528:	
  5312                           
  5313                           ;interrupt.c: 11: void Interrupt_Switch(uint8_t state);interrupt.c: 12: {;interrupt.c: 1
      +                          3:     switch(state)
  5314  0250  2A57               	goto	l1532
  5315  0251                     l18:	
  5316                           ;interrupt.c: 14:     {;interrupt.c: 16:         case 0:
  5317                           
  5318                           
  5319                           ;interrupt.c: 17:         {;interrupt.c: 18:             INTCONbits.GIE = 0;
  5320  0251  138B               	bcf	11,7	;volatile
  5321                           
  5322                           ;interrupt.c: 19:             INTCONbits.PEIE = 0;
  5323  0252  130B               	bcf	11,6	;volatile
  5324                           
  5325                           ;interrupt.c: 20:             break;
  5326  0253  2A67               	goto	l21
  5327  0254                     l20:	
  5328                           ;interrupt.c: 21:         };interrupt.c: 22:         case 1:
  5329                           
  5330                           
  5331                           ;interrupt.c: 23:         {;interrupt.c: 24:             INTCONbits.PEIE = 1;
  5332  0254  170B               	bsf	11,6	;volatile
  5333                           
  5334                           ;interrupt.c: 25:             INTCONbits.GIE = 1;
  5335  0255  178B               	bsf	11,7	;volatile
  5336                           
  5337                           ;interrupt.c: 26:             break;
  5338  0256  2A67               	goto	l21
  5339  0257                     l1532:	
  5340  0257  0874               	movf	Interrupt_Switch@state,w
  5341  0258  00F2               	movwf	??_Interrupt_Switch
  5342  0259  01F3               	clrf	??_Interrupt_Switch+1
  5343                           
  5344                           ; Switch on 2 bytes has been partitioned into a top level switch of size 1, and 1 sub-sw
      +                          itches
  5345                           ; Switch size 1, requested type "simple"
  5346                           ; Number of cases is 1, Range of values is 0 to 0
  5347                           ; switch strategies available:
  5348                           ; Name         Instructions Cycles
  5349                           ; simple_byte            4     3 (average)
  5350                           ; direct_byte            8     6 (fixed)
  5351                           ; jumptable            260     6 (fixed)
  5352                           ;	Chosen strategy is simple_byte
  5353  025A  0873               	movf	??_Interrupt_Switch+1,w
  5354  025B  3A00               	xorlw	0	; case 0
  5355  025C  1903               	skipnz
  5356  025D  2A5F               	goto	l1848
  5357  025E  2A67               	goto	l21
  5358  025F                     l1848:	
  5359                           
  5360                           ; Switch size 1, requested type "simple"
  5361                           ; Number of cases is 2, Range of values is 0 to 1
  5362                           ; switch strategies available:
  5363                           ; Name         Instructions Cycles
  5364                           ; simple_byte            7     4 (average)
  5365                           ; direct_byte           10     6 (fixed)
  5366                           ; jumptable            260     6 (fixed)
  5367                           ;	Chosen strategy is simple_byte
  5368  025F  0872               	movf	??_Interrupt_Switch,w
  5369  0260  3A00               	xorlw	0	; case 0
  5370  0261  1903               	skipnz
  5371  0262  2A51               	goto	l18
  5372  0263  3A01               	xorlw	1	; case 1
  5373  0264  1903               	skipnz
  5374  0265  2A54               	goto	l20
  5375  0266  2A67               	goto	l21
  5376  0267                     l21:	
  5377  0267  0008               	return
  5378  0268                     __end_of_Interrupt_Switch:	
  5379                           
  5380                           	psect	intentry
  5381  0004                     __pintentry:	
  5382 ;; *************** function _Interrupt_Handler *****************
  5383 ;; Defined at:
  5384 ;;		line 112 in file "interrupt.c"
  5385 ;; Parameters:    Size  Location     Type
  5386 ;;		None
  5387 ;; Auto vars:     Size  Location     Type
  5388 ;;		None
  5389 ;; Return value:  Size  Location     Type
  5390 ;;                  1    wreg      void 
  5391 ;; Registers used:
  5392 ;;		wreg, fsr0l, fsr0h, fsr1l, fsr1h, status,2, status,0, pclath, cstack
  5393 ;; Tracked objects:
  5394 ;;		On entry : 0/0
  5395 ;;		On exit  : 0/0
  5396 ;;		Unchanged: 0/0
  5397 ;; Data sizes:     COMMON   BANK0   BANK1   BANK2   BANK3   BANK4   BANK5   BANK6   BANK7   BANK8   BANK9  BANK10  BANK1
      +1  BANK12  BANK13  BANK14  BANK15  BANK16  BANK17  BANK18  BANK19  BANK20  BANK21  BANK22  BANK23  BANK24  BANK25
  5398 ;;      Params:         0       0       0       0       0       0       0       0       0       0       0       0       
      +0       0       0       0       0       0       0       0       0       0       0       0       0       0       0
  5399 ;;      Locals:         0       0       0       0       0       0       0       0       0       0       0       0       
      +0       0       0       0       0       0       0       0       0       0       0       0       0       0       0
  5400 ;;      Temps:          0       0       0       0       0       0       0       0       0       0       0       0       
      +0       0       0       0       0       0       0       0       0       0       0       0       0       0       0
  5401 ;;      Totals:         0       0       0       0       0       0       0       0       0       0       0       0       
      +0       0       0       0       0       0       0       0       0       0       0       0       0       0       0
  5402 ;;Total ram usage:        0 bytes
  5403 ;; Hardware stack levels used:    1
  5404 ;; Hardware stack levels required when called:    1
  5405 ;; This function calls:
  5406 ;;		_UART_Rx_IntHandler
  5407 ;; This function is called by:
  5408 ;;		Interrupt level 1
  5409 ;; This function uses a non-reentrant model
  5410 ;;
  5411                           
  5412  0004                     _Interrupt_Handler:	
  5413                           
  5414                           ;incstack = 0
  5415  0004  147E               	bsf	int$flags,0	;set compiler interrupt flag (level 1)
  5416                           
  5417                           ; Regs used in _Interrupt_Handler: [wreg-fsr1h+status,2+status,0+pclath+cstack]
  5418  0005  3180               	pagesel	$
  5419  0006                     i1l1632:	
  5420                           
  5421                           ;interrupt.c: 114:     if(PIR3bits.RC1IF == 1)
  5422  0006  014E               	movlb	14	; select bank14
  5423  0007  1E8F               	btfss	15,5	;volatile
  5424  0008  280A               	goto	u61_21
  5425  0009  280B               	goto	u61_20
  5426  000A                     u61_21:	
  5427  000A  280E               	goto	i1l51
  5428  000B                     u61_20:	
  5429  000B                     i1l1634:	
  5430                           
  5431                           ;interrupt.c: 115:     {;interrupt.c: 116:         UART_Rx_IntHandler();
  5432  000B  3180  20C9  3180   	fcall	_UART_Rx_IntHandler
  5433  000E                     i1l51:	
  5434  000E  107E               	bcf	int$flags,0	;clear compiler interrupt flag (level 1)
  5435  000F  0009               	retfie
  5436  0010                     __end_of_Interrupt_Handler:	
  5437                           
  5438                           	psect	text21
  5439  00C9                     __ptext21:	
  5440 ;; *************** function _UART_Rx_IntHandler *****************
  5441 ;; Defined at:
  5442 ;;		line 37 in file "interrupt.c"
  5443 ;; Parameters:    Size  Location     Type
  5444 ;;		None
  5445 ;; Auto vars:     Size  Location     Type
  5446 ;;		None
  5447 ;; Return value:  Size  Location     Type
  5448 ;;                  1    wreg      void 
  5449 ;; Registers used:
  5450 ;;		wreg, fsr0l, fsr0h, fsr1l, fsr1h, status,2, status,0
  5451 ;; Tracked objects:
  5452 ;;		On entry : 0/0
  5453 ;;		On exit  : 0/0
  5454 ;;		Unchanged: 0/0
  5455 ;; Data sizes:     COMMON   BANK0   BANK1   BANK2   BANK3   BANK4   BANK5   BANK6   BANK7   BANK8   BANK9  BANK10  BANK1
      +1  BANK12  BANK13  BANK14  BANK15  BANK16  BANK17  BANK18  BANK19  BANK20  BANK21  BANK22  BANK23  BANK24  BANK25
  5456 ;;      Params:         0       0       0       0       0       0       0       0       0       0       0       0       
      +0       0       0       0       0       0       0       0       0       0       0       0       0       0       0
  5457 ;;      Locals:         0       0       0       0       0       0       0       0       0       0       0       0       
      +0       0       0       0       0       0       0       0       0       0       0       0       0       0       0
  5458 ;;      Temps:          2       0       0       0       0       0       0       0       0       0       0       0       
      +0       0       0       0       0       0       0       0       0       0       0       0       0       0       0
  5459 ;;      Totals:         2       0       0       0       0       0       0       0       0       0       0       0       
      +0       0       0       0       0       0       0       0       0       0       0       0       0       0       0
  5460 ;;Total ram usage:        2 bytes
  5461 ;; Hardware stack levels used:    1
  5462 ;; This function calls:
  5463 ;;		Nothing
  5464 ;; This function is called by:
  5465 ;;		_Interrupt_Handler
  5466 ;; This function uses a non-reentrant model
  5467 ;;
  5468                           
  5469                           
  5470                           ;psect for function _UART_Rx_IntHandler
  5471  00C9                     _UART_Rx_IntHandler:	
  5472  00C9                     i1l1538:	
  5473                           ;incstack = 0
  5474                           ; Regs used in _UART_Rx_IntHandler: [wreg-fsr1h+status,2+status,0]
  5475                           
  5476                           
  5477                           ;interrupt.c: 39:     UARTReceivedByte = RC1REG;
  5478  00C9  0142               	movlb	2	; select bank2
  5479  00CA  0819               	movf	25,w	;volatile
  5480  00CB  00F0               	movwf	??_UART_Rx_IntHandler
  5481  00CC  0870               	movf	??_UART_Rx_IntHandler,w
  5482  00CD  00FA               	movwf	_UARTReceivedByte
  5483                           
  5484                           ;interrupt.c: 41:     switch(receive_state)
  5485  00CE  2935               	goto	i1l1594
  5486  00CF                     i1l1540:	
  5487                           
  5488                           ;interrupt.c: 44:         {;interrupt.c: 45:             if(UARTReceivedByte == 's')
  5489  00CF  3073               	movlw	115
  5490  00D0  067A               	xorwf	_UARTReceivedByte,w
  5491  00D1  1D03               	btfss	3,2
  5492  00D2  28D4               	goto	u50_21
  5493  00D3  28D5               	goto	u50_20
  5494  00D4                     u50_21:	
  5495  00D4  294F               	goto	i1l29
  5496  00D5                     u50_20:	
  5497  00D5                     i1l1542:	
  5498                           
  5499                           ;interrupt.c: 46:             {;interrupt.c: 47:                 UARTBufferIndex = 0;
  5500  00D5  01FB               	clrf	_UARTBufferIndex
  5501  00D6                     i1l1544:	
  5502                           
  5503                           ;interrupt.c: 48:                 receive_state++;
  5504  00D6  3001               	movlw	1
  5505  00D7  00F0               	movwf	??_UART_Rx_IntHandler
  5506  00D8  0870               	movf	??_UART_Rx_IntHandler,w
  5507  00D9  07A6               	addwf	_receive_state,f	;volatile
  5508  00DA  294F               	goto	i1l29
  5509  00DB                     i1l1546:	
  5510                           
  5511                           ;interrupt.c: 53:         {;interrupt.c: 54:             if(UARTReceivedByte == '.')
  5512  00DB  302E               	movlw	46
  5513  00DC  067A               	xorwf	_UARTReceivedByte,w
  5514  00DD  1D03               	btfss	3,2
  5515  00DE  28E0               	goto	u51_21
  5516  00DF  28E1               	goto	u51_20
  5517  00E0                     u51_21:	
  5518  00E0  294F               	goto	i1l29
  5519  00E1                     u51_20:	
  5520  00E1  28D6               	goto	i1l1544
  5521  00E2                     i1l1550:	
  5522                           
  5523                           ;interrupt.c: 61:         {;interrupt.c: 62:             if(UARTReceivedByte == '.')
  5524  00E2  302E               	movlw	46
  5525  00E3  067A               	xorwf	_UARTReceivedByte,w
  5526  00E4  1D03               	btfss	3,2
  5527  00E5  28E7               	goto	u52_21
  5528  00E6  28E8               	goto	u52_20
  5529  00E7                     u52_21:	
  5530  00E7  28F1               	goto	i1l1556
  5531  00E8                     u52_20:	
  5532  00E8                     i1l1552:	
  5533                           
  5534                           ;interrupt.c: 63:             {;interrupt.c: 64:                 receive_state++;
  5535  00E8  3001               	movlw	1
  5536  00E9  00F0               	movwf	??_UART_Rx_IntHandler
  5537  00EA  0870               	movf	??_UART_Rx_IntHandler,w
  5538  00EB  07A6               	addwf	_receive_state,f	;volatile
  5539  00EC                     i1l1554:	
  5540                           
  5541                           ;interrupt.c: 65:                 UARTBufferIndex = 4;
  5542  00EC  3004               	movlw	4
  5543  00ED  00F0               	movwf	??_UART_Rx_IntHandler
  5544  00EE  0870               	movf	??_UART_Rx_IntHandler,w
  5545  00EF  00FB               	movwf	_UARTBufferIndex
  5546                           
  5547                           ;interrupt.c: 66:             }
  5548  00F0  294F               	goto	i1l29
  5549  00F1                     i1l1556:	
  5550                           
  5551                           ;interrupt.c: 68:             {;interrupt.c: 70:                 if(UARTBufferIndex >= 4
      +                          ) UARTBufferIndex = 0;
  5552  00F1  3004               	movlw	4
  5553  00F2  027B               	subwf	_UARTBufferIndex,w
  5554  00F3  1C03               	skipc
  5555  00F4  28F6               	goto	u53_21
  5556  00F5  28F7               	goto	u53_20
  5557  00F6                     u53_21:	
  5558  00F6  28F8               	goto	i1l1560
  5559  00F7                     u53_20:	
  5560  00F7                     i1l1558:	
  5561  00F7  01FB               	clrf	_UARTBufferIndex
  5562  00F8                     i1l1560:	
  5563                           
  5564                           ;interrupt.c: 71:                 UARTBuffer[UARTBufferIndex++] = UARTReceivedByte;
  5565  00F8  087A               	movf	_UARTReceivedByte,w
  5566  00F9  00F0               	movwf	??_UART_Rx_IntHandler
  5567  00FA  087B               	movf	_UARTBufferIndex,w
  5568  00FB  3E28               	addlw	(low (_UARTBuffer| 0))& (0+255)
  5569  00FC  0086               	movwf	6
  5570  00FD  0187               	clrf	7
  5571  00FE  0870               	movf	??_UART_Rx_IntHandler,w
  5572  00FF  0081               	movwf	1
  5573  0100                     i1l1562:	
  5574  0100  3001               	movlw	1
  5575  0101  00F0               	movwf	??_UART_Rx_IntHandler
  5576  0102  0870               	movf	??_UART_Rx_IntHandler,w
  5577  0103  07FB               	addwf	_UARTBufferIndex,f
  5578  0104  294F               	goto	i1l29
  5579  0105                     i1l1564:	
  5580                           
  5581                           ;interrupt.c: 76:         {;interrupt.c: 77:             if(UARTReceivedByte == '.')
  5582  0105  302E               	movlw	46
  5583  0106  067A               	xorwf	_UARTReceivedByte,w
  5584  0107  1D03               	btfss	3,2
  5585  0108  290A               	goto	u54_21
  5586  0109  290B               	goto	u54_20
  5587  010A                     u54_21:	
  5588  010A  2914               	goto	i1l1570
  5589  010B                     u54_20:	
  5590  010B                     i1l1566:	
  5591                           
  5592                           ;interrupt.c: 78:             {;interrupt.c: 79:                 receive_state++;
  5593  010B  3001               	movlw	1
  5594  010C  00F0               	movwf	??_UART_Rx_IntHandler
  5595  010D  0870               	movf	??_UART_Rx_IntHandler,w
  5596  010E  07A6               	addwf	_receive_state,f	;volatile
  5597  010F                     i1l1568:	
  5598                           
  5599                           ;interrupt.c: 80:                 UARTBufferIndex = 8;
  5600  010F  3008               	movlw	8
  5601  0110  00F0               	movwf	??_UART_Rx_IntHandler
  5602  0111  0870               	movf	??_UART_Rx_IntHandler,w
  5603  0112  00FB               	movwf	_UARTBufferIndex
  5604                           
  5605                           ;interrupt.c: 81:             }
  5606  0113  294F               	goto	i1l29
  5607  0114                     i1l1570:	
  5608                           
  5609                           ;interrupt.c: 83:             {;interrupt.c: 85:                 if(UARTBufferIndex >= 8
      +                          ) UARTBufferIndex = 4;
  5610  0114  3008               	movlw	8
  5611  0115  027B               	subwf	_UARTBufferIndex,w
  5612  0116  1C03               	skipc
  5613  0117  2919               	goto	u55_21
  5614  0118  291A               	goto	u55_20
  5615  0119                     u55_21:	
  5616  0119  28F8               	goto	i1l1560
  5617  011A                     u55_20:	
  5618  011A                     i1l1572:	
  5619  011A  3004               	movlw	4
  5620  011B  00F0               	movwf	??_UART_Rx_IntHandler
  5621  011C  0870               	movf	??_UART_Rx_IntHandler,w
  5622  011D  00FB               	movwf	_UARTBufferIndex
  5623  011E  28F8               	goto	i1l1560
  5624  011F                     i1l1578:	
  5625                           
  5626                           ;interrupt.c: 91:         {;interrupt.c: 92:             if(UARTReceivedByte == '.')
  5627  011F  302E               	movlw	46
  5628  0120  067A               	xorwf	_UARTReceivedByte,w
  5629  0121  1D03               	btfss	3,2
  5630  0122  2924               	goto	u56_21
  5631  0123  2925               	goto	u56_20
  5632  0124                     u56_21:	
  5633  0124  292A               	goto	i1l1584
  5634  0125                     u56_20:	
  5635  0125                     i1l1580:	
  5636                           
  5637                           ;interrupt.c: 93:             {;interrupt.c: 94:                 receive_state = 0;
  5638  0125  01A6               	clrf	_receive_state	;volatile
  5639                           
  5640                           ;interrupt.c: 95:                 UARTBufferIndex = 0;
  5641  0126  01FB               	clrf	_UARTBufferIndex
  5642  0127                     i1l1582:	
  5643                           
  5644                           ;interrupt.c: 96:                 transfer_done = 1;
  5645  0127  01A7               	clrf	_transfer_done
  5646  0128  0AA7               	incf	_transfer_done,f
  5647                           
  5648                           ;interrupt.c: 97:             }
  5649  0129  294F               	goto	i1l29
  5650  012A                     i1l1584:	
  5651                           
  5652                           ;interrupt.c: 99:             {;interrupt.c: 101:                 if(UARTBufferIndex >= 
      +                          12) UARTBufferIndex = 8;
  5653  012A  300C               	movlw	12
  5654  012B  027B               	subwf	_UARTBufferIndex,w
  5655  012C  1C03               	skipc
  5656  012D  292F               	goto	u57_21
  5657  012E  2930               	goto	u57_20
  5658  012F                     u57_21:	
  5659  012F  28F8               	goto	i1l1560
  5660  0130                     u57_20:	
  5661  0130                     i1l1586:	
  5662  0130  3008               	movlw	8
  5663  0131  00F0               	movwf	??_UART_Rx_IntHandler
  5664  0132  0870               	movf	??_UART_Rx_IntHandler,w
  5665  0133  00FB               	movwf	_UARTBufferIndex
  5666  0134  28F8               	goto	i1l1560
  5667  0135                     i1l1594:	
  5668  0135  0140               	movlb	0	; select bank0
  5669  0136  0826               	movf	_receive_state,w	;volatile
  5670  0137  00F0               	movwf	??_UART_Rx_IntHandler
  5671  0138  01F1               	clrf	??_UART_Rx_IntHandler+1
  5672                           
  5673                           ; Switch on 2 bytes has been partitioned into a top level switch of size 1, and 1 sub-sw
      +                          itches
  5674                           ; Switch size 1, requested type "simple"
  5675                           ; Number of cases is 1, Range of values is 0 to 0
  5676                           ; switch strategies available:
  5677                           ; Name         Instructions Cycles
  5678                           ; simple_byte            4     3 (average)
  5679                           ; direct_byte            8     6 (fixed)
  5680                           ; jumptable            260     6 (fixed)
  5681                           ;	Chosen strategy is simple_byte
  5682  0139  0871               	movf	??_UART_Rx_IntHandler+1,w
  5683  013A  3A00               	xorlw	0	; case 0
  5684  013B  1903               	skipnz
  5685  013C  293E               	goto	i1l1850
  5686  013D  294F               	goto	i1l29
  5687  013E                     i1l1850:	
  5688                           
  5689                           ; Switch size 1, requested type "simple"
  5690                           ; Number of cases is 5, Range of values is 0 to 4
  5691                           ; switch strategies available:
  5692                           ; Name         Instructions Cycles
  5693                           ; direct_byte           16     6 (fixed)
  5694                           ; simple_byte           16     9 (average)
  5695                           ; jumptable            260     6 (fixed)
  5696                           ;	Chosen strategy is simple_byte
  5697  013E  0870               	movf	??_UART_Rx_IntHandler,w
  5698  013F  3A00               	xorlw	0	; case 0
  5699  0140  1903               	skipnz
  5700  0141  28CF               	goto	i1l1540
  5701  0142  3A01               	xorlw	1	; case 1
  5702  0143  1903               	skipnz
  5703  0144  28DB               	goto	i1l1546
  5704  0145  3A03               	xorlw	3	; case 2
  5705  0146  1903               	skipnz
  5706  0147  28E2               	goto	i1l1550
  5707  0148  3A01               	xorlw	1	; case 3
  5708  0149  1903               	skipnz
  5709  014A  2905               	goto	i1l1564
  5710  014B  3A07               	xorlw	7	; case 4
  5711  014C  1903               	skipnz
  5712  014D  291F               	goto	i1l1578
  5713  014E  294F               	goto	i1l29
  5714  014F                     i1l29:	
  5715                           
  5716                           ;interrupt.c: 110:     PIR3bits.RC1IF = 0;
  5717  014F  014E               	movlb	14	; select bank14
  5718  0150  128F               	bcf	15,5	;volatile
  5719  0151                     i1l45:	
  5720  0151  0008               	return
  5721  0152                     __end_of_UART_Rx_IntHandler:	
  5722  007E                     btemp	set	126	;btemp
  5723  007E                     int$flags	set	126
  5724  007E                     wtemp0	set	126


Data Sizes:
    Strings     0
    Constant    0
    Data        0
    BSS         26
    Persistent  32
    Stack       0

Auto Spaces:
    Space          Size  Autos    Used
    COMMON           14     10      12
    BANK0            80     23      47
    BANK1            80      0       0
    BANK2            80      0       0
    BANK3            80      0       0
    BANK4            80      0       0
    BANK5            80      0       0
    BANK6            80      0       0
    BANK7            80      0       0
    BANK8            80      0       0
    BANK9            80      0       0
    BANK10           80      0       0
    BANK11           80      0       0
    BANK12           80      0       0
    BANK13           80      0       0
    BANK14           80      0       0
    BANK15           80      0       0
    BANK16           80      0       0
    BANK17           80      0       0
    BANK18           80      0       0
    BANK19           80      0       0
    BANK20           80      0       0
    BANK21           80      0       0
    BANK22           80      0       0
    BANK23           80      0       0
    BANK24           80      0       0
    BANK25           32      0       0

Pointer List with Targets:

    memcpy@d1	PTR void  size(1) Largest target is 4
		 -> string_to_decimal@temp_buffer(BANK0[4]), 

    memcpy@d	PTR unsigned char  size(1) Largest target is 4
		 -> string_to_decimal@temp_buffer(BANK0[4]), 

    memcpy@s1	PTR const void  size(1) Largest target is 16
		 -> UARTBuffer(BANK0[16]), 

    memcpy@s	PTR const unsigned char  size(1) Largest target is 16
		 -> UARTBuffer(BANK0[16]), 

    atoi@s	PTR const unsigned char  size(1) Largest target is 4
		 -> string_to_decimal@temp_buffer(BANK0[4]), 

    sp__memcpy	PTR void  size(1) Largest target is 4
		 -> string_to_decimal@temp_buffer(BANK0[4]), 

    string_to_decimal@buffer	PTR unsigned char  size(1) Largest target is 16
		 -> UARTBuffer(BANK0[16]), 


Critical Paths under _main in COMMON

    _string_to_decimal->_atoi
    _string_to_decimal->_memcpy
    _atoi->___wmul
    _atoi->_isdigit

Critical Paths under _Interrupt_Handler in COMMON

    _Interrupt_Handler->_UART_Rx_IntHandler

Critical Paths under _main in BANK0

    _main->_string_to_decimal
    _string_to_decimal->_atoi

Critical Paths under _Interrupt_Handler in BANK0

    None.

Critical Paths under _main in BANK1

    None.

Critical Paths under _Interrupt_Handler in BANK1

    None.

Critical Paths under _main in BANK2

    None.

Critical Paths under _Interrupt_Handler in BANK2

    None.

Critical Paths under _main in BANK3

    None.

Critical Paths under _Interrupt_Handler in BANK3

    None.

Critical Paths under _main in BANK4

    None.

Critical Paths under _Interrupt_Handler in BANK4

    None.

Critical Paths under _main in BANK5

    None.

Critical Paths under _Interrupt_Handler in BANK5

    None.

Critical Paths under _main in BANK6

    None.

Critical Paths under _Interrupt_Handler in BANK6

    None.

Critical Paths under _main in BANK7

    None.

Critical Paths under _Interrupt_Handler in BANK7

    None.

Critical Paths under _main in BANK8

    None.

Critical Paths under _Interrupt_Handler in BANK8

    None.

Critical Paths under _main in BANK9

    None.

Critical Paths under _Interrupt_Handler in BANK9

    None.

Critical Paths under _main in BANK10

    None.

Critical Paths under _Interrupt_Handler in BANK10

    None.

Critical Paths under _main in BANK11

    None.

Critical Paths under _Interrupt_Handler in BANK11

    None.

Critical Paths under _main in BANK12

    None.

Critical Paths under _Interrupt_Handler in BANK12

    None.

Critical Paths under _main in BANK13

    None.

Critical Paths under _Interrupt_Handler in BANK13

    None.

Critical Paths under _main in BANK14

    None.

Critical Paths under _Interrupt_Handler in BANK14

    None.

Critical Paths under _main in BANK15

    None.

Critical Paths under _Interrupt_Handler in BANK15

    None.

Critical Paths under _main in BANK16

    None.

Critical Paths under _Interrupt_Handler in BANK16

    None.

Critical Paths under _main in BANK17

    None.

Critical Paths under _Interrupt_Handler in BANK17

    None.

Critical Paths under _main in BANK18

    None.

Critical Paths under _Interrupt_Handler in BANK18

    None.

Critical Paths under _main in BANK19

    None.

Critical Paths under _Interrupt_Handler in BANK19

    None.

Critical Paths under _main in BANK20

    None.

Critical Paths under _Interrupt_Handler in BANK20

    None.

Critical Paths under _main in BANK21

    None.

Critical Paths under _Interrupt_Handler in BANK21

    None.

Critical Paths under _main in BANK22

    None.

Critical Paths under _Interrupt_Handler in BANK22

    None.

Critical Paths under _main in BANK23

    None.

Critical Paths under _Interrupt_Handler in BANK23

    None.

Critical Paths under _main in BANK24

    None.

Critical Paths under _Interrupt_Handler in BANK24

    None.

Critical Paths under _main in BANK25

    None.

Critical Paths under _Interrupt_Handler in BANK25

    None.

Call Graph Tables:

 ---------------------------------------------------------------------------------
 (Depth) Function   	        Calls       Base Space   Used Autos Params    Refs
 ---------------------------------------------------------------------------------
 (0) _main                                                 1     1      0    1907
                                             22 BANK0      1     1      0
                   _Interrupt_Switch
                 _PWM3_LoadDutyValue
                 _PWM4_LoadDutyValue
                 _PWM5_LoadDutyValue
                  _SYSTEM_Initialize
                  _string_to_decimal
 ---------------------------------------------------------------------------------
 (1) _string_to_decimal                                    8     6      2    1522
                                             14 BANK0      8     6      2
                               _atoi
                             _memcpy
 ---------------------------------------------------------------------------------
 (2) _memcpy                                               8     5      3     328
                                              2 COMMON     8     5      3
 ---------------------------------------------------------------------------------
 (2) _atoi                                                16    14      2     966
                                              8 COMMON     2     0      2
                                              0 BANK0     14    14      0
                             ___wmul
                            _isdigit
                            _isspace
 ---------------------------------------------------------------------------------
 (3) _isspace                                              5     3      2     207
                                              2 COMMON     5     3      2
 ---------------------------------------------------------------------------------
 (3) _isdigit                                              6     4      2     161
                                              2 COMMON     6     4      2
 ---------------------------------------------------------------------------------
 (3) ___wmul                                               6     2      4     244
                                              2 COMMON     6     2      4
 ---------------------------------------------------------------------------------
 (1) _SYSTEM_Initialize                                    0     0      0       0
                 _EUSART1_Initialize
              _OSCILLATOR_Initialize
             _PIN_MANAGER_Initialize
                     _PMD_Initialize
                    _PWM3_Initialize
                    _PWM4_Initialize
                    _PWM5_Initialize
                    _TMR2_Initialize
 ---------------------------------------------------------------------------------
 (2) _TMR2_Initialize                                      0     0      0       0
 ---------------------------------------------------------------------------------
 (2) _PWM5_Initialize                                      0     0      0       0
 ---------------------------------------------------------------------------------
 (2) _PWM4_Initialize                                      0     0      0       0
 ---------------------------------------------------------------------------------
 (2) _PWM3_Initialize                                      0     0      0       0
 ---------------------------------------------------------------------------------
 (2) _PMD_Initialize                                       0     0      0       0
 ---------------------------------------------------------------------------------
 (2) _PIN_MANAGER_Initialize                               0     0      0       0
 ---------------------------------------------------------------------------------
 (2) _OSCILLATOR_Initialize                                0     0      0       0
 ---------------------------------------------------------------------------------
 (2) _EUSART1_Initialize                                   0     0      0       0
 ---------------------------------------------------------------------------------
 (1) _PWM5_LoadDutyValue                                   4     2      2     120
                                              2 COMMON     4     2      2
 ---------------------------------------------------------------------------------
 (1) _PWM4_LoadDutyValue                                   4     2      2     120
                                              2 COMMON     4     2      2
 ---------------------------------------------------------------------------------
 (1) _PWM3_LoadDutyValue                                   4     2      2     120
                                              2 COMMON     4     2      2
 ---------------------------------------------------------------------------------
 (1) _Interrupt_Switch                                     3     3      0      22
                                              2 COMMON     3     3      0
 ---------------------------------------------------------------------------------
 Estimated maximum stack depth 3
 ---------------------------------------------------------------------------------
 (Depth) Function   	        Calls       Base Space   Used Autos Params    Refs
 ---------------------------------------------------------------------------------
 (4) _Interrupt_Handler                                    0     0      0       0
                 _UART_Rx_IntHandler
 ---------------------------------------------------------------------------------
 (5) _UART_Rx_IntHandler                                   2     2      0       0
                                              0 COMMON     2     2      0
 ---------------------------------------------------------------------------------
 Estimated maximum stack depth 5
 ---------------------------------------------------------------------------------

 Call Graph Graphs:

 _main (ROOT)
   _Interrupt_Switch
   _PWM3_LoadDutyValue
   _PWM4_LoadDutyValue
   _PWM5_LoadDutyValue
   _SYSTEM_Initialize
     _EUSART1_Initialize
     _OSCILLATOR_Initialize
     _PIN_MANAGER_Initialize
     _PMD_Initialize
     _PWM3_Initialize
     _PWM4_Initialize
     _PWM5_Initialize
     _TMR2_Initialize
   _string_to_decimal
     _atoi
       ___wmul
       _isdigit
       _isspace
     _memcpy

 _Interrupt_Handler (ROOT)
   _UART_Rx_IntHandler

 Address spaces:
Name               Size   Autos  Total    Cost      Usage
BIGRAM             7F0      0       0       0        0.0%
NULL                 0      0       0       0        0.0%
CODE                 0      0       0       0        0.0%
BITCOMMON            E      0       0       1        0.0%
BITSFR0              0      0       0       1        0.0%
SFR0                 0      0       0       1        0.0%
COMMON               E      A       C       2       85.7%
BITSFR1              0      0       0       2        0.0%
SFR1                 0      0       0       2        0.0%
BITSFR2              0      0       0       3        0.0%
SFR2                 0      0       0       3        0.0%
STACK                0      0       0       3        0.0%
BITBANK0            50      0       0       4        0.0%
BITSFR3              0      0       0       4        0.0%
SFR3                 0      0       0       4        0.0%
BANK0               50     17      2F       5       58.8%
BITSFR4              0      0       0       5        0.0%
SFR4                 0      0       0       5        0.0%
BITBANK1            50      0       0       6        0.0%
BITSFR5              0      0       0       6        0.0%
SFR5                 0      0       0       6        0.0%
BANK1               50      0       0       7        0.0%
BITSFR6              0      0       0       7        0.0%
SFR6                 0      0       0       7        0.0%
BITSFR7              0      0       0       8        0.0%
SFR7                 0      0       0       8        0.0%
ABS                  0      0      3B       8        0.0%
BITBANK2            50      0       0       9        0.0%
BITSFR8              0      0       0       9        0.0%
SFR8                 0      0       0       9        0.0%
BANK2               50      0       0      10        0.0%
BITSFR9              0      0       0      10        0.0%
SFR9                 0      0       0      10        0.0%
BITBANK3            50      0       0      11        0.0%
BITSFR10             0      0       0      11        0.0%
SFR10                0      0       0      11        0.0%
BANK3               50      0       0      12        0.0%
BITSFR11             0      0       0      12        0.0%
SFR11                0      0       0      12        0.0%
BITBANK4            50      0       0      13        0.0%
BITSFR12             0      0       0      13        0.0%
SFR12                0      0       0      13        0.0%
BANK4               50      0       0      14        0.0%
BITSFR13             0      0       0      14        0.0%
SFR13                0      0       0      14        0.0%
BITBANK5            50      0       0      15        0.0%
BITSFR14             0      0       0      15        0.0%
SFR14                0      0       0      15        0.0%
BANK5               50      0       0      16        0.0%
BITSFR15             0      0       0      16        0.0%
SFR15                0      0       0      16        0.0%
BITBANK6            50      0       0      17        0.0%
BITSFR16             0      0       0      17        0.0%
SFR16                0      0       0      17        0.0%
BANK6               50      0       0      18        0.0%
BITSFR17             0      0       0      18        0.0%
SFR17                0      0       0      18        0.0%
BITBANK7            50      0       0      19        0.0%
BITSFR18             0      0       0      19        0.0%
SFR18                0      0       0      19        0.0%
BANK7               50      0       0      20        0.0%
BITSFR19             0      0       0      20        0.0%
SFR19                0      0       0      20        0.0%
BITBANK8            50      0       0      21        0.0%
BITSFR20             0      0       0      21        0.0%
SFR20                0      0       0      21        0.0%
BANK8               50      0       0      22        0.0%
BITSFR21             0      0       0      22        0.0%
SFR21                0      0       0      22        0.0%
BITBANK9            50      0       0      23        0.0%
BITSFR22             0      0       0      23        0.0%
SFR22                0      0       0      23        0.0%
BANK9               50      0       0      24        0.0%
BITSFR23             0      0       0      24        0.0%
SFR23                0      0       0      24        0.0%
BITBANK10           50      0       0      25        0.0%
BITSFR24             0      0       0      25        0.0%
SFR24                0      0       0      25        0.0%
BANK10              50      0       0      26        0.0%
BITSFR25             0      0       0      26        0.0%
SFR25                0      0       0      26        0.0%
BITBANK11           50      0       0      27        0.0%
BITSFR26             0      0       0      27        0.0%
SFR26                0      0       0      27        0.0%
BANK11              50      0       0      28        0.0%
BITSFR27             0      0       0      28        0.0%
SFR27                0      0       0      28        0.0%
BITBANK12           50      0       0      29        0.0%
BITSFR28             0      0       0      29        0.0%
SFR28                0      0       0      29        0.0%
BANK12              50      0       0      30        0.0%
BITSFR29             0      0       0      30        0.0%
SFR29                0      0       0      30        0.0%
BITBANK13           50      0       0      31        0.0%
BITSFR30             0      0       0      31        0.0%
SFR30                0      0       0      31        0.0%
BANK13              50      0       0      32        0.0%
BITSFR31             0      0       0      32        0.0%
SFR31                0      0       0      32        0.0%
BITBANK14           50      0       0      33        0.0%
BITSFR32             0      0       0      33        0.0%
SFR32                0      0       0      33        0.0%
BANK14              50      0       0      34        0.0%
BITSFR33             0      0       0      34        0.0%
SFR33                0      0       0      34        0.0%
BITBANK15           50      0       0      35        0.0%
BITSFR34             0      0       0      35        0.0%
SFR34                0      0       0      35        0.0%
BANK15              50      0       0      36        0.0%
BITSFR35             0      0       0      36        0.0%
SFR35                0      0       0      36        0.0%
BITBANK16           50      0       0      37        0.0%
BITSFR36             0      0       0      37        0.0%
SFR36                0      0       0      37        0.0%
BANK16              50      0       0      38        0.0%
BITSFR37             0      0       0      38        0.0%
SFR37                0      0       0      38        0.0%
BITBANK17           50      0       0      39        0.0%
BITSFR38             0      0       0      39        0.0%
SFR38                0      0       0      39        0.0%
BANK17              50      0       0      40        0.0%
BITSFR39             0      0       0      40        0.0%
SFR39                0      0       0      40        0.0%
BITBANK18           50      0       0      41        0.0%
BITSFR40             0      0       0      41        0.0%
SFR40                0      0       0      41        0.0%
BANK18              50      0       0      42        0.0%
BITSFR41             0      0       0      42        0.0%
SFR41                0      0       0      42        0.0%
BITBANK19           50      0       0      43        0.0%
BITSFR42             0      0       0      43        0.0%
SFR42                0      0       0      43        0.0%
BANK19              50      0       0      44        0.0%
BITSFR43             0      0       0      44        0.0%
SFR43                0      0       0      44        0.0%
BITBANK20           50      0       0      45        0.0%
BITSFR44             0      0       0      45        0.0%
SFR44                0      0       0      45        0.0%
BANK20              50      0       0      46        0.0%
BITSFR45             0      0       0      46        0.0%
SFR45                0      0       0      46        0.0%
BITBANK21           50      0       0      47        0.0%
BITSFR46             0      0       0      47        0.0%
SFR46                0      0       0      47        0.0%
BANK21              50      0       0      48        0.0%
BITSFR47             0      0       0      48        0.0%
SFR47                0      0       0      48        0.0%
BITBANK22           50      0       0      49        0.0%
BITSFR48             0      0       0      49        0.0%
SFR48                0      0       0      49        0.0%
BANK22              50      0       0      50        0.0%
BITSFR49             0      0       0      50        0.0%
SFR49                0      0       0      50        0.0%
BITBANK23           50      0       0      51        0.0%
BITSFR50             0      0       0      51        0.0%
SFR50                0      0       0      51        0.0%
BANK23              50      0       0      52        0.0%
BITSFR51             0      0       0      52        0.0%
SFR51                0      0       0      52        0.0%
BITBANK24           50      0       0      53        0.0%
BITSFR52             0      0       0      53        0.0%
SFR52                0      0       0      53        0.0%
BANK24              50      0       0      54        0.0%
BITSFR53             0      0       0      54        0.0%
SFR53                0      0       0      54        0.0%
BITBANK25           20      0       0      55        0.0%
BITSFR54             0      0       0      55        0.0%
SFR54                0      0       0      55        0.0%
BANK25              20      0       0      56        0.0%
BITSFR55             0      0       0      56        0.0%
SFR55                0      0       0      56        0.0%
BITSFR56             0      0       0      57        0.0%
SFR56                0      0       0      57        0.0%
DATA                 0      0      3B      57        0.0%
BITSFR57             0      0       0      58        0.0%
SFR57                0      0       0      58        0.0%
BITSFR58             0      0       0      59        0.0%
SFR58                0      0       0      59        0.0%
BITSFR59             0      0       0      60        0.0%
SFR59                0      0       0      60        0.0%
BITSFR60             0      0       0      61        0.0%
SFR60                0      0       0      61        0.0%
BITSFR61             0      0       0      62        0.0%
SFR61                0      0       0      62        0.0%
BITSFR62             0      0       0      63        0.0%
SFR62                0      0       0      63        0.0%
BITSFR63             0      0       0      64        0.0%
SFR63                0      0       0      64        0.0%


Microchip Technology PIC Macro Assembler V2.10 build 88905656 
Symbol Table                                                                                   Sat Apr 11 20:11:59 2020

              ?_Interrupt_Switch 0070                      __CFG_CP$OFF 0000                               l20 0254  
                             l21 0267                               l18 0251                               l96 024E  
                             l99 0300              ??_Interrupt_Handler 0072              ___wmul@multiplicand 0074  
             ??_Interrupt_Switch 0072                      __CFG_LVP$ON 0000                              l102 0304  
                            l105 030C                              l201 0324                              l204 02D9  
                            l231 02F6                              l401 0235                              l322 027F  
                            l164 01C8                              l280 031E                              l186 02E8  
                            l283 02C3                              l292 0318                              l295 02AD  
                            l900 01F5                              l399 0221                              l880 00C8  
                            l883 0297                              l891 0216                              l897 01E9  
                            u400 0291                              u410 0304                              u330 021D  
                            u411 0303                              u331 021C                              u420 01F5  
                            u421 01F4                              u430 0036                              _PR2 028D  
                            u431 0035                              u360 0231                              u440 0049  
                            u361 0230                              u345 0222                              u441 0048  
                            u370 01FF                              u450 0057                              u355 0227  
                            u371 01FE                              u451 0056                              u380 020E  
                            u460 00A5                              u605 02A7                              u381 020D  
                            u461 00A3                              u390 0290                              u470 00A6  
                            u630 015F                              u391 028E                              u631 015E  
                            u480 00B2                              u481 00B1                              u490 00B8  
                            u491 00B7                              u585 02D3                              u595 02BD  
                            _rgb 0020          __size_of_PMD_Initialize 0008                  _TMR2_Initialize 02E9  
                _PWM4_Initialize 0319                     __CFG_BORV$LO 0000                              wreg 0009  
                  __CFG_BBEN$OFF 0000               _UART_Rx_IntHandler 00C9                     __CFG_ZCD$OFF 0000  
                           l1400 01AC                             l1410 01B5                             l1402 01AD  
                           l1420 01BF                             l1412 01B7                             l1404 01AF  
                           l1500 0058                             l1430 02FA                             l1422 01C1  
                           l1414 01B9                             l1406 01B1                             l1350 022B  
                           l1342 0217                             l1510 0091                             l1502 005C  
                           l1432 02FB                             l1424 01C3                             l1416 01BB  
                           l1408 01B3                             l1440 031C                             l1352 0231  
                           l1344 0219                             l1360 01FF                             l1520 00C4  
                           l1504 0061                             l1434 02FE                             l1426 01C5  
                           l1418 01BD                             l1442 031D                             l1450 02E9  
                           l1610 023F                             l1346 021D                             l1362 020E  
                           l1514 00AC                             l1506 0074                             l1532 0257  
                           l1620 02C4                             l1436 02FF                             l1428 02F7  
                           l1380 019C                             l1372 0305                             l1444 031F  
                           l1460 02F3                             l1452 02EC                             l1612 0242  
                           l1604 0236                             l1348 0226                             l1364 020F  
                           l1356 01F6                             l1516 00B2                             l1622 02AE  
                           l1470 02E5                             l1390 01A7                             l1382 019E  
                           l1374 0195                             l1446 0322                             l1438 0319  
                           l1462 0313                             l1454 02ED                             l1614 0245  
                           l1606 0239                             l1358 01F8                             l1518 00B8  
                           l1528 0250                             l1624 0298                             l1472 02E7  
                           l1392 01A8                             l1384 01A0                             l1376 0198  
                           l1448 0323                             l1464 0316                             l1456 02F0  
                           l1616 0248                             l1608 023C                             l1368 0280  
                           l1480 01DE                             l1394 01A9                             l1386 01A3  
                           l1378 019A                             l1466 0317                             l1458 02F1  
                           l1618 024B                             l1490 0036                             l1482 0022  
                           l1474 01CA                             l1468 02DA                             l1396 01AA  
                           l1388 01A5                             l1492 0049                             l1484 0027  
                           l1476 01D3                             l1740 0276                             l1398 01AB  
                           l1494 004A                             l1486 002B                             l1478 01DA  
                           l1750 0159                             l1488 002D                             l1760 017B  
                           l1752 015F                             l1744 0152                             l1498 0051  
                           l1738 026A                             l1762 0182                             l1754 0160  
                           l1746 0152                             l1764 018A                             l1756 0169  
                           l1748 0155                             l1846 006C                             l1758 0172  
                           l1848 025F                             _LATA 0018                             _LATB 0019  
                           _LATC 001A                             _T2PR 028D                             _PMD0 0796  
                           _PMD1 0797                             _PMD2 0798                             _PMD3 0799  
                           _PMD4 079A                             _PMD5 079B                             i1l51 000E  
                           i1l45 0151                             i1l29 014F                             _PLLR 4480  
      __end_of_Interrupt_Handler 0010                             _TMR2 028C                             _WPUA 1F39  
                           _WPUB 1F44                             _WPUC 1F4F                             _WPUE 1F65  
                  __CFG_FCMEN$ON 0000                             _atoi 0020                             _main 0152  
            ?_UART_Rx_IntHandler 0070                             fsr0h 0005                             fsr1h 0007  
                           indf0 0000                             fsr0l 0004                             indf1 0001  
                           fsr1l 0006                             btemp 007E                    __CFG_BOREN$ON 0000  
                           start 0010                  _PWM5_Initialize 0313                    __CFG_CSWEN$ON 0000  
                  __CFG_MCLRE$ON 0000       __end_of_PWM5_LoadDutyValue 02AE                    _transfer_done 0027  
 __size_of_OSCILLATOR_Initialize 000E    __end_of_OSCILLATOR_Initialize 0305                            ?_atoi 0078  
                          ?_main 0070             ??_UART_Rx_IntHandler 0070                    __CFG_WDTE$OFF 0000  
                          _T2CON 028E                            _T2HLT 028F                            _T2TMR 028C  
                          _T2RST 0291                            _OSCEN 0891               _PWM4_LoadDutyValue 02AE  
                          u50_20 00D5                            u50_21 00D4                            u51_20 00E1  
                          u51_21 00E0                            u52_20 00E8                            u52_21 00E7  
                          u53_20 00F7                            u61_20 000B                            u53_21 00F6  
                          u61_21 000A                            u54_20 010B                            u54_21 010A  
                          u55_20 011A                            u55_21 0119                            u56_20 0125  
                          u56_21 0124                            u57_20 0130                            u57_21 012F  
                          _TRISA 0012                            _TRISB 0013                            _TRISC 0014  
                  __CFG_WRTB$OFF 0000                    __CFG_WRTC$OFF 0000                  __end_of_isdigit 0298  
            ?_PWM4_LoadDutyValue 0072                            atoi@n 0043                            atoi@s 0045  
                __end_of_isspace 0217          __end_of_PWM3_Initialize 0325                            status 0003  
                          wtemp0 007E                  __initialization 0012                     __end_of_atoi 00C9  
     __end_of_EUSART1_Initialize 02E9                     __end_of_main 0195             ??_PWM4_LoadDutyValue 0074  
                 __CFG_SAFEN$OFF 0000          __end_of_PWM4_Initialize 031F          __end_of_TMR2_Initialize 02F7  
                         ??_atoi 0038                           ??_main 007A                           _ANSELA 1F38  
                         _ANSELB 1F43                           _ANSELC 1F4E                           _RC1REG 0119  
                         _RC0PPS 1F20                           _RC1PPS 1F21                           _RC1STA 011D  
                         _RC2PPS 1F22       __size_of_Interrupt_Handler 000C                           _ODCONA 1F3A  
                         _ODCONB 1F45                           _ODCONC 1F50                           _RC6PPS 1F26  
                         i1l1540 00CF                           i1l1550 00E2                           i1l1542 00D5  
                         i1l1560 00F8                           i1l1552 00E8                           i1l1544 00D6  
                         i1l1632 0006                           i1l1570 0114                           i1l1562 0100  
                         i1l1554 00EC                           i1l1546 00DB                           i1l1538 00C9  
                         i1l1634 000B                           i1l1580 0125                           i1l1572 011A  
                         i1l1564 0105                           i1l1556 00F1                           i1l1582 0127  
                         i1l1566 010B                           i1l1558 00F7                           i1l1584 012A  
                         i1l1568 010F                           i1l1850 013E                           i1l1586 0130  
                         i1l1578 011F                           i1l1594 0135          __end_of_PWM5_Initialize 0319  
                 __CFG_WDTCCS$SC 0000                           _INLVLA 1F3C                           _INLVLB 1F47  
                         _INLVLC 1F52                           _INLVLE 1F68                           _OSCFRQ 0893  
                         _TX1REG 011A                           _TX1STA 011E                   __CFG_PWRTE$OFF 0000  
    __size_of_PWM3_LoadDutyValue 0016                           ___wmul 0217                   __CFG_STVREN$ON 0000  
                         _memcpy 01C9                   _PMD_Initialize 0305                        ??_isdigit 0074  
                      ??_isspace 0074                 ?_PWM3_Initialize 0070                _SYSTEM_Initialize 0236  
        __end_of__initialization 001C               ?_SYSTEM_Initialize 0070                   __pcstackCOMMON 0070  
            ??_SYSTEM_Initialize 0072                 ?_TMR2_Initialize 0070                 ?_PWM4_Initialize 0070  
         __end_of_PMD_Initialize 030D      PWM4_LoadDutyValue@dutyValue 0072        __size_of_Interrupt_Switch 0019  
      __end_of_SYSTEM_Initialize 024F                       __pbssBANK0 0020                 ?_PWM5_Initialize 0070  
   string_to_decimal@temp_buffer 0049                       __pmaintext 0152                          ?___wmul 0072  
                __CFG_PPS1WAY$ON 0000                       __pintentry 0004                          ?_memcpy 0072  
                ?_PMD_Initialize 0070               _PWM5_LoadDutyValue 0298                          _SP1BRGH 011C  
                        _SP1BRGL 011B                          _OSCCON1 088D                          _OSCCON3 088F  
                        _OSCSTAT 0890                          _OSCTUNE 0892                          _PWM3DCH 0315  
                        _PWM3DCL 0314                          _PWM4DCH 0319                          _PWM4DCL 0318  
                        _PWM5DCH 031D                          _PWM5DCL 031C                          _PWM3CON 0316  
                        _PWM4CON 031A                          _PWM5CON 031E                          _SLRCONA 1F3B  
                        _SLRCONB 1F46                          _SLRCONC 1F51              ?_PWM5_LoadDutyValue 0072  
                __size_of___wmul 001F             ??_PWM5_LoadDutyValue 0074                  __size_of_memcpy 002D  
                        __ptext1 0268                          __ptext2 01C9                          __ptext3 0020  
                        __ptext4 01F6                          __ptext5 0280                          __ptext6 0217  
                        __ptext7 0236                          __ptext8 02E9                          __ptext9 0313  
    __size_of_UART_Rx_IntHandler 0089                  __CFG_WRTAPP$OFF 0000            _OSCILLATOR_Initialize 02F7  
                      _T2CONbits 028E                          _isdigit 0280               _EUSART1_Initialize 02DA  
       ??_PIN_MANAGER_Initialize 0072                          _isspace 01F6                        _T2HLTbits 028F  
                __CFG_WRTSAF$OFF 0000                          atoi@neg 003C       __size_of_SYSTEM_Initialize 0019  
                        clrloop0 030E             end_of_initialization 001C                    _receive_state 0026  
                      _T2RSTbits 0291              ?_EUSART1_Initialize 0070                          memcpy@d 0078  
                        memcpy@n 0073                          memcpy@s 0079      __size_of_PWM4_LoadDutyValue 0016  
           ??_EUSART1_Initialize 0072            __CFG_WDTCPS$WDTCPS_31 0000            Interrupt_Switch@state 0074  
               _Interrupt_Switch 024F                 __CFG_FEXTOSC$OFF 0000          string_to_decimal@buffer 004D  
     __end_of_PWM3_LoadDutyValue 02DA                   __end_of___wmul 0236                   __end_of_memcpy 01F6  
         ?_OSCILLATOR_Initialize 0070                 _UARTReceivedByte 007A              start_initialization 0012  
__size_of_PIN_MANAGER_Initialize 0034                 __CFG_LPBOREN$OFF 0000         __size_of_PWM3_Initialize 0006  
               ??_PMD_Initialize 0072                         ??___wmul 0076                         ??_memcpy 0075  
    PWM5_LoadDutyValue@dutyValue 0072                      __pbssCOMMON 007A                        ___latbits 0003  
                  __pcstackBANK0 0038         __size_of_PWM4_Initialize 0006         __size_of_TMR2_Initialize 000E  
                _UARTBufferIndex 007B           _PIN_MANAGER_Initialize 0195         __size_of_PWM5_Initialize 0006  
                       _BAUD1CON 011F                         ?_isdigit 0072                         ?_isspace 0072  
           __CFG_RSTOSC$HFINTPLL 0000                         _T2CLKCON 0290                   ___wmul@product 0076  
                      clear_ram0 030D                         _PIE3bits 0719                         _PIR3bits 070F  
                       _PIR4bits 0710                         _RX1DTPPS 1ECB                __CFG_BBSIZE$BB512 0000  
       __end_of_Interrupt_Switch 0268       __end_of_UART_Rx_IntHandler 0152      __size_of_PWM5_LoadDutyValue 0016  
              ??_PWM3_Initialize 0072                ___wmul@multiplier 0072                _string_to_decimal 0268  
             ?_string_to_decimal 0046                ??_TMR2_Initialize 0072                ??_PWM4_Initialize 0072  
            ??_string_to_decimal 0048       __end_of_PWM4_LoadDutyValue 02C4                        memcpy@tmp 0076  
        ??_OSCILLATOR_Initialize 0072      __size_of_EUSART1_Initialize 000F                ??_PWM5_Initialize 0072  
             _PWM3_LoadDutyValue 02C4        __end_of_string_to_decimal 0280                         _atoi$830 003E  
                       _atoi$831 0042                         _atoi$832 0040                 __size_of_isdigit 0018  
               __size_of_isspace 0021                         __ptext10 0319                         __ptext11 031F  
                       __ptext12 0305                         __ptext21 00C9                         __ptext13 0195  
                       __ptext14 02F7                         __ptext15 02DA                         __ptext16 0298  
                       __ptext17 02AE                         __ptext18 02C4                         __ptext19 024F  
            ?_PWM3_LoadDutyValue 0072                    __size_of_atoi 00A9                    __size_of_main 0043  
           __CFG_WDTCWS$WDTCWS_7 0000             ??_PWM3_LoadDutyValue 0074                         int$flags 007E  
                    _isspace$848 0076                       _INTCONbits 000B                         memcpy@d1 0077  
                       memcpy@s1 0072                         isdigit@c 0072                         intlevel1 0000  
                       isspace@c 0072          ?_PIN_MANAGER_Initialize 0070                __CFG_CLKOUTEN$OFF 0000  
    PWM3_LoadDutyValue@dutyValue 0072       __size_of_string_to_decimal 0018                       _UARTBuffer 0028  
 __end_of_PIN_MANAGER_Initialize 01C9                _Interrupt_Handler 0004                  _PWM3_Initialize 031F  
             ?_Interrupt_Handler 0070  
