

Microchip MPLAB XC8 Assembler V2.10 build 88905656 
                                                                                               Thu Apr 09 16:47:19 2020

Microchip MPLAB XC8 C Compiler v2.10 (Free license) build 20190730164152 Og1 
     1                           	processor	16F15356
     2                           	opt	pw 120
     3                           	opt	flic
     4                           	psect	stringtext1,global,class=STRCODE,delta=2
     5                           	psect	stringtext2,global,class=STRCODE,delta=2
     6                           	psect	stringtext3,global,class=STRCODE,delta=2
     7                           	psect	stringtext4,global,class=STRCODE,delta=2
     8                           	psect	cinit,global,class=CODE,merge=1,delta=2
     9                           	psect	bssCOMMON,global,class=COMMON,space=1,delta=1
    10                           	psect	bssBANK1,global,class=BANK1,space=1,delta=1
    11                           	psect	bssBANK2,global,class=BANK2,space=1,delta=1
    12                           	psect	clrtext,global,class=CODE,delta=2
    13                           	psect	cstackBANK1,global,class=BANK1,space=1,delta=1
    14                           	psect	cstackCOMMON,global,class=COMMON,space=1,delta=1
    15                           	psect	cstackBANK0,global,class=BANK0,space=1,delta=1
    16                           	psect	maintext,global,class=CODE,merge=1,split=1,delta=2
    17                           	psect	text1,local,class=CODE,merge=1,delta=2,group=2
    18                           	psect	text2,local,class=CODE,merge=1,delta=2
    19                           	psect	text3,local,class=CODE,merge=1,delta=2
    20                           	psect	text4,local,class=CODE,merge=1,delta=2
    21                           	psect	text5,local,class=CODE,merge=1,delta=2,group=2
    22                           	psect	text6,local,class=CODE,merge=1,delta=2,group=2
    23                           	psect	text7,local,class=CODE,merge=1,delta=2
    24                           	psect	text8,local,class=CODE,merge=1,delta=2,group=2
    25                           	psect	text9,local,class=CODE,merge=1,delta=2,group=2
    26                           	psect	text10,local,class=CODE,merge=1,delta=2,group=2
    27                           	psect	text11,local,class=CODE,merge=1,delta=2
    28                           	psect	text12,local,class=CODE,merge=1,delta=2,group=2
    29                           	psect	text13,local,class=CODE,merge=1,delta=2,group=2
    30                           	psect	text14,local,class=CODE,merge=1,delta=2
    31                           	psect	text15,local,class=CODE,merge=1,delta=2
    32                           	psect	text16,local,class=CODE,merge=1,delta=2
    33                           	psect	text17,local,class=CODE,merge=1,delta=2
    34                           	psect	text18,local,class=CODE,merge=1,delta=2
    35                           	psect	text19,local,class=CODE,merge=1,delta=2
    36                           	psect	text20,local,class=CODE,merge=1,delta=2
    37                           	psect	text21,local,class=CODE,merge=1,delta=2
    38                           	psect	text22,local,class=CODE,merge=1,delta=2
    39                           	psect	text23,local,class=CODE,merge=1,delta=2
    40                           	psect	text24,local,class=CODE,merge=1,delta=2
    41                           	psect	text25,local,class=CODE,merge=1,delta=2
    42                           	psect	text26,local,class=CODE,merge=1,delta=2
    43                           	psect	intentry,global,class=CODE,delta=2
    44                           	psect	text28,local,class=CODE,merge=1,delta=2
    45                           	psect	text29,local,class=CODE,merge=1,delta=2
    46                           	dabs	1,0x7E,2
    47  0000                     
    48                           ; Version 2.10
    49                           ; Generated 31/07/2019 GMT
    50                           ; 
    51                           ; Copyright © 2019, Microchip Technology Inc. and its subsidiaries ("Microchip")
    52                           ; All rights reserved.
    53                           ; 
    54                           ; This software is developed by Microchip Technology Inc. and its subsidiaries ("Microch
      +                          ip").
    55                           ; 
    56                           ; Redistribution and use in source and binary forms, with or without modification, are
    57                           ; permitted provided that the following conditions are met:
    58                           ; 
    59                           ;     1. Redistributions of source code must retain the above copyright notice, this lis
      +                          t of
    60                           ;        conditions and the following disclaimer.
    61                           ; 
    62                           ;     2. Redistributions in binary form must reproduce the above copyright notice, this 
      +                          list
    63                           ;        of conditions and the following disclaimer in the documentation and/or other
    64                           ;        materials provided with the distribution.
    65                           ; 
    66                           ;     3. Microchip's name may not be used to endorse or promote products derived from th
      +                          is
    67                           ;        software without specific prior written permission.
    68                           ; 
    69                           ; THIS SOFTWARE IS PROVIDED BY MICROCHIP "AS IS" AND ANY EXPRESS OR IMPLIED WARRANTIES,
    70                           ; INCLUDING, BUT NOT LIMITED TO, THE IMPLIED WARRANTIES OF MERCHANTABILITY AND FITNESS F
      +                          OR
    71                           ; PURPOSE ARE DISCLAIMED.  IN NO EVENT SHALL MICROCHIP BE LIABLE FOR ANY DIRECT, INDIREC
      +                          T,
    72                           ; INCIDENTAL, SPECIAL, EXEMPLARY, OR CONSEQUENTIAL DAMAGES (INCLUDING BUT NOT LIMITED TO
    73                           ; PROCUREMENT OF SUBSTITUTE GOODS OR SERVICES; LOSS OF USE, DATA OR PROFITS; OR BUSINESS
    74                           ; INTERRUPTION) HOWSOEVER CAUSED AND ON ANY THEORY OF LIABILITY, WHETHER IN CONTRACT, ST
      +                          RICT
    75                           ; LIABILITY, OR TORT (INCLUDING NEGLIGENCE OR OTHERWISE) ARISING IN ANY WAY OUT OF THE U
      +                          SE OF
    76                           ; THIS SOFTWARE, EVEN IF ADVISED OF THE POSSIBILITY OF SUCH DAMAGE.
    77                           ; 
    78                           ; 
    79                           ; Code-generator required, PIC16F15356 Definitions
    80                           ; 
    81                           ; SFR Addresses
    82  0000                     	;# 
    83  0001                     	;# 
    84  0002                     	;# 
    85  0003                     	;# 
    86  0004                     	;# 
    87  0005                     	;# 
    88  0006                     	;# 
    89  0007                     	;# 
    90  0008                     	;# 
    91  0009                     	;# 
    92  000A                     	;# 
    93  000B                     	;# 
    94  000C                     	;# 
    95  000D                     	;# 
    96  000E                     	;# 
    97  0010                     	;# 
    98  0012                     	;# 
    99  0013                     	;# 
   100  0014                     	;# 
   101  0016                     	;# 
   102  0018                     	;# 
   103  0019                     	;# 
   104  001A                     	;# 
   105  009B                     	;# 
   106  009B                     	;# 
   107  009C                     	;# 
   108  009D                     	;# 
   109  009E                     	;# 
   110  009F                     	;# 
   111  0119                     	;# 
   112  0119                     	;# 
   113  0119                     	;# 
   114  011A                     	;# 
   115  011A                     	;# 
   116  011A                     	;# 
   117  011B                     	;# 
   118  011B                     	;# 
   119  011B                     	;# 
   120  011B                     	;# 
   121  011B                     	;# 
   122  011C                     	;# 
   123  011C                     	;# 
   124  011C                     	;# 
   125  011D                     	;# 
   126  011D                     	;# 
   127  011D                     	;# 
   128  011E                     	;# 
   129  011E                     	;# 
   130  011E                     	;# 
   131  011F                     	;# 
   132  011F                     	;# 
   133  011F                     	;# 
   134  011F                     	;# 
   135  011F                     	;# 
   136  018C                     	;# 
   137  018D                     	;# 
   138  018E                     	;# 
   139  018F                     	;# 
   140  0190                     	;# 
   141  0191                     	;# 
   142  0192                     	;# 
   143  0196                     	;# 
   144  0197                     	;# 
   145  0198                     	;# 
   146  0199                     	;# 
   147  019A                     	;# 
   148  019B                     	;# 
   149  019C                     	;# 
   150  020C                     	;# 
   151  020C                     	;# 
   152  020D                     	;# 
   153  020E                     	;# 
   154  020F                     	;# 
   155  020F                     	;# 
   156  0210                     	;# 
   157  0210                     	;# 
   158  0211                     	;# 
   159  0211                     	;# 
   160  028C                     	;# 
   161  028C                     	;# 
   162  028D                     	;# 
   163  028D                     	;# 
   164  028E                     	;# 
   165  028F                     	;# 
   166  0290                     	;# 
   167  0291                     	;# 
   168  030C                     	;# 
   169  030C                     	;# 
   170  030D                     	;# 
   171  030E                     	;# 
   172  030F                     	;# 
   173  0310                     	;# 
   174  0310                     	;# 
   175  0311                     	;# 
   176  0312                     	;# 
   177  0313                     	;# 
   178  0314                     	;# 
   179  0314                     	;# 
   180  0315                     	;# 
   181  0316                     	;# 
   182  0318                     	;# 
   183  0318                     	;# 
   184  0319                     	;# 
   185  031A                     	;# 
   186  031C                     	;# 
   187  031C                     	;# 
   188  031D                     	;# 
   189  031E                     	;# 
   190  038C                     	;# 
   191  038C                     	;# 
   192  038D                     	;# 
   193  038E                     	;# 
   194  058C                     	;# 
   195  058C                     	;# 
   196  058D                     	;# 
   197  058E                     	;# 
   198  058F                     	;# 
   199  058F                     	;# 
   200  0590                     	;# 
   201  0591                     	;# 
   202  0592                     	;# 
   203  0593                     	;# 
   204  059C                     	;# 
   205  059C                     	;# 
   206  059D                     	;# 
   207  059D                     	;# 
   208  059E                     	;# 
   209  059F                     	;# 
   210  060C                     	;# 
   211  060D                     	;# 
   212  060E                     	;# 
   213  060F                     	;# 
   214  0610                     	;# 
   215  0611                     	;# 
   216  0612                     	;# 
   217  0613                     	;# 
   218  0614                     	;# 
   219  070C                     	;# 
   220  070D                     	;# 
   221  070E                     	;# 
   222  070F                     	;# 
   223  0710                     	;# 
   224  0711                     	;# 
   225  0712                     	;# 
   226  0713                     	;# 
   227  0716                     	;# 
   228  0717                     	;# 
   229  0718                     	;# 
   230  0719                     	;# 
   231  071A                     	;# 
   232  071B                     	;# 
   233  071C                     	;# 
   234  071D                     	;# 
   235  0796                     	;# 
   236  0797                     	;# 
   237  0798                     	;# 
   238  0799                     	;# 
   239  079A                     	;# 
   240  079B                     	;# 
   241  080C                     	;# 
   242  080D                     	;# 
   243  080E                     	;# 
   244  080F                     	;# 
   245  0810                     	;# 
   246  0811                     	;# 
   247  0812                     	;# 
   248  0813                     	;# 
   249  0814                     	;# 
   250  081A                     	;# 
   251  081A                     	;# 
   252  081B                     	;# 
   253  081C                     	;# 
   254  081C                     	;# 
   255  081D                     	;# 
   256  081E                     	;# 
   257  081F                     	;# 
   258  088C                     	;# 
   259  088D                     	;# 
   260  088E                     	;# 
   261  088F                     	;# 
   262  0890                     	;# 
   263  0891                     	;# 
   264  0892                     	;# 
   265  0893                     	;# 
   266  0895                     	;# 
   267  0896                     	;# 
   268  090C                     	;# 
   269  090E                     	;# 
   270  090F                     	;# 
   271  091F                     	;# 
   272  098F                     	;# 
   273  098F                     	;# 
   274  0990                     	;# 
   275  0991                     	;# 
   276  0992                     	;# 
   277  0993                     	;# 
   278  0994                     	;# 
   279  0995                     	;# 
   280  0996                     	;# 
   281  0997                     	;# 
   282  0A19                     	;# 
   283  0A19                     	;# 
   284  0A1A                     	;# 
   285  0A1A                     	;# 
   286  0A1B                     	;# 
   287  0A1B                     	;# 
   288  0A1B                     	;# 
   289  0A1C                     	;# 
   290  0A1C                     	;# 
   291  0A1D                     	;# 
   292  0A1D                     	;# 
   293  0A1E                     	;# 
   294  0A1E                     	;# 
   295  0A1F                     	;# 
   296  0A1F                     	;# 
   297  0A1F                     	;# 
   298  1E0F                     	;# 
   299  1E10                     	;# 
   300  1E11                     	;# 
   301  1E12                     	;# 
   302  1E13                     	;# 
   303  1E14                     	;# 
   304  1E15                     	;# 
   305  1E16                     	;# 
   306  1E17                     	;# 
   307  1E18                     	;# 
   308  1E19                     	;# 
   309  1E1A                     	;# 
   310  1E1B                     	;# 
   311  1E1C                     	;# 
   312  1E1D                     	;# 
   313  1E1E                     	;# 
   314  1E1F                     	;# 
   315  1E20                     	;# 
   316  1E21                     	;# 
   317  1E22                     	;# 
   318  1E23                     	;# 
   319  1E24                     	;# 
   320  1E25                     	;# 
   321  1E26                     	;# 
   322  1E27                     	;# 
   323  1E28                     	;# 
   324  1E29                     	;# 
   325  1E2A                     	;# 
   326  1E2B                     	;# 
   327  1E2C                     	;# 
   328  1E2D                     	;# 
   329  1E2E                     	;# 
   330  1E2F                     	;# 
   331  1E30                     	;# 
   332  1E31                     	;# 
   333  1E32                     	;# 
   334  1E33                     	;# 
   335  1E34                     	;# 
   336  1E35                     	;# 
   337  1E36                     	;# 
   338  1E37                     	;# 
   339  1E8F                     	;# 
   340  1E90                     	;# 
   341  1E91                     	;# 
   342  1E92                     	;# 
   343  1E93                     	;# 
   344  1E9C                     	;# 
   345  1EA1                     	;# 
   346  1EA2                     	;# 
   347  1EB1                     	;# 
   348  1EBB                     	;# 
   349  1EBC                     	;# 
   350  1EBD                     	;# 
   351  1EBE                     	;# 
   352  1EC3                     	;# 
   353  1EC5                     	;# 
   354  1EC6                     	;# 
   355  1EC7                     	;# 
   356  1EC8                     	;# 
   357  1EC9                     	;# 
   358  1ECA                     	;# 
   359  1ECB                     	;# 
   360  1ECC                     	;# 
   361  1ECD                     	;# 
   362  1ECE                     	;# 
   363  1F10                     	;# 
   364  1F11                     	;# 
   365  1F12                     	;# 
   366  1F13                     	;# 
   367  1F14                     	;# 
   368  1F15                     	;# 
   369  1F16                     	;# 
   370  1F17                     	;# 
   371  1F18                     	;# 
   372  1F19                     	;# 
   373  1F1A                     	;# 
   374  1F1B                     	;# 
   375  1F1C                     	;# 
   376  1F1D                     	;# 
   377  1F1E                     	;# 
   378  1F1F                     	;# 
   379  1F20                     	;# 
   380  1F21                     	;# 
   381  1F22                     	;# 
   382  1F23                     	;# 
   383  1F24                     	;# 
   384  1F25                     	;# 
   385  1F26                     	;# 
   386  1F27                     	;# 
   387  1F38                     	;# 
   388  1F39                     	;# 
   389  1F3A                     	;# 
   390  1F3B                     	;# 
   391  1F3C                     	;# 
   392  1F3D                     	;# 
   393  1F3E                     	;# 
   394  1F3F                     	;# 
   395  1F43                     	;# 
   396  1F44                     	;# 
   397  1F45                     	;# 
   398  1F46                     	;# 
   399  1F47                     	;# 
   400  1F48                     	;# 
   401  1F49                     	;# 
   402  1F4A                     	;# 
   403  1F4E                     	;# 
   404  1F4F                     	;# 
   405  1F50                     	;# 
   406  1F51                     	;# 
   407  1F52                     	;# 
   408  1F53                     	;# 
   409  1F54                     	;# 
   410  1F55                     	;# 
   411  1F65                     	;# 
   412  1F68                     	;# 
   413  1F69                     	;# 
   414  1F6A                     	;# 
   415  1F6B                     	;# 
   416  1FE4                     	;# 
   417  1FE5                     	;# 
   418  1FE6                     	;# 
   419  1FE7                     	;# 
   420  1FE8                     	;# 
   421  1FE8                     	;# 
   422  1FE9                     	;# 
   423  1FEA                     	;# 
   424  1FEB                     	;# 
   425  1FED                     	;# 
   426  1FEE                     	;# 
   427  1FEF                     	;# 
   428  0000                     	;# 
   429  0001                     	;# 
   430  0002                     	;# 
   431  0003                     	;# 
   432  0004                     	;# 
   433  0005                     	;# 
   434  0006                     	;# 
   435  0007                     	;# 
   436  0008                     	;# 
   437  0009                     	;# 
   438  000A                     	;# 
   439  000B                     	;# 
   440  000C                     	;# 
   441  000D                     	;# 
   442  000E                     	;# 
   443  0010                     	;# 
   444  0012                     	;# 
   445  0013                     	;# 
   446  0014                     	;# 
   447  0016                     	;# 
   448  0018                     	;# 
   449  0019                     	;# 
   450  001A                     	;# 
   451  009B                     	;# 
   452  009B                     	;# 
   453  009C                     	;# 
   454  009D                     	;# 
   455  009E                     	;# 
   456  009F                     	;# 
   457  0119                     	;# 
   458  0119                     	;# 
   459  0119                     	;# 
   460  011A                     	;# 
   461  011A                     	;# 
   462  011A                     	;# 
   463  011B                     	;# 
   464  011B                     	;# 
   465  011B                     	;# 
   466  011B                     	;# 
   467  011B                     	;# 
   468  011C                     	;# 
   469  011C                     	;# 
   470  011C                     	;# 
   471  011D                     	;# 
   472  011D                     	;# 
   473  011D                     	;# 
   474  011E                     	;# 
   475  011E                     	;# 
   476  011E                     	;# 
   477  011F                     	;# 
   478  011F                     	;# 
   479  011F                     	;# 
   480  011F                     	;# 
   481  011F                     	;# 
   482  018C                     	;# 
   483  018D                     	;# 
   484  018E                     	;# 
   485  018F                     	;# 
   486  0190                     	;# 
   487  0191                     	;# 
   488  0192                     	;# 
   489  0196                     	;# 
   490  0197                     	;# 
   491  0198                     	;# 
   492  0199                     	;# 
   493  019A                     	;# 
   494  019B                     	;# 
   495  019C                     	;# 
   496  020C                     	;# 
   497  020C                     	;# 
   498  020D                     	;# 
   499  020E                     	;# 
   500  020F                     	;# 
   501  020F                     	;# 
   502  0210                     	;# 
   503  0210                     	;# 
   504  0211                     	;# 
   505  0211                     	;# 
   506  028C                     	;# 
   507  028C                     	;# 
   508  028D                     	;# 
   509  028D                     	;# 
   510  028E                     	;# 
   511  028F                     	;# 
   512  0290                     	;# 
   513  0291                     	;# 
   514  030C                     	;# 
   515  030C                     	;# 
   516  030D                     	;# 
   517  030E                     	;# 
   518  030F                     	;# 
   519  0310                     	;# 
   520  0310                     	;# 
   521  0311                     	;# 
   522  0312                     	;# 
   523  0313                     	;# 
   524  0314                     	;# 
   525  0314                     	;# 
   526  0315                     	;# 
   527  0316                     	;# 
   528  0318                     	;# 
   529  0318                     	;# 
   530  0319                     	;# 
   531  031A                     	;# 
   532  031C                     	;# 
   533  031C                     	;# 
   534  031D                     	;# 
   535  031E                     	;# 
   536  038C                     	;# 
   537  038C                     	;# 
   538  038D                     	;# 
   539  038E                     	;# 
   540  058C                     	;# 
   541  058C                     	;# 
   542  058D                     	;# 
   543  058E                     	;# 
   544  058F                     	;# 
   545  058F                     	;# 
   546  0590                     	;# 
   547  0591                     	;# 
   548  0592                     	;# 
   549  0593                     	;# 
   550  059C                     	;# 
   551  059C                     	;# 
   552  059D                     	;# 
   553  059D                     	;# 
   554  059E                     	;# 
   555  059F                     	;# 
   556  060C                     	;# 
   557  060D                     	;# 
   558  060E                     	;# 
   559  060F                     	;# 
   560  0610                     	;# 
   561  0611                     	;# 
   562  0612                     	;# 
   563  0613                     	;# 
   564  0614                     	;# 
   565  070C                     	;# 
   566  070D                     	;# 
   567  070E                     	;# 
   568  070F                     	;# 
   569  0710                     	;# 
   570  0711                     	;# 
   571  0712                     	;# 
   572  0713                     	;# 
   573  0716                     	;# 
   574  0717                     	;# 
   575  0718                     	;# 
   576  0719                     	;# 
   577  071A                     	;# 
   578  071B                     	;# 
   579  071C                     	;# 
   580  071D                     	;# 
   581  0796                     	;# 
   582  0797                     	;# 
   583  0798                     	;# 
   584  0799                     	;# 
   585  079A                     	;# 
   586  079B                     	;# 
   587  080C                     	;# 
   588  080D                     	;# 
   589  080E                     	;# 
   590  080F                     	;# 
   591  0810                     	;# 
   592  0811                     	;# 
   593  0812                     	;# 
   594  0813                     	;# 
   595  0814                     	;# 
   596  081A                     	;# 
   597  081A                     	;# 
   598  081B                     	;# 
   599  081C                     	;# 
   600  081C                     	;# 
   601  081D                     	;# 
   602  081E                     	;# 
   603  081F                     	;# 
   604  088C                     	;# 
   605  088D                     	;# 
   606  088E                     	;# 
   607  088F                     	;# 
   608  0890                     	;# 
   609  0891                     	;# 
   610  0892                     	;# 
   611  0893                     	;# 
   612  0895                     	;# 
   613  0896                     	;# 
   614  090C                     	;# 
   615  090E                     	;# 
   616  090F                     	;# 
   617  091F                     	;# 
   618  098F                     	;# 
   619  098F                     	;# 
   620  0990                     	;# 
   621  0991                     	;# 
   622  0992                     	;# 
   623  0993                     	;# 
   624  0994                     	;# 
   625  0995                     	;# 
   626  0996                     	;# 
   627  0997                     	;# 
   628  0A19                     	;# 
   629  0A19                     	;# 
   630  0A1A                     	;# 
   631  0A1A                     	;# 
   632  0A1B                     	;# 
   633  0A1B                     	;# 
   634  0A1B                     	;# 
   635  0A1C                     	;# 
   636  0A1C                     	;# 
   637  0A1D                     	;# 
   638  0A1D                     	;# 
   639  0A1E                     	;# 
   640  0A1E                     	;# 
   641  0A1F                     	;# 
   642  0A1F                     	;# 
   643  0A1F                     	;# 
   644  1E0F                     	;# 
   645  1E10                     	;# 
   646  1E11                     	;# 
   647  1E12                     	;# 
   648  1E13                     	;# 
   649  1E14                     	;# 
   650  1E15                     	;# 
   651  1E16                     	;# 
   652  1E17                     	;# 
   653  1E18                     	;# 
   654  1E19                     	;# 
   655  1E1A                     	;# 
   656  1E1B                     	;# 
   657  1E1C                     	;# 
   658  1E1D                     	;# 
   659  1E1E                     	;# 
   660  1E1F                     	;# 
   661  1E20                     	;# 
   662  1E21                     	;# 
   663  1E22                     	;# 
   664  1E23                     	;# 
   665  1E24                     	;# 
   666  1E25                     	;# 
   667  1E26                     	;# 
   668  1E27                     	;# 
   669  1E28                     	;# 
   670  1E29                     	;# 
   671  1E2A                     	;# 
   672  1E2B                     	;# 
   673  1E2C                     	;# 
   674  1E2D                     	;# 
   675  1E2E                     	;# 
   676  1E2F                     	;# 
   677  1E30                     	;# 
   678  1E31                     	;# 
   679  1E32                     	;# 
   680  1E33                     	;# 
   681  1E34                     	;# 
   682  1E35                     	;# 
   683  1E36                     	;# 
   684  1E37                     	;# 
   685  1E8F                     	;# 
   686  1E90                     	;# 
   687  1E91                     	;# 
   688  1E92                     	;# 
   689  1E93                     	;# 
   690  1E9C                     	;# 
   691  1EA1                     	;# 
   692  1EA2                     	;# 
   693  1EB1                     	;# 
   694  1EBB                     	;# 
   695  1EBC                     	;# 
   696  1EBD                     	;# 
   697  1EBE                     	;# 
   698  1EC3                     	;# 
   699  1EC5                     	;# 
   700  1EC6                     	;# 
   701  1EC7                     	;# 
   702  1EC8                     	;# 
   703  1EC9                     	;# 
   704  1ECA                     	;# 
   705  1ECB                     	;# 
   706  1ECC                     	;# 
   707  1ECD                     	;# 
   708  1ECE                     	;# 
   709  1F10                     	;# 
   710  1F11                     	;# 
   711  1F12                     	;# 
   712  1F13                     	;# 
   713  1F14                     	;# 
   714  1F15                     	;# 
   715  1F16                     	;# 
   716  1F17                     	;# 
   717  1F18                     	;# 
   718  1F19                     	;# 
   719  1F1A                     	;# 
   720  1F1B                     	;# 
   721  1F1C                     	;# 
   722  1F1D                     	;# 
   723  1F1E                     	;# 
   724  1F1F                     	;# 
   725  1F20                     	;# 
   726  1F21                     	;# 
   727  1F22                     	;# 
   728  1F23                     	;# 
   729  1F24                     	;# 
   730  1F25                     	;# 
   731  1F26                     	;# 
   732  1F27                     	;# 
   733  1F38                     	;# 
   734  1F39                     	;# 
   735  1F3A                     	;# 
   736  1F3B                     	;# 
   737  1F3C                     	;# 
   738  1F3D                     	;# 
   739  1F3E                     	;# 
   740  1F3F                     	;# 
   741  1F43                     	;# 
   742  1F44                     	;# 
   743  1F45                     	;# 
   744  1F46                     	;# 
   745  1F47                     	;# 
   746  1F48                     	;# 
   747  1F49                     	;# 
   748  1F4A                     	;# 
   749  1F4E                     	;# 
   750  1F4F                     	;# 
   751  1F50                     	;# 
   752  1F51                     	;# 
   753  1F52                     	;# 
   754  1F53                     	;# 
   755  1F54                     	;# 
   756  1F55                     	;# 
   757  1F65                     	;# 
   758  1F68                     	;# 
   759  1F69                     	;# 
   760  1F6A                     	;# 
   761  1F6B                     	;# 
   762  1FE4                     	;# 
   763  1FE5                     	;# 
   764  1FE6                     	;# 
   765  1FE7                     	;# 
   766  1FE8                     	;# 
   767  1FE8                     	;# 
   768  1FE9                     	;# 
   769  1FEA                     	;# 
   770  1FEB                     	;# 
   771  1FED                     	;# 
   772  1FEE                     	;# 
   773  1FEF                     	;# 
   774  0000                     	;# 
   775  0001                     	;# 
   776  0002                     	;# 
   777  0003                     	;# 
   778  0004                     	;# 
   779  0005                     	;# 
   780  0006                     	;# 
   781  0007                     	;# 
   782  0008                     	;# 
   783  0009                     	;# 
   784  000A                     	;# 
   785  000B                     	;# 
   786  000C                     	;# 
   787  000D                     	;# 
   788  000E                     	;# 
   789  0010                     	;# 
   790  0012                     	;# 
   791  0013                     	;# 
   792  0014                     	;# 
   793  0016                     	;# 
   794  0018                     	;# 
   795  0019                     	;# 
   796  001A                     	;# 
   797  009B                     	;# 
   798  009B                     	;# 
   799  009C                     	;# 
   800  009D                     	;# 
   801  009E                     	;# 
   802  009F                     	;# 
   803  0119                     	;# 
   804  0119                     	;# 
   805  0119                     	;# 
   806  011A                     	;# 
   807  011A                     	;# 
   808  011A                     	;# 
   809  011B                     	;# 
   810  011B                     	;# 
   811  011B                     	;# 
   812  011B                     	;# 
   813  011B                     	;# 
   814  011C                     	;# 
   815  011C                     	;# 
   816  011C                     	;# 
   817  011D                     	;# 
   818  011D                     	;# 
   819  011D                     	;# 
   820  011E                     	;# 
   821  011E                     	;# 
   822  011E                     	;# 
   823  011F                     	;# 
   824  011F                     	;# 
   825  011F                     	;# 
   826  011F                     	;# 
   827  011F                     	;# 
   828  018C                     	;# 
   829  018D                     	;# 
   830  018E                     	;# 
   831  018F                     	;# 
   832  0190                     	;# 
   833  0191                     	;# 
   834  0192                     	;# 
   835  0196                     	;# 
   836  0197                     	;# 
   837  0198                     	;# 
   838  0199                     	;# 
   839  019A                     	;# 
   840  019B                     	;# 
   841  019C                     	;# 
   842  020C                     	;# 
   843  020C                     	;# 
   844  020D                     	;# 
   845  020E                     	;# 
   846  020F                     	;# 
   847  020F                     	;# 
   848  0210                     	;# 
   849  0210                     	;# 
   850  0211                     	;# 
   851  0211                     	;# 
   852  028C                     	;# 
   853  028C                     	;# 
   854  028D                     	;# 
   855  028D                     	;# 
   856  028E                     	;# 
   857  028F                     	;# 
   858  0290                     	;# 
   859  0291                     	;# 
   860  030C                     	;# 
   861  030C                     	;# 
   862  030D                     	;# 
   863  030E                     	;# 
   864  030F                     	;# 
   865  0310                     	;# 
   866  0310                     	;# 
   867  0311                     	;# 
   868  0312                     	;# 
   869  0313                     	;# 
   870  0314                     	;# 
   871  0314                     	;# 
   872  0315                     	;# 
   873  0316                     	;# 
   874  0318                     	;# 
   875  0318                     	;# 
   876  0319                     	;# 
   877  031A                     	;# 
   878  031C                     	;# 
   879  031C                     	;# 
   880  031D                     	;# 
   881  031E                     	;# 
   882  038C                     	;# 
   883  038C                     	;# 
   884  038D                     	;# 
   885  038E                     	;# 
   886  058C                     	;# 
   887  058C                     	;# 
   888  058D                     	;# 
   889  058E                     	;# 
   890  058F                     	;# 
   891  058F                     	;# 
   892  0590                     	;# 
   893  0591                     	;# 
   894  0592                     	;# 
   895  0593                     	;# 
   896  059C                     	;# 
   897  059C                     	;# 
   898  059D                     	;# 
   899  059D                     	;# 
   900  059E                     	;# 
   901  059F                     	;# 
   902  060C                     	;# 
   903  060D                     	;# 
   904  060E                     	;# 
   905  060F                     	;# 
   906  0610                     	;# 
   907  0611                     	;# 
   908  0612                     	;# 
   909  0613                     	;# 
   910  0614                     	;# 
   911  070C                     	;# 
   912  070D                     	;# 
   913  070E                     	;# 
   914  070F                     	;# 
   915  0710                     	;# 
   916  0711                     	;# 
   917  0712                     	;# 
   918  0713                     	;# 
   919  0716                     	;# 
   920  0717                     	;# 
   921  0718                     	;# 
   922  0719                     	;# 
   923  071A                     	;# 
   924  071B                     	;# 
   925  071C                     	;# 
   926  071D                     	;# 
   927  0796                     	;# 
   928  0797                     	;# 
   929  0798                     	;# 
   930  0799                     	;# 
   931  079A                     	;# 
   932  079B                     	;# 
   933  080C                     	;# 
   934  080D                     	;# 
   935  080E                     	;# 
   936  080F                     	;# 
   937  0810                     	;# 
   938  0811                     	;# 
   939  0812                     	;# 
   940  0813                     	;# 
   941  0814                     	;# 
   942  081A                     	;# 
   943  081A                     	;# 
   944  081B                     	;# 
   945  081C                     	;# 
   946  081C                     	;# 
   947  081D                     	;# 
   948  081E                     	;# 
   949  081F                     	;# 
   950  088C                     	;# 
   951  088D                     	;# 
   952  088E                     	;# 
   953  088F                     	;# 
   954  0890                     	;# 
   955  0891                     	;# 
   956  0892                     	;# 
   957  0893                     	;# 
   958  0895                     	;# 
   959  0896                     	;# 
   960  090C                     	;# 
   961  090E                     	;# 
   962  090F                     	;# 
   963  091F                     	;# 
   964  098F                     	;# 
   965  098F                     	;# 
   966  0990                     	;# 
   967  0991                     	;# 
   968  0992                     	;# 
   969  0993                     	;# 
   970  0994                     	;# 
   971  0995                     	;# 
   972  0996                     	;# 
   973  0997                     	;# 
   974  0A19                     	;# 
   975  0A19                     	;# 
   976  0A1A                     	;# 
   977  0A1A                     	;# 
   978  0A1B                     	;# 
   979  0A1B                     	;# 
   980  0A1B                     	;# 
   981  0A1C                     	;# 
   982  0A1C                     	;# 
   983  0A1D                     	;# 
   984  0A1D                     	;# 
   985  0A1E                     	;# 
   986  0A1E                     	;# 
   987  0A1F                     	;# 
   988  0A1F                     	;# 
   989  0A1F                     	;# 
   990  1E0F                     	;# 
   991  1E10                     	;# 
   992  1E11                     	;# 
   993  1E12                     	;# 
   994  1E13                     	;# 
   995  1E14                     	;# 
   996  1E15                     	;# 
   997  1E16                     	;# 
   998  1E17                     	;# 
   999  1E18                     	;# 
  1000  1E19                     	;# 
  1001  1E1A                     	;# 
  1002  1E1B                     	;# 
  1003  1E1C                     	;# 
  1004  1E1D                     	;# 
  1005  1E1E                     	;# 
  1006  1E1F                     	;# 
  1007  1E20                     	;# 
  1008  1E21                     	;# 
  1009  1E22                     	;# 
  1010  1E23                     	;# 
  1011  1E24                     	;# 
  1012  1E25                     	;# 
  1013  1E26                     	;# 
  1014  1E27                     	;# 
  1015  1E28                     	;# 
  1016  1E29                     	;# 
  1017  1E2A                     	;# 
  1018  1E2B                     	;# 
  1019  1E2C                     	;# 
  1020  1E2D                     	;# 
  1021  1E2E                     	;# 
  1022  1E2F                     	;# 
  1023  1E30                     	;# 
  1024  1E31                     	;# 
  1025  1E32                     	;# 
  1026  1E33                     	;# 
  1027  1E34                     	;# 
  1028  1E35                     	;# 
  1029  1E36                     	;# 
  1030  1E37                     	;# 
  1031  1E8F                     	;# 
  1032  1E90                     	;# 
  1033  1E91                     	;# 
  1034  1E92                     	;# 
  1035  1E93                     	;# 
  1036  1E9C                     	;# 
  1037  1EA1                     	;# 
  1038  1EA2                     	;# 
  1039  1EB1                     	;# 
  1040  1EBB                     	;# 
  1041  1EBC                     	;# 
  1042  1EBD                     	;# 
  1043  1EBE                     	;# 
  1044  1EC3                     	;# 
  1045  1EC5                     	;# 
  1046  1EC6                     	;# 
  1047  1EC7                     	;# 
  1048  1EC8                     	;# 
  1049  1EC9                     	;# 
  1050  1ECA                     	;# 
  1051  1ECB                     	;# 
  1052  1ECC                     	;# 
  1053  1ECD                     	;# 
  1054  1ECE                     	;# 
  1055  1F10                     	;# 
  1056  1F11                     	;# 
  1057  1F12                     	;# 
  1058  1F13                     	;# 
  1059  1F14                     	;# 
  1060  1F15                     	;# 
  1061  1F16                     	;# 
  1062  1F17                     	;# 
  1063  1F18                     	;# 
  1064  1F19                     	;# 
  1065  1F1A                     	;# 
  1066  1F1B                     	;# 
  1067  1F1C                     	;# 
  1068  1F1D                     	;# 
  1069  1F1E                     	;# 
  1070  1F1F                     	;# 
  1071  1F20                     	;# 
  1072  1F21                     	;# 
  1073  1F22                     	;# 
  1074  1F23                     	;# 
  1075  1F24                     	;# 
  1076  1F25                     	;# 
  1077  1F26                     	;# 
  1078  1F27                     	;# 
  1079  1F38                     	;# 
  1080  1F39                     	;# 
  1081  1F3A                     	;# 
  1082  1F3B                     	;# 
  1083  1F3C                     	;# 
  1084  1F3D                     	;# 
  1085  1F3E                     	;# 
  1086  1F3F                     	;# 
  1087  1F43                     	;# 
  1088  1F44                     	;# 
  1089  1F45                     	;# 
  1090  1F46                     	;# 
  1091  1F47                     	;# 
  1092  1F48                     	;# 
  1093  1F49                     	;# 
  1094  1F4A                     	;# 
  1095  1F4E                     	;# 
  1096  1F4F                     	;# 
  1097  1F50                     	;# 
  1098  1F51                     	;# 
  1099  1F52                     	;# 
  1100  1F53                     	;# 
  1101  1F54                     	;# 
  1102  1F55                     	;# 
  1103  1F65                     	;# 
  1104  1F68                     	;# 
  1105  1F69                     	;# 
  1106  1F6A                     	;# 
  1107  1F6B                     	;# 
  1108  1FE4                     	;# 
  1109  1FE5                     	;# 
  1110  1FE6                     	;# 
  1111  1FE7                     	;# 
  1112  1FE8                     	;# 
  1113  1FE8                     	;# 
  1114  1FE9                     	;# 
  1115  1FEA                     	;# 
  1116  1FEB                     	;# 
  1117  1FED                     	;# 
  1118  1FEE                     	;# 
  1119  1FEF                     	;# 
  1120  0000                     	;# 
  1121  0001                     	;# 
  1122  0002                     	;# 
  1123  0003                     	;# 
  1124  0004                     	;# 
  1125  0005                     	;# 
  1126  0006                     	;# 
  1127  0007                     	;# 
  1128  0008                     	;# 
  1129  0009                     	;# 
  1130  000A                     	;# 
  1131  000B                     	;# 
  1132  000C                     	;# 
  1133  000D                     	;# 
  1134  000E                     	;# 
  1135  0010                     	;# 
  1136  0012                     	;# 
  1137  0013                     	;# 
  1138  0014                     	;# 
  1139  0016                     	;# 
  1140  0018                     	;# 
  1141  0019                     	;# 
  1142  001A                     	;# 
  1143  009B                     	;# 
  1144  009B                     	;# 
  1145  009C                     	;# 
  1146  009D                     	;# 
  1147  009E                     	;# 
  1148  009F                     	;# 
  1149  0119                     	;# 
  1150  0119                     	;# 
  1151  0119                     	;# 
  1152  011A                     	;# 
  1153  011A                     	;# 
  1154  011A                     	;# 
  1155  011B                     	;# 
  1156  011B                     	;# 
  1157  011B                     	;# 
  1158  011B                     	;# 
  1159  011B                     	;# 
  1160  011C                     	;# 
  1161  011C                     	;# 
  1162  011C                     	;# 
  1163  011D                     	;# 
  1164  011D                     	;# 
  1165  011D                     	;# 
  1166  011E                     	;# 
  1167  011E                     	;# 
  1168  011E                     	;# 
  1169  011F                     	;# 
  1170  011F                     	;# 
  1171  011F                     	;# 
  1172  011F                     	;# 
  1173  011F                     	;# 
  1174  018C                     	;# 
  1175  018D                     	;# 
  1176  018E                     	;# 
  1177  018F                     	;# 
  1178  0190                     	;# 
  1179  0191                     	;# 
  1180  0192                     	;# 
  1181  0196                     	;# 
  1182  0197                     	;# 
  1183  0198                     	;# 
  1184  0199                     	;# 
  1185  019A                     	;# 
  1186  019B                     	;# 
  1187  019C                     	;# 
  1188  020C                     	;# 
  1189  020C                     	;# 
  1190  020D                     	;# 
  1191  020E                     	;# 
  1192  020F                     	;# 
  1193  020F                     	;# 
  1194  0210                     	;# 
  1195  0210                     	;# 
  1196  0211                     	;# 
  1197  0211                     	;# 
  1198  028C                     	;# 
  1199  028C                     	;# 
  1200  028D                     	;# 
  1201  028D                     	;# 
  1202  028E                     	;# 
  1203  028F                     	;# 
  1204  0290                     	;# 
  1205  0291                     	;# 
  1206  030C                     	;# 
  1207  030C                     	;# 
  1208  030D                     	;# 
  1209  030E                     	;# 
  1210  030F                     	;# 
  1211  0310                     	;# 
  1212  0310                     	;# 
  1213  0311                     	;# 
  1214  0312                     	;# 
  1215  0313                     	;# 
  1216  0314                     	;# 
  1217  0314                     	;# 
  1218  0315                     	;# 
  1219  0316                     	;# 
  1220  0318                     	;# 
  1221  0318                     	;# 
  1222  0319                     	;# 
  1223  031A                     	;# 
  1224  031C                     	;# 
  1225  031C                     	;# 
  1226  031D                     	;# 
  1227  031E                     	;# 
  1228  038C                     	;# 
  1229  038C                     	;# 
  1230  038D                     	;# 
  1231  038E                     	;# 
  1232  058C                     	;# 
  1233  058C                     	;# 
  1234  058D                     	;# 
  1235  058E                     	;# 
  1236  058F                     	;# 
  1237  058F                     	;# 
  1238  0590                     	;# 
  1239  0591                     	;# 
  1240  0592                     	;# 
  1241  0593                     	;# 
  1242  059C                     	;# 
  1243  059C                     	;# 
  1244  059D                     	;# 
  1245  059D                     	;# 
  1246  059E                     	;# 
  1247  059F                     	;# 
  1248  060C                     	;# 
  1249  060D                     	;# 
  1250  060E                     	;# 
  1251  060F                     	;# 
  1252  0610                     	;# 
  1253  0611                     	;# 
  1254  0612                     	;# 
  1255  0613                     	;# 
  1256  0614                     	;# 
  1257  070C                     	;# 
  1258  070D                     	;# 
  1259  070E                     	;# 
  1260  070F                     	;# 
  1261  0710                     	;# 
  1262  0711                     	;# 
  1263  0712                     	;# 
  1264  0713                     	;# 
  1265  0716                     	;# 
  1266  0717                     	;# 
  1267  0718                     	;# 
  1268  0719                     	;# 
  1269  071A                     	;# 
  1270  071B                     	;# 
  1271  071C                     	;# 
  1272  071D                     	;# 
  1273  0796                     	;# 
  1274  0797                     	;# 
  1275  0798                     	;# 
  1276  0799                     	;# 
  1277  079A                     	;# 
  1278  079B                     	;# 
  1279  080C                     	;# 
  1280  080D                     	;# 
  1281  080E                     	;# 
  1282  080F                     	;# 
  1283  0810                     	;# 
  1284  0811                     	;# 
  1285  0812                     	;# 
  1286  0813                     	;# 
  1287  0814                     	;# 
  1288  081A                     	;# 
  1289  081A                     	;# 
  1290  081B                     	;# 
  1291  081C                     	;# 
  1292  081C                     	;# 
  1293  081D                     	;# 
  1294  081E                     	;# 
  1295  081F                     	;# 
  1296  088C                     	;# 
  1297  088D                     	;# 
  1298  088E                     	;# 
  1299  088F                     	;# 
  1300  0890                     	;# 
  1301  0891                     	;# 
  1302  0892                     	;# 
  1303  0893                     	;# 
  1304  0895                     	;# 
  1305  0896                     	;# 
  1306  090C                     	;# 
  1307  090E                     	;# 
  1308  090F                     	;# 
  1309  091F                     	;# 
  1310  098F                     	;# 
  1311  098F                     	;# 
  1312  0990                     	;# 
  1313  0991                     	;# 
  1314  0992                     	;# 
  1315  0993                     	;# 
  1316  0994                     	;# 
  1317  0995                     	;# 
  1318  0996                     	;# 
  1319  0997                     	;# 
  1320  0A19                     	;# 
  1321  0A19                     	;# 
  1322  0A1A                     	;# 
  1323  0A1A                     	;# 
  1324  0A1B                     	;# 
  1325  0A1B                     	;# 
  1326  0A1B                     	;# 
  1327  0A1C                     	;# 
  1328  0A1C                     	;# 
  1329  0A1D                     	;# 
  1330  0A1D                     	;# 
  1331  0A1E                     	;# 
  1332  0A1E                     	;# 
  1333  0A1F                     	;# 
  1334  0A1F                     	;# 
  1335  0A1F                     	;# 
  1336  1E0F                     	;# 
  1337  1E10                     	;# 
  1338  1E11                     	;# 
  1339  1E12                     	;# 
  1340  1E13                     	;# 
  1341  1E14                     	;# 
  1342  1E15                     	;# 
  1343  1E16                     	;# 
  1344  1E17                     	;# 
  1345  1E18                     	;# 
  1346  1E19                     	;# 
  1347  1E1A                     	;# 
  1348  1E1B                     	;# 
  1349  1E1C                     	;# 
  1350  1E1D                     	;# 
  1351  1E1E                     	;# 
  1352  1E1F                     	;# 
  1353  1E20                     	;# 
  1354  1E21                     	;# 
  1355  1E22                     	;# 
  1356  1E23                     	;# 
  1357  1E24                     	;# 
  1358  1E25                     	;# 
  1359  1E26                     	;# 
  1360  1E27                     	;# 
  1361  1E28                     	;# 
  1362  1E29                     	;# 
  1363  1E2A                     	;# 
  1364  1E2B                     	;# 
  1365  1E2C                     	;# 
  1366  1E2D                     	;# 
  1367  1E2E                     	;# 
  1368  1E2F                     	;# 
  1369  1E30                     	;# 
  1370  1E31                     	;# 
  1371  1E32                     	;# 
  1372  1E33                     	;# 
  1373  1E34                     	;# 
  1374  1E35                     	;# 
  1375  1E36                     	;# 
  1376  1E37                     	;# 
  1377  1E8F                     	;# 
  1378  1E90                     	;# 
  1379  1E91                     	;# 
  1380  1E92                     	;# 
  1381  1E93                     	;# 
  1382  1E9C                     	;# 
  1383  1EA1                     	;# 
  1384  1EA2                     	;# 
  1385  1EB1                     	;# 
  1386  1EBB                     	;# 
  1387  1EBC                     	;# 
  1388  1EBD                     	;# 
  1389  1EBE                     	;# 
  1390  1EC3                     	;# 
  1391  1EC5                     	;# 
  1392  1EC6                     	;# 
  1393  1EC7                     	;# 
  1394  1EC8                     	;# 
  1395  1EC9                     	;# 
  1396  1ECA                     	;# 
  1397  1ECB                     	;# 
  1398  1ECC                     	;# 
  1399  1ECD                     	;# 
  1400  1ECE                     	;# 
  1401  1F10                     	;# 
  1402  1F11                     	;# 
  1403  1F12                     	;# 
  1404  1F13                     	;# 
  1405  1F14                     	;# 
  1406  1F15                     	;# 
  1407  1F16                     	;# 
  1408  1F17                     	;# 
  1409  1F18                     	;# 
  1410  1F19                     	;# 
  1411  1F1A                     	;# 
  1412  1F1B                     	;# 
  1413  1F1C                     	;# 
  1414  1F1D                     	;# 
  1415  1F1E                     	;# 
  1416  1F1F                     	;# 
  1417  1F20                     	;# 
  1418  1F21                     	;# 
  1419  1F22                     	;# 
  1420  1F23                     	;# 
  1421  1F24                     	;# 
  1422  1F25                     	;# 
  1423  1F26                     	;# 
  1424  1F27                     	;# 
  1425  1F38                     	;# 
  1426  1F39                     	;# 
  1427  1F3A                     	;# 
  1428  1F3B                     	;# 
  1429  1F3C                     	;# 
  1430  1F3D                     	;# 
  1431  1F3E                     	;# 
  1432  1F3F                     	;# 
  1433  1F43                     	;# 
  1434  1F44                     	;# 
  1435  1F45                     	;# 
  1436  1F46                     	;# 
  1437  1F47                     	;# 
  1438  1F48                     	;# 
  1439  1F49                     	;# 
  1440  1F4A                     	;# 
  1441  1F4E                     	;# 
  1442  1F4F                     	;# 
  1443  1F50                     	;# 
  1444  1F51                     	;# 
  1445  1F52                     	;# 
  1446  1F53                     	;# 
  1447  1F54                     	;# 
  1448  1F55                     	;# 
  1449  1F65                     	;# 
  1450  1F68                     	;# 
  1451  1F69                     	;# 
  1452  1F6A                     	;# 
  1453  1F6B                     	;# 
  1454  1FE4                     	;# 
  1455  1FE5                     	;# 
  1456  1FE6                     	;# 
  1457  1FE7                     	;# 
  1458  1FE8                     	;# 
  1459  1FE8                     	;# 
  1460  1FE9                     	;# 
  1461  1FEA                     	;# 
  1462  1FEB                     	;# 
  1463  1FED                     	;# 
  1464  1FEE                     	;# 
  1465  1FEF                     	;# 
  1466  0000                     	;# 
  1467  0001                     	;# 
  1468  0002                     	;# 
  1469  0003                     	;# 
  1470  0004                     	;# 
  1471  0005                     	;# 
  1472  0006                     	;# 
  1473  0007                     	;# 
  1474  0008                     	;# 
  1475  0009                     	;# 
  1476  000A                     	;# 
  1477  000B                     	;# 
  1478  000C                     	;# 
  1479  000D                     	;# 
  1480  000E                     	;# 
  1481  0010                     	;# 
  1482  0012                     	;# 
  1483  0013                     	;# 
  1484  0014                     	;# 
  1485  0016                     	;# 
  1486  0018                     	;# 
  1487  0019                     	;# 
  1488  001A                     	;# 
  1489  009B                     	;# 
  1490  009B                     	;# 
  1491  009C                     	;# 
  1492  009D                     	;# 
  1493  009E                     	;# 
  1494  009F                     	;# 
  1495  0119                     	;# 
  1496  0119                     	;# 
  1497  0119                     	;# 
  1498  011A                     	;# 
  1499  011A                     	;# 
  1500  011A                     	;# 
  1501  011B                     	;# 
  1502  011B                     	;# 
  1503  011B                     	;# 
  1504  011B                     	;# 
  1505  011B                     	;# 
  1506  011C                     	;# 
  1507  011C                     	;# 
  1508  011C                     	;# 
  1509  011D                     	;# 
  1510  011D                     	;# 
  1511  011D                     	;# 
  1512  011E                     	;# 
  1513  011E                     	;# 
  1514  011E                     	;# 
  1515  011F                     	;# 
  1516  011F                     	;# 
  1517  011F                     	;# 
  1518  011F                     	;# 
  1519  011F                     	;# 
  1520  018C                     	;# 
  1521  018D                     	;# 
  1522  018E                     	;# 
  1523  018F                     	;# 
  1524  0190                     	;# 
  1525  0191                     	;# 
  1526  0192                     	;# 
  1527  0196                     	;# 
  1528  0197                     	;# 
  1529  0198                     	;# 
  1530  0199                     	;# 
  1531  019A                     	;# 
  1532  019B                     	;# 
  1533  019C                     	;# 
  1534  020C                     	;# 
  1535  020C                     	;# 
  1536  020D                     	;# 
  1537  020E                     	;# 
  1538  020F                     	;# 
  1539  020F                     	;# 
  1540  0210                     	;# 
  1541  0210                     	;# 
  1542  0211                     	;# 
  1543  0211                     	;# 
  1544  028C                     	;# 
  1545  028C                     	;# 
  1546  028D                     	;# 
  1547  028D                     	;# 
  1548  028E                     	;# 
  1549  028F                     	;# 
  1550  0290                     	;# 
  1551  0291                     	;# 
  1552  030C                     	;# 
  1553  030C                     	;# 
  1554  030D                     	;# 
  1555  030E                     	;# 
  1556  030F                     	;# 
  1557  0310                     	;# 
  1558  0310                     	;# 
  1559  0311                     	;# 
  1560  0312                     	;# 
  1561  0313                     	;# 
  1562  0314                     	;# 
  1563  0314                     	;# 
  1564  0315                     	;# 
  1565  0316                     	;# 
  1566  0318                     	;# 
  1567  0318                     	;# 
  1568  0319                     	;# 
  1569  031A                     	;# 
  1570  031C                     	;# 
  1571  031C                     	;# 
  1572  031D                     	;# 
  1573  031E                     	;# 
  1574  038C                     	;# 
  1575  038C                     	;# 
  1576  038D                     	;# 
  1577  038E                     	;# 
  1578  058C                     	;# 
  1579  058C                     	;# 
  1580  058D                     	;# 
  1581  058E                     	;# 
  1582  058F                     	;# 
  1583  058F                     	;# 
  1584  0590                     	;# 
  1585  0591                     	;# 
  1586  0592                     	;# 
  1587  0593                     	;# 
  1588  059C                     	;# 
  1589  059C                     	;# 
  1590  059D                     	;# 
  1591  059D                     	;# 
  1592  059E                     	;# 
  1593  059F                     	;# 
  1594  060C                     	;# 
  1595  060D                     	;# 
  1596  060E                     	;# 
  1597  060F                     	;# 
  1598  0610                     	;# 
  1599  0611                     	;# 
  1600  0612                     	;# 
  1601  0613                     	;# 
  1602  0614                     	;# 
  1603  070C                     	;# 
  1604  070D                     	;# 
  1605  070E                     	;# 
  1606  070F                     	;# 
  1607  0710                     	;# 
  1608  0711                     	;# 
  1609  0712                     	;# 
  1610  0713                     	;# 
  1611  0716                     	;# 
  1612  0717                     	;# 
  1613  0718                     	;# 
  1614  0719                     	;# 
  1615  071A                     	;# 
  1616  071B                     	;# 
  1617  071C                     	;# 
  1618  071D                     	;# 
  1619  0796                     	;# 
  1620  0797                     	;# 
  1621  0798                     	;# 
  1622  0799                     	;# 
  1623  079A                     	;# 
  1624  079B                     	;# 
  1625  080C                     	;# 
  1626  080D                     	;# 
  1627  080E                     	;# 
  1628  080F                     	;# 
  1629  0810                     	;# 
  1630  0811                     	;# 
  1631  0812                     	;# 
  1632  0813                     	;# 
  1633  0814                     	;# 
  1634  081A                     	;# 
  1635  081A                     	;# 
  1636  081B                     	;# 
  1637  081C                     	;# 
  1638  081C                     	;# 
  1639  081D                     	;# 
  1640  081E                     	;# 
  1641  081F                     	;# 
  1642  088C                     	;# 
  1643  088D                     	;# 
  1644  088E                     	;# 
  1645  088F                     	;# 
  1646  0890                     	;# 
  1647  0891                     	;# 
  1648  0892                     	;# 
  1649  0893                     	;# 
  1650  0895                     	;# 
  1651  0896                     	;# 
  1652  090C                     	;# 
  1653  090E                     	;# 
  1654  090F                     	;# 
  1655  091F                     	;# 
  1656  098F                     	;# 
  1657  098F                     	;# 
  1658  0990                     	;# 
  1659  0991                     	;# 
  1660  0992                     	;# 
  1661  0993                     	;# 
  1662  0994                     	;# 
  1663  0995                     	;# 
  1664  0996                     	;# 
  1665  0997                     	;# 
  1666  0A19                     	;# 
  1667  0A19                     	;# 
  1668  0A1A                     	;# 
  1669  0A1A                     	;# 
  1670  0A1B                     	;# 
  1671  0A1B                     	;# 
  1672  0A1B                     	;# 
  1673  0A1C                     	;# 
  1674  0A1C                     	;# 
  1675  0A1D                     	;# 
  1676  0A1D                     	;# 
  1677  0A1E                     	;# 
  1678  0A1E                     	;# 
  1679  0A1F                     	;# 
  1680  0A1F                     	;# 
  1681  0A1F                     	;# 
  1682  1E0F                     	;# 
  1683  1E10                     	;# 
  1684  1E11                     	;# 
  1685  1E12                     	;# 
  1686  1E13                     	;# 
  1687  1E14                     	;# 
  1688  1E15                     	;# 
  1689  1E16                     	;# 
  1690  1E17                     	;# 
  1691  1E18                     	;# 
  1692  1E19                     	;# 
  1693  1E1A                     	;# 
  1694  1E1B                     	;# 
  1695  1E1C                     	;# 
  1696  1E1D                     	;# 
  1697  1E1E                     	;# 
  1698  1E1F                     	;# 
  1699  1E20                     	;# 
  1700  1E21                     	;# 
  1701  1E22                     	;# 
  1702  1E23                     	;# 
  1703  1E24                     	;# 
  1704  1E25                     	;# 
  1705  1E26                     	;# 
  1706  1E27                     	;# 
  1707  1E28                     	;# 
  1708  1E29                     	;# 
  1709  1E2A                     	;# 
  1710  1E2B                     	;# 
  1711  1E2C                     	;# 
  1712  1E2D                     	;# 
  1713  1E2E                     	;# 
  1714  1E2F                     	;# 
  1715  1E30                     	;# 
  1716  1E31                     	;# 
  1717  1E32                     	;# 
  1718  1E33                     	;# 
  1719  1E34                     	;# 
  1720  1E35                     	;# 
  1721  1E36                     	;# 
  1722  1E37                     	;# 
  1723  1E8F                     	;# 
  1724  1E90                     	;# 
  1725  1E91                     	;# 
  1726  1E92                     	;# 
  1727  1E93                     	;# 
  1728  1E9C                     	;# 
  1729  1EA1                     	;# 
  1730  1EA2                     	;# 
  1731  1EB1                     	;# 
  1732  1EBB                     	;# 
  1733  1EBC                     	;# 
  1734  1EBD                     	;# 
  1735  1EBE                     	;# 
  1736  1EC3                     	;# 
  1737  1EC5                     	;# 
  1738  1EC6                     	;# 
  1739  1EC7                     	;# 
  1740  1EC8                     	;# 
  1741  1EC9                     	;# 
  1742  1ECA                     	;# 
  1743  1ECB                     	;# 
  1744  1ECC                     	;# 
  1745  1ECD                     	;# 
  1746  1ECE                     	;# 
  1747  1F10                     	;# 
  1748  1F11                     	;# 
  1749  1F12                     	;# 
  1750  1F13                     	;# 
  1751  1F14                     	;# 
  1752  1F15                     	;# 
  1753  1F16                     	;# 
  1754  1F17                     	;# 
  1755  1F18                     	;# 
  1756  1F19                     	;# 
  1757  1F1A                     	;# 
  1758  1F1B                     	;# 
  1759  1F1C                     	;# 
  1760  1F1D                     	;# 
  1761  1F1E                     	;# 
  1762  1F1F                     	;# 
  1763  1F20                     	;# 
  1764  1F21                     	;# 
  1765  1F22                     	;# 
  1766  1F23                     	;# 
  1767  1F24                     	;# 
  1768  1F25                     	;# 
  1769  1F26                     	;# 
  1770  1F27                     	;# 
  1771  1F38                     	;# 
  1772  1F39                     	;# 
  1773  1F3A                     	;# 
  1774  1F3B                     	;# 
  1775  1F3C                     	;# 
  1776  1F3D                     	;# 
  1777  1F3E                     	;# 
  1778  1F3F                     	;# 
  1779  1F43                     	;# 
  1780  1F44                     	;# 
  1781  1F45                     	;# 
  1782  1F46                     	;# 
  1783  1F47                     	;# 
  1784  1F48                     	;# 
  1785  1F49                     	;# 
  1786  1F4A                     	;# 
  1787  1F4E                     	;# 
  1788  1F4F                     	;# 
  1789  1F50                     	;# 
  1790  1F51                     	;# 
  1791  1F52                     	;# 
  1792  1F53                     	;# 
  1793  1F54                     	;# 
  1794  1F55                     	;# 
  1795  1F65                     	;# 
  1796  1F68                     	;# 
  1797  1F69                     	;# 
  1798  1F6A                     	;# 
  1799  1F6B                     	;# 
  1800  1FE4                     	;# 
  1801  1FE5                     	;# 
  1802  1FE6                     	;# 
  1803  1FE7                     	;# 
  1804  1FE8                     	;# 
  1805  1FE8                     	;# 
  1806  1FE9                     	;# 
  1807  1FEA                     	;# 
  1808  1FEB                     	;# 
  1809  1FED                     	;# 
  1810  1FEE                     	;# 
  1811  1FEF                     	;# 
  1812  0000                     	;# 
  1813  0001                     	;# 
  1814  0002                     	;# 
  1815  0003                     	;# 
  1816  0004                     	;# 
  1817  0005                     	;# 
  1818  0006                     	;# 
  1819  0007                     	;# 
  1820  0008                     	;# 
  1821  0009                     	;# 
  1822  000A                     	;# 
  1823  000B                     	;# 
  1824  000C                     	;# 
  1825  000D                     	;# 
  1826  000E                     	;# 
  1827  0010                     	;# 
  1828  0012                     	;# 
  1829  0013                     	;# 
  1830  0014                     	;# 
  1831  0016                     	;# 
  1832  0018                     	;# 
  1833  0019                     	;# 
  1834  001A                     	;# 
  1835  009B                     	;# 
  1836  009B                     	;# 
  1837  009C                     	;# 
  1838  009D                     	;# 
  1839  009E                     	;# 
  1840  009F                     	;# 
  1841  0119                     	;# 
  1842  0119                     	;# 
  1843  0119                     	;# 
  1844  011A                     	;# 
  1845  011A                     	;# 
  1846  011A                     	;# 
  1847  011B                     	;# 
  1848  011B                     	;# 
  1849  011B                     	;# 
  1850  011B                     	;# 
  1851  011B                     	;# 
  1852  011C                     	;# 
  1853  011C                     	;# 
  1854  011C                     	;# 
  1855  011D                     	;# 
  1856  011D                     	;# 
  1857  011D                     	;# 
  1858  011E                     	;# 
  1859  011E                     	;# 
  1860  011E                     	;# 
  1861  011F                     	;# 
  1862  011F                     	;# 
  1863  011F                     	;# 
  1864  011F                     	;# 
  1865  011F                     	;# 
  1866  018C                     	;# 
  1867  018D                     	;# 
  1868  018E                     	;# 
  1869  018F                     	;# 
  1870  0190                     	;# 
  1871  0191                     	;# 
  1872  0192                     	;# 
  1873  0196                     	;# 
  1874  0197                     	;# 
  1875  0198                     	;# 
  1876  0199                     	;# 
  1877  019A                     	;# 
  1878  019B                     	;# 
  1879  019C                     	;# 
  1880  020C                     	;# 
  1881  020C                     	;# 
  1882  020D                     	;# 
  1883  020E                     	;# 
  1884  020F                     	;# 
  1885  020F                     	;# 
  1886  0210                     	;# 
  1887  0210                     	;# 
  1888  0211                     	;# 
  1889  0211                     	;# 
  1890  028C                     	;# 
  1891  028C                     	;# 
  1892  028D                     	;# 
  1893  028D                     	;# 
  1894  028E                     	;# 
  1895  028F                     	;# 
  1896  0290                     	;# 
  1897  0291                     	;# 
  1898  030C                     	;# 
  1899  030C                     	;# 
  1900  030D                     	;# 
  1901  030E                     	;# 
  1902  030F                     	;# 
  1903  0310                     	;# 
  1904  0310                     	;# 
  1905  0311                     	;# 
  1906  0312                     	;# 
  1907  0313                     	;# 
  1908  0314                     	;# 
  1909  0314                     	;# 
  1910  0315                     	;# 
  1911  0316                     	;# 
  1912  0318                     	;# 
  1913  0318                     	;# 
  1914  0319                     	;# 
  1915  031A                     	;# 
  1916  031C                     	;# 
  1917  031C                     	;# 
  1918  031D                     	;# 
  1919  031E                     	;# 
  1920  038C                     	;# 
  1921  038C                     	;# 
  1922  038D                     	;# 
  1923  038E                     	;# 
  1924  058C                     	;# 
  1925  058C                     	;# 
  1926  058D                     	;# 
  1927  058E                     	;# 
  1928  058F                     	;# 
  1929  058F                     	;# 
  1930  0590                     	;# 
  1931  0591                     	;# 
  1932  0592                     	;# 
  1933  0593                     	;# 
  1934  059C                     	;# 
  1935  059C                     	;# 
  1936  059D                     	;# 
  1937  059D                     	;# 
  1938  059E                     	;# 
  1939  059F                     	;# 
  1940  060C                     	;# 
  1941  060D                     	;# 
  1942  060E                     	;# 
  1943  060F                     	;# 
  1944  0610                     	;# 
  1945  0611                     	;# 
  1946  0612                     	;# 
  1947  0613                     	;# 
  1948  0614                     	;# 
  1949  070C                     	;# 
  1950  070D                     	;# 
  1951  070E                     	;# 
  1952  070F                     	;# 
  1953  0710                     	;# 
  1954  0711                     	;# 
  1955  0712                     	;# 
  1956  0713                     	;# 
  1957  0716                     	;# 
  1958  0717                     	;# 
  1959  0718                     	;# 
  1960  0719                     	;# 
  1961  071A                     	;# 
  1962  071B                     	;# 
  1963  071C                     	;# 
  1964  071D                     	;# 
  1965  0796                     	;# 
  1966  0797                     	;# 
  1967  0798                     	;# 
  1968  0799                     	;# 
  1969  079A                     	;# 
  1970  079B                     	;# 
  1971  080C                     	;# 
  1972  080D                     	;# 
  1973  080E                     	;# 
  1974  080F                     	;# 
  1975  0810                     	;# 
  1976  0811                     	;# 
  1977  0812                     	;# 
  1978  0813                     	;# 
  1979  0814                     	;# 
  1980  081A                     	;# 
  1981  081A                     	;# 
  1982  081B                     	;# 
  1983  081C                     	;# 
  1984  081C                     	;# 
  1985  081D                     	;# 
  1986  081E                     	;# 
  1987  081F                     	;# 
  1988  088C                     	;# 
  1989  088D                     	;# 
  1990  088E                     	;# 
  1991  088F                     	;# 
  1992  0890                     	;# 
  1993  0891                     	;# 
  1994  0892                     	;# 
  1995  0893                     	;# 
  1996  0895                     	;# 
  1997  0896                     	;# 
  1998  090C                     	;# 
  1999  090E                     	;# 
  2000  090F                     	;# 
  2001  091F                     	;# 
  2002  098F                     	;# 
  2003  098F                     	;# 
  2004  0990                     	;# 
  2005  0991                     	;# 
  2006  0992                     	;# 
  2007  0993                     	;# 
  2008  0994                     	;# 
  2009  0995                     	;# 
  2010  0996                     	;# 
  2011  0997                     	;# 
  2012  0A19                     	;# 
  2013  0A19                     	;# 
  2014  0A1A                     	;# 
  2015  0A1A                     	;# 
  2016  0A1B                     	;# 
  2017  0A1B                     	;# 
  2018  0A1B                     	;# 
  2019  0A1C                     	;# 
  2020  0A1C                     	;# 
  2021  0A1D                     	;# 
  2022  0A1D                     	;# 
  2023  0A1E                     	;# 
  2024  0A1E                     	;# 
  2025  0A1F                     	;# 
  2026  0A1F                     	;# 
  2027  0A1F                     	;# 
  2028  1E0F                     	;# 
  2029  1E10                     	;# 
  2030  1E11                     	;# 
  2031  1E12                     	;# 
  2032  1E13                     	;# 
  2033  1E14                     	;# 
  2034  1E15                     	;# 
  2035  1E16                     	;# 
  2036  1E17                     	;# 
  2037  1E18                     	;# 
  2038  1E19                     	;# 
  2039  1E1A                     	;# 
  2040  1E1B                     	;# 
  2041  1E1C                     	;# 
  2042  1E1D                     	;# 
  2043  1E1E                     	;# 
  2044  1E1F                     	;# 
  2045  1E20                     	;# 
  2046  1E21                     	;# 
  2047  1E22                     	;# 
  2048  1E23                     	;# 
  2049  1E24                     	;# 
  2050  1E25                     	;# 
  2051  1E26                     	;# 
  2052  1E27                     	;# 
  2053  1E28                     	;# 
  2054  1E29                     	;# 
  2055  1E2A                     	;# 
  2056  1E2B                     	;# 
  2057  1E2C                     	;# 
  2058  1E2D                     	;# 
  2059  1E2E                     	;# 
  2060  1E2F                     	;# 
  2061  1E30                     	;# 
  2062  1E31                     	;# 
  2063  1E32                     	;# 
  2064  1E33                     	;# 
  2065  1E34                     	;# 
  2066  1E35                     	;# 
  2067  1E36                     	;# 
  2068  1E37                     	;# 
  2069  1E8F                     	;# 
  2070  1E90                     	;# 
  2071  1E91                     	;# 
  2072  1E92                     	;# 
  2073  1E93                     	;# 
  2074  1E9C                     	;# 
  2075  1EA1                     	;# 
  2076  1EA2                     	;# 
  2077  1EB1                     	;# 
  2078  1EBB                     	;# 
  2079  1EBC                     	;# 
  2080  1EBD                     	;# 
  2081  1EBE                     	;# 
  2082  1EC3                     	;# 
  2083  1EC5                     	;# 
  2084  1EC6                     	;# 
  2085  1EC7                     	;# 
  2086  1EC8                     	;# 
  2087  1EC9                     	;# 
  2088  1ECA                     	;# 
  2089  1ECB                     	;# 
  2090  1ECC                     	;# 
  2091  1ECD                     	;# 
  2092  1ECE                     	;# 
  2093  1F10                     	;# 
  2094  1F11                     	;# 
  2095  1F12                     	;# 
  2096  1F13                     	;# 
  2097  1F14                     	;# 
  2098  1F15                     	;# 
  2099  1F16                     	;# 
  2100  1F17                     	;# 
  2101  1F18                     	;# 
  2102  1F19                     	;# 
  2103  1F1A                     	;# 
  2104  1F1B                     	;# 
  2105  1F1C                     	;# 
  2106  1F1D                     	;# 
  2107  1F1E                     	;# 
  2108  1F1F                     	;# 
  2109  1F20                     	;# 
  2110  1F21                     	;# 
  2111  1F22                     	;# 
  2112  1F23                     	;# 
  2113  1F24                     	;# 
  2114  1F25                     	;# 
  2115  1F26                     	;# 
  2116  1F27                     	;# 
  2117  1F38                     	;# 
  2118  1F39                     	;# 
  2119  1F3A                     	;# 
  2120  1F3B                     	;# 
  2121  1F3C                     	;# 
  2122  1F3D                     	;# 
  2123  1F3E                     	;# 
  2124  1F3F                     	;# 
  2125  1F43                     	;# 
  2126  1F44                     	;# 
  2127  1F45                     	;# 
  2128  1F46                     	;# 
  2129  1F47                     	;# 
  2130  1F48                     	;# 
  2131  1F49                     	;# 
  2132  1F4A                     	;# 
  2133  1F4E                     	;# 
  2134  1F4F                     	;# 
  2135  1F50                     	;# 
  2136  1F51                     	;# 
  2137  1F52                     	;# 
  2138  1F53                     	;# 
  2139  1F54                     	;# 
  2140  1F55                     	;# 
  2141  1F65                     	;# 
  2142  1F68                     	;# 
  2143  1F69                     	;# 
  2144  1F6A                     	;# 
  2145  1F6B                     	;# 
  2146  1FE4                     	;# 
  2147  1FE5                     	;# 
  2148  1FE6                     	;# 
  2149  1FE7                     	;# 
  2150  1FE8                     	;# 
  2151  1FE8                     	;# 
  2152  1FE9                     	;# 
  2153  1FEA                     	;# 
  2154  1FEB                     	;# 
  2155  1FED                     	;# 
  2156  1FEE                     	;# 
  2157  1FEF                     	;# 
  2158  0000                     	;# 
  2159  0001                     	;# 
  2160  0002                     	;# 
  2161  0003                     	;# 
  2162  0004                     	;# 
  2163  0005                     	;# 
  2164  0006                     	;# 
  2165  0007                     	;# 
  2166  0008                     	;# 
  2167  0009                     	;# 
  2168  000A                     	;# 
  2169  000B                     	;# 
  2170  000C                     	;# 
  2171  000D                     	;# 
  2172  000E                     	;# 
  2173  0010                     	;# 
  2174  0012                     	;# 
  2175  0013                     	;# 
  2176  0014                     	;# 
  2177  0016                     	;# 
  2178  0018                     	;# 
  2179  0019                     	;# 
  2180  001A                     	;# 
  2181  009B                     	;# 
  2182  009B                     	;# 
  2183  009C                     	;# 
  2184  009D                     	;# 
  2185  009E                     	;# 
  2186  009F                     	;# 
  2187  0119                     	;# 
  2188  0119                     	;# 
  2189  0119                     	;# 
  2190  011A                     	;# 
  2191  011A                     	;# 
  2192  011A                     	;# 
  2193  011B                     	;# 
  2194  011B                     	;# 
  2195  011B                     	;# 
  2196  011B                     	;# 
  2197  011B                     	;# 
  2198  011C                     	;# 
  2199  011C                     	;# 
  2200  011C                     	;# 
  2201  011D                     	;# 
  2202  011D                     	;# 
  2203  011D                     	;# 
  2204  011E                     	;# 
  2205  011E                     	;# 
  2206  011E                     	;# 
  2207  011F                     	;# 
  2208  011F                     	;# 
  2209  011F                     	;# 
  2210  011F                     	;# 
  2211  011F                     	;# 
  2212  018C                     	;# 
  2213  018D                     	;# 
  2214  018E                     	;# 
  2215  018F                     	;# 
  2216  0190                     	;# 
  2217  0191                     	;# 
  2218  0192                     	;# 
  2219  0196                     	;# 
  2220  0197                     	;# 
  2221  0198                     	;# 
  2222  0199                     	;# 
  2223  019A                     	;# 
  2224  019B                     	;# 
  2225  019C                     	;# 
  2226  020C                     	;# 
  2227  020C                     	;# 
  2228  020D                     	;# 
  2229  020E                     	;# 
  2230  020F                     	;# 
  2231  020F                     	;# 
  2232  0210                     	;# 
  2233  0210                     	;# 
  2234  0211                     	;# 
  2235  0211                     	;# 
  2236  028C                     	;# 
  2237  028C                     	;# 
  2238  028D                     	;# 
  2239  028D                     	;# 
  2240  028E                     	;# 
  2241  028F                     	;# 
  2242  0290                     	;# 
  2243  0291                     	;# 
  2244  030C                     	;# 
  2245  030C                     	;# 
  2246  030D                     	;# 
  2247  030E                     	;# 
  2248  030F                     	;# 
  2249  0310                     	;# 
  2250  0310                     	;# 
  2251  0311                     	;# 
  2252  0312                     	;# 
  2253  0313                     	;# 
  2254  0314                     	;# 
  2255  0314                     	;# 
  2256  0315                     	;# 
  2257  0316                     	;# 
  2258  0318                     	;# 
  2259  0318                     	;# 
  2260  0319                     	;# 
  2261  031A                     	;# 
  2262  031C                     	;# 
  2263  031C                     	;# 
  2264  031D                     	;# 
  2265  031E                     	;# 
  2266  038C                     	;# 
  2267  038C                     	;# 
  2268  038D                     	;# 
  2269  038E                     	;# 
  2270  058C                     	;# 
  2271  058C                     	;# 
  2272  058D                     	;# 
  2273  058E                     	;# 
  2274  058F                     	;# 
  2275  058F                     	;# 
  2276  0590                     	;# 
  2277  0591                     	;# 
  2278  0592                     	;# 
  2279  0593                     	;# 
  2280  059C                     	;# 
  2281  059C                     	;# 
  2282  059D                     	;# 
  2283  059D                     	;# 
  2284  059E                     	;# 
  2285  059F                     	;# 
  2286  060C                     	;# 
  2287  060D                     	;# 
  2288  060E                     	;# 
  2289  060F                     	;# 
  2290  0610                     	;# 
  2291  0611                     	;# 
  2292  0612                     	;# 
  2293  0613                     	;# 
  2294  0614                     	;# 
  2295  070C                     	;# 
  2296  070D                     	;# 
  2297  070E                     	;# 
  2298  070F                     	;# 
  2299  0710                     	;# 
  2300  0711                     	;# 
  2301  0712                     	;# 
  2302  0713                     	;# 
  2303  0716                     	;# 
  2304  0717                     	;# 
  2305  0718                     	;# 
  2306  0719                     	;# 
  2307  071A                     	;# 
  2308  071B                     	;# 
  2309  071C                     	;# 
  2310  071D                     	;# 
  2311  0796                     	;# 
  2312  0797                     	;# 
  2313  0798                     	;# 
  2314  0799                     	;# 
  2315  079A                     	;# 
  2316  079B                     	;# 
  2317  080C                     	;# 
  2318  080D                     	;# 
  2319  080E                     	;# 
  2320  080F                     	;# 
  2321  0810                     	;# 
  2322  0811                     	;# 
  2323  0812                     	;# 
  2324  0813                     	;# 
  2325  0814                     	;# 
  2326  081A                     	;# 
  2327  081A                     	;# 
  2328  081B                     	;# 
  2329  081C                     	;# 
  2330  081C                     	;# 
  2331  081D                     	;# 
  2332  081E                     	;# 
  2333  081F                     	;# 
  2334  088C                     	;# 
  2335  088D                     	;# 
  2336  088E                     	;# 
  2337  088F                     	;# 
  2338  0890                     	;# 
  2339  0891                     	;# 
  2340  0892                     	;# 
  2341  0893                     	;# 
  2342  0895                     	;# 
  2343  0896                     	;# 
  2344  090C                     	;# 
  2345  090E                     	;# 
  2346  090F                     	;# 
  2347  091F                     	;# 
  2348  098F                     	;# 
  2349  098F                     	;# 
  2350  0990                     	;# 
  2351  0991                     	;# 
  2352  0992                     	;# 
  2353  0993                     	;# 
  2354  0994                     	;# 
  2355  0995                     	;# 
  2356  0996                     	;# 
  2357  0997                     	;# 
  2358  0A19                     	;# 
  2359  0A19                     	;# 
  2360  0A1A                     	;# 
  2361  0A1A                     	;# 
  2362  0A1B                     	;# 
  2363  0A1B                     	;# 
  2364  0A1B                     	;# 
  2365  0A1C                     	;# 
  2366  0A1C                     	;# 
  2367  0A1D                     	;# 
  2368  0A1D                     	;# 
  2369  0A1E                     	;# 
  2370  0A1E                     	;# 
  2371  0A1F                     	;# 
  2372  0A1F                     	;# 
  2373  0A1F                     	;# 
  2374  1E0F                     	;# 
  2375  1E10                     	;# 
  2376  1E11                     	;# 
  2377  1E12                     	;# 
  2378  1E13                     	;# 
  2379  1E14                     	;# 
  2380  1E15                     	;# 
  2381  1E16                     	;# 
  2382  1E17                     	;# 
  2383  1E18                     	;# 
  2384  1E19                     	;# 
  2385  1E1A                     	;# 
  2386  1E1B                     	;# 
  2387  1E1C                     	;# 
  2388  1E1D                     	;# 
  2389  1E1E                     	;# 
  2390  1E1F                     	;# 
  2391  1E20                     	;# 
  2392  1E21                     	;# 
  2393  1E22                     	;# 
  2394  1E23                     	;# 
  2395  1E24                     	;# 
  2396  1E25                     	;# 
  2397  1E26                     	;# 
  2398  1E27                     	;# 
  2399  1E28                     	;# 
  2400  1E29                     	;# 
  2401  1E2A                     	;# 
  2402  1E2B                     	;# 
  2403  1E2C                     	;# 
  2404  1E2D                     	;# 
  2405  1E2E                     	;# 
  2406  1E2F                     	;# 
  2407  1E30                     	;# 
  2408  1E31                     	;# 
  2409  1E32                     	;# 
  2410  1E33                     	;# 
  2411  1E34                     	;# 
  2412  1E35                     	;# 
  2413  1E36                     	;# 
  2414  1E37                     	;# 
  2415  1E8F                     	;# 
  2416  1E90                     	;# 
  2417  1E91                     	;# 
  2418  1E92                     	;# 
  2419  1E93                     	;# 
  2420  1E9C                     	;# 
  2421  1EA1                     	;# 
  2422  1EA2                     	;# 
  2423  1EB1                     	;# 
  2424  1EBB                     	;# 
  2425  1EBC                     	;# 
  2426  1EBD                     	;# 
  2427  1EBE                     	;# 
  2428  1EC3                     	;# 
  2429  1EC5                     	;# 
  2430  1EC6                     	;# 
  2431  1EC7                     	;# 
  2432  1EC8                     	;# 
  2433  1EC9                     	;# 
  2434  1ECA                     	;# 
  2435  1ECB                     	;# 
  2436  1ECC                     	;# 
  2437  1ECD                     	;# 
  2438  1ECE                     	;# 
  2439  1F10                     	;# 
  2440  1F11                     	;# 
  2441  1F12                     	;# 
  2442  1F13                     	;# 
  2443  1F14                     	;# 
  2444  1F15                     	;# 
  2445  1F16                     	;# 
  2446  1F17                     	;# 
  2447  1F18                     	;# 
  2448  1F19                     	;# 
  2449  1F1A                     	;# 
  2450  1F1B                     	;# 
  2451  1F1C                     	;# 
  2452  1F1D                     	;# 
  2453  1F1E                     	;# 
  2454  1F1F                     	;# 
  2455  1F20                     	;# 
  2456  1F21                     	;# 
  2457  1F22                     	;# 
  2458  1F23                     	;# 
  2459  1F24                     	;# 
  2460  1F25                     	;# 
  2461  1F26                     	;# 
  2462  1F27                     	;# 
  2463  1F38                     	;# 
  2464  1F39                     	;# 
  2465  1F3A                     	;# 
  2466  1F3B                     	;# 
  2467  1F3C                     	;# 
  2468  1F3D                     	;# 
  2469  1F3E                     	;# 
  2470  1F3F                     	;# 
  2471  1F43                     	;# 
  2472  1F44                     	;# 
  2473  1F45                     	;# 
  2474  1F46                     	;# 
  2475  1F47                     	;# 
  2476  1F48                     	;# 
  2477  1F49                     	;# 
  2478  1F4A                     	;# 
  2479  1F4E                     	;# 
  2480  1F4F                     	;# 
  2481  1F50                     	;# 
  2482  1F51                     	;# 
  2483  1F52                     	;# 
  2484  1F53                     	;# 
  2485  1F54                     	;# 
  2486  1F55                     	;# 
  2487  1F65                     	;# 
  2488  1F68                     	;# 
  2489  1F69                     	;# 
  2490  1F6A                     	;# 
  2491  1F6B                     	;# 
  2492  1FE4                     	;# 
  2493  1FE5                     	;# 
  2494  1FE6                     	;# 
  2495  1FE7                     	;# 
  2496  1FE8                     	;# 
  2497  1FE8                     	;# 
  2498  1FE9                     	;# 
  2499  1FEA                     	;# 
  2500  1FEB                     	;# 
  2501  1FED                     	;# 
  2502  1FEE                     	;# 
  2503  1FEF                     	;# 
  2504  0000                     	;# 
  2505  0001                     	;# 
  2506  0002                     	;# 
  2507  0003                     	;# 
  2508  0004                     	;# 
  2509  0005                     	;# 
  2510  0006                     	;# 
  2511  0007                     	;# 
  2512  0008                     	;# 
  2513  0009                     	;# 
  2514  000A                     	;# 
  2515  000B                     	;# 
  2516  000C                     	;# 
  2517  000D                     	;# 
  2518  000E                     	;# 
  2519  0010                     	;# 
  2520  0012                     	;# 
  2521  0013                     	;# 
  2522  0014                     	;# 
  2523  0016                     	;# 
  2524  0018                     	;# 
  2525  0019                     	;# 
  2526  001A                     	;# 
  2527  009B                     	;# 
  2528  009B                     	;# 
  2529  009C                     	;# 
  2530  009D                     	;# 
  2531  009E                     	;# 
  2532  009F                     	;# 
  2533  0119                     	;# 
  2534  0119                     	;# 
  2535  0119                     	;# 
  2536  011A                     	;# 
  2537  011A                     	;# 
  2538  011A                     	;# 
  2539  011B                     	;# 
  2540  011B                     	;# 
  2541  011B                     	;# 
  2542  011B                     	;# 
  2543  011B                     	;# 
  2544  011C                     	;# 
  2545  011C                     	;# 
  2546  011C                     	;# 
  2547  011D                     	;# 
  2548  011D                     	;# 
  2549  011D                     	;# 
  2550  011E                     	;# 
  2551  011E                     	;# 
  2552  011E                     	;# 
  2553  011F                     	;# 
  2554  011F                     	;# 
  2555  011F                     	;# 
  2556  011F                     	;# 
  2557  011F                     	;# 
  2558  018C                     	;# 
  2559  018D                     	;# 
  2560  018E                     	;# 
  2561  018F                     	;# 
  2562  0190                     	;# 
  2563  0191                     	;# 
  2564  0192                     	;# 
  2565  0196                     	;# 
  2566  0197                     	;# 
  2567  0198                     	;# 
  2568  0199                     	;# 
  2569  019A                     	;# 
  2570  019B                     	;# 
  2571  019C                     	;# 
  2572  020C                     	;# 
  2573  020C                     	;# 
  2574  020D                     	;# 
  2575  020E                     	;# 
  2576  020F                     	;# 
  2577  020F                     	;# 
  2578  0210                     	;# 
  2579  0210                     	;# 
  2580  0211                     	;# 
  2581  0211                     	;# 
  2582  028C                     	;# 
  2583  028C                     	;# 
  2584  028D                     	;# 
  2585  028D                     	;# 
  2586  028E                     	;# 
  2587  028F                     	;# 
  2588  0290                     	;# 
  2589  0291                     	;# 
  2590  030C                     	;# 
  2591  030C                     	;# 
  2592  030D                     	;# 
  2593  030E                     	;# 
  2594  030F                     	;# 
  2595  0310                     	;# 
  2596  0310                     	;# 
  2597  0311                     	;# 
  2598  0312                     	;# 
  2599  0313                     	;# 
  2600  0314                     	;# 
  2601  0314                     	;# 
  2602  0315                     	;# 
  2603  0316                     	;# 
  2604  0318                     	;# 
  2605  0318                     	;# 
  2606  0319                     	;# 
  2607  031A                     	;# 
  2608  031C                     	;# 
  2609  031C                     	;# 
  2610  031D                     	;# 
  2611  031E                     	;# 
  2612  038C                     	;# 
  2613  038C                     	;# 
  2614  038D                     	;# 
  2615  038E                     	;# 
  2616  058C                     	;# 
  2617  058C                     	;# 
  2618  058D                     	;# 
  2619  058E                     	;# 
  2620  058F                     	;# 
  2621  058F                     	;# 
  2622  0590                     	;# 
  2623  0591                     	;# 
  2624  0592                     	;# 
  2625  0593                     	;# 
  2626  059C                     	;# 
  2627  059C                     	;# 
  2628  059D                     	;# 
  2629  059D                     	;# 
  2630  059E                     	;# 
  2631  059F                     	;# 
  2632  060C                     	;# 
  2633  060D                     	;# 
  2634  060E                     	;# 
  2635  060F                     	;# 
  2636  0610                     	;# 
  2637  0611                     	;# 
  2638  0612                     	;# 
  2639  0613                     	;# 
  2640  0614                     	;# 
  2641  070C                     	;# 
  2642  070D                     	;# 
  2643  070E                     	;# 
  2644  070F                     	;# 
  2645  0710                     	;# 
  2646  0711                     	;# 
  2647  0712                     	;# 
  2648  0713                     	;# 
  2649  0716                     	;# 
  2650  0717                     	;# 
  2651  0718                     	;# 
  2652  0719                     	;# 
  2653  071A                     	;# 
  2654  071B                     	;# 
  2655  071C                     	;# 
  2656  071D                     	;# 
  2657  0796                     	;# 
  2658  0797                     	;# 
  2659  0798                     	;# 
  2660  0799                     	;# 
  2661  079A                     	;# 
  2662  079B                     	;# 
  2663  080C                     	;# 
  2664  080D                     	;# 
  2665  080E                     	;# 
  2666  080F                     	;# 
  2667  0810                     	;# 
  2668  0811                     	;# 
  2669  0812                     	;# 
  2670  0813                     	;# 
  2671  0814                     	;# 
  2672  081A                     	;# 
  2673  081A                     	;# 
  2674  081B                     	;# 
  2675  081C                     	;# 
  2676  081C                     	;# 
  2677  081D                     	;# 
  2678  081E                     	;# 
  2679  081F                     	;# 
  2680  088C                     	;# 
  2681  088D                     	;# 
  2682  088E                     	;# 
  2683  088F                     	;# 
  2684  0890                     	;# 
  2685  0891                     	;# 
  2686  0892                     	;# 
  2687  0893                     	;# 
  2688  0895                     	;# 
  2689  0896                     	;# 
  2690  090C                     	;# 
  2691  090E                     	;# 
  2692  090F                     	;# 
  2693  091F                     	;# 
  2694  098F                     	;# 
  2695  098F                     	;# 
  2696  0990                     	;# 
  2697  0991                     	;# 
  2698  0992                     	;# 
  2699  0993                     	;# 
  2700  0994                     	;# 
  2701  0995                     	;# 
  2702  0996                     	;# 
  2703  0997                     	;# 
  2704  0A19                     	;# 
  2705  0A19                     	;# 
  2706  0A1A                     	;# 
  2707  0A1A                     	;# 
  2708  0A1B                     	;# 
  2709  0A1B                     	;# 
  2710  0A1B                     	;# 
  2711  0A1C                     	;# 
  2712  0A1C                     	;# 
  2713  0A1D                     	;# 
  2714  0A1D                     	;# 
  2715  0A1E                     	;# 
  2716  0A1E                     	;# 
  2717  0A1F                     	;# 
  2718  0A1F                     	;# 
  2719  0A1F                     	;# 
  2720  1E0F                     	;# 
  2721  1E10                     	;# 
  2722  1E11                     	;# 
  2723  1E12                     	;# 
  2724  1E13                     	;# 
  2725  1E14                     	;# 
  2726  1E15                     	;# 
  2727  1E16                     	;# 
  2728  1E17                     	;# 
  2729  1E18                     	;# 
  2730  1E19                     	;# 
  2731  1E1A                     	;# 
  2732  1E1B                     	;# 
  2733  1E1C                     	;# 
  2734  1E1D                     	;# 
  2735  1E1E                     	;# 
  2736  1E1F                     	;# 
  2737  1E20                     	;# 
  2738  1E21                     	;# 
  2739  1E22                     	;# 
  2740  1E23                     	;# 
  2741  1E24                     	;# 
  2742  1E25                     	;# 
  2743  1E26                     	;# 
  2744  1E27                     	;# 
  2745  1E28                     	;# 
  2746  1E29                     	;# 
  2747  1E2A                     	;# 
  2748  1E2B                     	;# 
  2749  1E2C                     	;# 
  2750  1E2D                     	;# 
  2751  1E2E                     	;# 
  2752  1E2F                     	;# 
  2753  1E30                     	;# 
  2754  1E31                     	;# 
  2755  1E32                     	;# 
  2756  1E33                     	;# 
  2757  1E34                     	;# 
  2758  1E35                     	;# 
  2759  1E36                     	;# 
  2760  1E37                     	;# 
  2761  1E8F                     	;# 
  2762  1E90                     	;# 
  2763  1E91                     	;# 
  2764  1E92                     	;# 
  2765  1E93                     	;# 
  2766  1E9C                     	;# 
  2767  1EA1                     	;# 
  2768  1EA2                     	;# 
  2769  1EB1                     	;# 
  2770  1EBB                     	;# 
  2771  1EBC                     	;# 
  2772  1EBD                     	;# 
  2773  1EBE                     	;# 
  2774  1EC3                     	;# 
  2775  1EC5                     	;# 
  2776  1EC6                     	;# 
  2777  1EC7                     	;# 
  2778  1EC8                     	;# 
  2779  1EC9                     	;# 
  2780  1ECA                     	;# 
  2781  1ECB                     	;# 
  2782  1ECC                     	;# 
  2783  1ECD                     	;# 
  2784  1ECE                     	;# 
  2785  1F10                     	;# 
  2786  1F11                     	;# 
  2787  1F12                     	;# 
  2788  1F13                     	;# 
  2789  1F14                     	;# 
  2790  1F15                     	;# 
  2791  1F16                     	;# 
  2792  1F17                     	;# 
  2793  1F18                     	;# 
  2794  1F19                     	;# 
  2795  1F1A                     	;# 
  2796  1F1B                     	;# 
  2797  1F1C                     	;# 
  2798  1F1D                     	;# 
  2799  1F1E                     	;# 
  2800  1F1F                     	;# 
  2801  1F20                     	;# 
  2802  1F21                     	;# 
  2803  1F22                     	;# 
  2804  1F23                     	;# 
  2805  1F24                     	;# 
  2806  1F25                     	;# 
  2807  1F26                     	;# 
  2808  1F27                     	;# 
  2809  1F38                     	;# 
  2810  1F39                     	;# 
  2811  1F3A                     	;# 
  2812  1F3B                     	;# 
  2813  1F3C                     	;# 
  2814  1F3D                     	;# 
  2815  1F3E                     	;# 
  2816  1F3F                     	;# 
  2817  1F43                     	;# 
  2818  1F44                     	;# 
  2819  1F45                     	;# 
  2820  1F46                     	;# 
  2821  1F47                     	;# 
  2822  1F48                     	;# 
  2823  1F49                     	;# 
  2824  1F4A                     	;# 
  2825  1F4E                     	;# 
  2826  1F4F                     	;# 
  2827  1F50                     	;# 
  2828  1F51                     	;# 
  2829  1F52                     	;# 
  2830  1F53                     	;# 
  2831  1F54                     	;# 
  2832  1F55                     	;# 
  2833  1F65                     	;# 
  2834  1F68                     	;# 
  2835  1F69                     	;# 
  2836  1F6A                     	;# 
  2837  1F6B                     	;# 
  2838  1FE4                     	;# 
  2839  1FE5                     	;# 
  2840  1FE6                     	;# 
  2841  1FE7                     	;# 
  2842  1FE8                     	;# 
  2843  1FE8                     	;# 
  2844  1FE9                     	;# 
  2845  1FEA                     	;# 
  2846  1FEB                     	;# 
  2847  1FED                     	;# 
  2848  1FEE                     	;# 
  2849  1FEF                     	;# 
  2850  0000                     	;# 
  2851  0001                     	;# 
  2852  0002                     	;# 
  2853  0003                     	;# 
  2854  0004                     	;# 
  2855  0005                     	;# 
  2856  0006                     	;# 
  2857  0007                     	;# 
  2858  0008                     	;# 
  2859  0009                     	;# 
  2860  000A                     	;# 
  2861  000B                     	;# 
  2862  000C                     	;# 
  2863  000D                     	;# 
  2864  000E                     	;# 
  2865  0010                     	;# 
  2866  0012                     	;# 
  2867  0013                     	;# 
  2868  0014                     	;# 
  2869  0016                     	;# 
  2870  0018                     	;# 
  2871  0019                     	;# 
  2872  001A                     	;# 
  2873  009B                     	;# 
  2874  009B                     	;# 
  2875  009C                     	;# 
  2876  009D                     	;# 
  2877  009E                     	;# 
  2878  009F                     	;# 
  2879  0119                     	;# 
  2880  0119                     	;# 
  2881  0119                     	;# 
  2882  011A                     	;# 
  2883  011A                     	;# 
  2884  011A                     	;# 
  2885  011B                     	;# 
  2886  011B                     	;# 
  2887  011B                     	;# 
  2888  011B                     	;# 
  2889  011B                     	;# 
  2890  011C                     	;# 
  2891  011C                     	;# 
  2892  011C                     	;# 
  2893  011D                     	;# 
  2894  011D                     	;# 
  2895  011D                     	;# 
  2896  011E                     	;# 
  2897  011E                     	;# 
  2898  011E                     	;# 
  2899  011F                     	;# 
  2900  011F                     	;# 
  2901  011F                     	;# 
  2902  011F                     	;# 
  2903  011F                     	;# 
  2904  018C                     	;# 
  2905  018D                     	;# 
  2906  018E                     	;# 
  2907  018F                     	;# 
  2908  0190                     	;# 
  2909  0191                     	;# 
  2910  0192                     	;# 
  2911  0196                     	;# 
  2912  0197                     	;# 
  2913  0198                     	;# 
  2914  0199                     	;# 
  2915  019A                     	;# 
  2916  019B                     	;# 
  2917  019C                     	;# 
  2918  020C                     	;# 
  2919  020C                     	;# 
  2920  020D                     	;# 
  2921  020E                     	;# 
  2922  020F                     	;# 
  2923  020F                     	;# 
  2924  0210                     	;# 
  2925  0210                     	;# 
  2926  0211                     	;# 
  2927  0211                     	;# 
  2928  028C                     	;# 
  2929  028C                     	;# 
  2930  028D                     	;# 
  2931  028D                     	;# 
  2932  028E                     	;# 
  2933  028F                     	;# 
  2934  0290                     	;# 
  2935  0291                     	;# 
  2936  030C                     	;# 
  2937  030C                     	;# 
  2938  030D                     	;# 
  2939  030E                     	;# 
  2940  030F                     	;# 
  2941  0310                     	;# 
  2942  0310                     	;# 
  2943  0311                     	;# 
  2944  0312                     	;# 
  2945  0313                     	;# 
  2946  0314                     	;# 
  2947  0314                     	;# 
  2948  0315                     	;# 
  2949  0316                     	;# 
  2950  0318                     	;# 
  2951  0318                     	;# 
  2952  0319                     	;# 
  2953  031A                     	;# 
  2954  031C                     	;# 
  2955  031C                     	;# 
  2956  031D                     	;# 
  2957  031E                     	;# 
  2958  038C                     	;# 
  2959  038C                     	;# 
  2960  038D                     	;# 
  2961  038E                     	;# 
  2962  058C                     	;# 
  2963  058C                     	;# 
  2964  058D                     	;# 
  2965  058E                     	;# 
  2966  058F                     	;# 
  2967  058F                     	;# 
  2968  0590                     	;# 
  2969  0591                     	;# 
  2970  0592                     	;# 
  2971  0593                     	;# 
  2972  059C                     	;# 
  2973  059C                     	;# 
  2974  059D                     	;# 
  2975  059D                     	;# 
  2976  059E                     	;# 
  2977  059F                     	;# 
  2978  060C                     	;# 
  2979  060D                     	;# 
  2980  060E                     	;# 
  2981  060F                     	;# 
  2982  0610                     	;# 
  2983  0611                     	;# 
  2984  0612                     	;# 
  2985  0613                     	;# 
  2986  0614                     	;# 
  2987  070C                     	;# 
  2988  070D                     	;# 
  2989  070E                     	;# 
  2990  070F                     	;# 
  2991  0710                     	;# 
  2992  0711                     	;# 
  2993  0712                     	;# 
  2994  0713                     	;# 
  2995  0716                     	;# 
  2996  0717                     	;# 
  2997  0718                     	;# 
  2998  0719                     	;# 
  2999  071A                     	;# 
  3000  071B                     	;# 
  3001  071C                     	;# 
  3002  071D                     	;# 
  3003  0796                     	;# 
  3004  0797                     	;# 
  3005  0798                     	;# 
  3006  0799                     	;# 
  3007  079A                     	;# 
  3008  079B                     	;# 
  3009  080C                     	;# 
  3010  080D                     	;# 
  3011  080E                     	;# 
  3012  080F                     	;# 
  3013  0810                     	;# 
  3014  0811                     	;# 
  3015  0812                     	;# 
  3016  0813                     	;# 
  3017  0814                     	;# 
  3018  081A                     	;# 
  3019  081A                     	;# 
  3020  081B                     	;# 
  3021  081C                     	;# 
  3022  081C                     	;# 
  3023  081D                     	;# 
  3024  081E                     	;# 
  3025  081F                     	;# 
  3026  088C                     	;# 
  3027  088D                     	;# 
  3028  088E                     	;# 
  3029  088F                     	;# 
  3030  0890                     	;# 
  3031  0891                     	;# 
  3032  0892                     	;# 
  3033  0893                     	;# 
  3034  0895                     	;# 
  3035  0896                     	;# 
  3036  090C                     	;# 
  3037  090E                     	;# 
  3038  090F                     	;# 
  3039  091F                     	;# 
  3040  098F                     	;# 
  3041  098F                     	;# 
  3042  0990                     	;# 
  3043  0991                     	;# 
  3044  0992                     	;# 
  3045  0993                     	;# 
  3046  0994                     	;# 
  3047  0995                     	;# 
  3048  0996                     	;# 
  3049  0997                     	;# 
  3050  0A19                     	;# 
  3051  0A19                     	;# 
  3052  0A1A                     	;# 
  3053  0A1A                     	;# 
  3054  0A1B                     	;# 
  3055  0A1B                     	;# 
  3056  0A1B                     	;# 
  3057  0A1C                     	;# 
  3058  0A1C                     	;# 
  3059  0A1D                     	;# 
  3060  0A1D                     	;# 
  3061  0A1E                     	;# 
  3062  0A1E                     	;# 
  3063  0A1F                     	;# 
  3064  0A1F                     	;# 
  3065  0A1F                     	;# 
  3066  1E0F                     	;# 
  3067  1E10                     	;# 
  3068  1E11                     	;# 
  3069  1E12                     	;# 
  3070  1E13                     	;# 
  3071  1E14                     	;# 
  3072  1E15                     	;# 
  3073  1E16                     	;# 
  3074  1E17                     	;# 
  3075  1E18                     	;# 
  3076  1E19                     	;# 
  3077  1E1A                     	;# 
  3078  1E1B                     	;# 
  3079  1E1C                     	;# 
  3080  1E1D                     	;# 
  3081  1E1E                     	;# 
  3082  1E1F                     	;# 
  3083  1E20                     	;# 
  3084  1E21                     	;# 
  3085  1E22                     	;# 
  3086  1E23                     	;# 
  3087  1E24                     	;# 
  3088  1E25                     	;# 
  3089  1E26                     	;# 
  3090  1E27                     	;# 
  3091  1E28                     	;# 
  3092  1E29                     	;# 
  3093  1E2A                     	;# 
  3094  1E2B                     	;# 
  3095  1E2C                     	;# 
  3096  1E2D                     	;# 
  3097  1E2E                     	;# 
  3098  1E2F                     	;# 
  3099  1E30                     	;# 
  3100  1E31                     	;# 
  3101  1E32                     	;# 
  3102  1E33                     	;# 
  3103  1E34                     	;# 
  3104  1E35                     	;# 
  3105  1E36                     	;# 
  3106  1E37                     	;# 
  3107  1E8F                     	;# 
  3108  1E90                     	;# 
  3109  1E91                     	;# 
  3110  1E92                     	;# 
  3111  1E93                     	;# 
  3112  1E9C                     	;# 
  3113  1EA1                     	;# 
  3114  1EA2                     	;# 
  3115  1EB1                     	;# 
  3116  1EBB                     	;# 
  3117  1EBC                     	;# 
  3118  1EBD                     	;# 
  3119  1EBE                     	;# 
  3120  1EC3                     	;# 
  3121  1EC5                     	;# 
  3122  1EC6                     	;# 
  3123  1EC7                     	;# 
  3124  1EC8                     	;# 
  3125  1EC9                     	;# 
  3126  1ECA                     	;# 
  3127  1ECB                     	;# 
  3128  1ECC                     	;# 
  3129  1ECD                     	;# 
  3130  1ECE                     	;# 
  3131  1F10                     	;# 
  3132  1F11                     	;# 
  3133  1F12                     	;# 
  3134  1F13                     	;# 
  3135  1F14                     	;# 
  3136  1F15                     	;# 
  3137  1F16                     	;# 
  3138  1F17                     	;# 
  3139  1F18                     	;# 
  3140  1F19                     	;# 
  3141  1F1A                     	;# 
  3142  1F1B                     	;# 
  3143  1F1C                     	;# 
  3144  1F1D                     	;# 
  3145  1F1E                     	;# 
  3146  1F1F                     	;# 
  3147  1F20                     	;# 
  3148  1F21                     	;# 
  3149  1F22                     	;# 
  3150  1F23                     	;# 
  3151  1F24                     	;# 
  3152  1F25                     	;# 
  3153  1F26                     	;# 
  3154  1F27                     	;# 
  3155  1F38                     	;# 
  3156  1F39                     	;# 
  3157  1F3A                     	;# 
  3158  1F3B                     	;# 
  3159  1F3C                     	;# 
  3160  1F3D                     	;# 
  3161  1F3E                     	;# 
  3162  1F3F                     	;# 
  3163  1F43                     	;# 
  3164  1F44                     	;# 
  3165  1F45                     	;# 
  3166  1F46                     	;# 
  3167  1F47                     	;# 
  3168  1F48                     	;# 
  3169  1F49                     	;# 
  3170  1F4A                     	;# 
  3171  1F4E                     	;# 
  3172  1F4F                     	;# 
  3173  1F50                     	;# 
  3174  1F51                     	;# 
  3175  1F52                     	;# 
  3176  1F53                     	;# 
  3177  1F54                     	;# 
  3178  1F55                     	;# 
  3179  1F65                     	;# 
  3180  1F68                     	;# 
  3181  1F69                     	;# 
  3182  1F6A                     	;# 
  3183  1F6B                     	;# 
  3184  1FE4                     	;# 
  3185  1FE5                     	;# 
  3186  1FE6                     	;# 
  3187  1FE7                     	;# 
  3188  1FE8                     	;# 
  3189  1FE8                     	;# 
  3190  1FE9                     	;# 
  3191  1FEA                     	;# 
  3192  1FEB                     	;# 
  3193  1FED                     	;# 
  3194  1FEE                     	;# 
  3195  1FEF                     	;# 
  3196  0014                     _TRISC	set	20
  3197  0013                     _TRISB	set	19
  3198  0012                     _TRISA	set	18
  3199  001A                     _LATC	set	26
  3200  0019                     _LATB	set	25
  3201  0018                     _LATA	set	24
  3202  000B                     _INTCONbits	set	11
  3203  011C                     _SP1BRGH	set	284
  3204  011B                     _SP1BRGL	set	283
  3205  011E                     _TX1STA	set	286
  3206  011D                     _RC1STA	set	285
  3207  011F                     _BAUD1CON	set	287
  3208  0119                     _RC1REG	set	281
  3209  011E                     _TX1STAbits	set	286
  3210  011A                     _TX1REG	set	282
  3211  028D                     _PR2	set	653
  3212  028C                     _TMR2	set	652
  3213  028E                     _T2CONbits	set	654
  3214  0291                     _T2RSTbits	set	657
  3215  028F                     _T2HLTbits	set	655
  3216  028E                     _T2CON	set	654
  3217  028C                     _T2TMR	set	652
  3218  028D                     _T2PR	set	653
  3219  0291                     _T2RST	set	657
  3220  028F                     _T2HLT	set	655
  3221  0290                     _T2CLKCON	set	656
  3222  031C                     _PWM5DCL	set	796
  3223  031D                     _PWM5DCH	set	797
  3224  031E                     _PWM5CON	set	798
  3225  0318                     _PWM4DCL	set	792
  3226  0319                     _PWM4DCH	set	793
  3227  031A                     _PWM4CON	set	794
  3228  0314                     _PWM3DCL	set	788
  3229  0315                     _PWM3DCH	set	789
  3230  0316                     _PWM3CON	set	790
  3231  0710                     _PIR4bits	set	1808
  3232  0719                     _PIE3bits	set	1817
  3233  070F                     _PIR3bits	set	1807
  3234  079B                     _PMD5	set	1947
  3235  079A                     _PMD4	set	1946
  3236  0799                     _PMD3	set	1945
  3237  0798                     _PMD2	set	1944
  3238  0797                     _PMD1	set	1943
  3239  0796                     _PMD0	set	1942
  3240  0892                     _OSCTUNE	set	2194
  3241  0890                     _OSCSTAT	set	2192
  3242  0893                     _OSCFRQ	set	2195
  3243  0891                     _OSCEN	set	2193
  3244  088F                     _OSCCON3	set	2191
  3245  088D                     _OSCCON1	set	2189
  3246  4480                     _PLLR	set	17536
  3247  1ECB                     _RX1DTPPS	set	7883
  3248  1F26                     _RC6PPS	set	7974
  3249  1F22                     _RC2PPS	set	7970
  3250  1F21                     _RC1PPS	set	7969
  3251  1F20                     _RC0PPS	set	7968
  3252  1F68                     _INLVLE	set	8040
  3253  1F52                     _INLVLC	set	8018
  3254  1F47                     _INLVLB	set	8007
  3255  1F3C                     _INLVLA	set	7996
  3256  1F51                     _SLRCONC	set	8017
  3257  1F46                     _SLRCONB	set	8006
  3258  1F3B                     _SLRCONA	set	7995
  3259  1F50                     _ODCONC	set	8016
  3260  1F45                     _ODCONB	set	8005
  3261  1F3A                     _ODCONA	set	7994
  3262  1F4F                     _WPUC	set	8015
  3263  1F39                     _WPUA	set	7993
  3264  1F44                     _WPUB	set	8004
  3265  1F65                     _WPUE	set	8037
  3266  1F38                     _ANSELA	set	7992
  3267  1F43                     _ANSELB	set	8003
  3268  1F4E                     _ANSELC	set	8014
  3269                           
  3270                           	psect	stringtext1
  3271  03F1                     __pstringtext1:	
  3272  03F1                     STR_3:	
  3273  03F1  3452               	retlw	82	;'R'
  3274  03F2  3465               	retlw	101	;'e'
  3275  03F3  3463               	retlw	99	;'c'
  3276  03F4  3465               	retlw	101	;'e'
  3277  03F5  3469               	retlw	105	;'i'
  3278  03F6  3476               	retlw	118	;'v'
  3279  03F7  3465               	retlw	101	;'e'
  3280  03F8  3464               	retlw	100	;'d'
  3281  03F9  3420               	retlw	32	;' '
  3282  03FA  3476               	retlw	118	;'v'
  3283  03FB  3461               	retlw	97	;'a'
  3284  03FC  346C               	retlw	108	;'l'
  3285  03FD  3475               	retlw	117	;'u'
  3286  03FE  3465               	retlw	101	;'e'
  3287  03FF  343A               	retlw	58	;':'
  3288  0400  3420               	retlw	32	;' '
  3289  0401  340D               	retlw	13
  3290  0402  340A               	retlw	10
  3291  0403  3452               	retlw	82	;'R'
  3292  0404  3465               	retlw	101	;'e'
  3293  0405  3464               	retlw	100	;'d'
  3294  0406  343A               	retlw	58	;':'
  3295  0407  3420               	retlw	32	;' '
  3296  0408  3425               	retlw	37	;'%'
  3297  0409  3478               	retlw	120	;'x'
  3298  040A  342C               	retlw	44	;','
  3299  040B  340D               	retlw	13
  3300  040C  340A               	retlw	10
  3301  040D  3447               	retlw	71	;'G'
  3302  040E  3472               	retlw	114	;'r'
  3303  040F  3465               	retlw	101	;'e'
  3304  0410  3465               	retlw	101	;'e'
  3305  0411  346E               	retlw	110	;'n'
  3306  0412  343A               	retlw	58	;':'
  3307  0413  3420               	retlw	32	;' '
  3308  0414  3425               	retlw	37	;'%'
  3309  0415  3478               	retlw	120	;'x'
  3310  0416  342C               	retlw	44	;','
  3311  0417  340D               	retlw	13
  3312  0418  340A               	retlw	10
  3313  0419  3442               	retlw	66	;'B'
  3314  041A  346C               	retlw	108	;'l'
  3315  041B  3475               	retlw	117	;'u'
  3316  041C  3465               	retlw	101	;'e'
  3317  041D  343A               	retlw	58	;':'
  3318  041E  3420               	retlw	32	;' '
  3319  041F  3425               	retlw	37	;'%'
  3320  0420  3478               	retlw	120	;'x'
  3321  0421  340D               	retlw	13
  3322  0422  340A               	retlw	10
  3323  0423  3400               	retlw	0
  3324                           
  3325                           	psect	stringtext2
  3326  04E4                     __pstringtext2:	
  3327  04E4                     STR_2:	
  3328  04E4  3457               	retlw	87	;'W'
  3329  04E5  3461               	retlw	97	;'a'
  3330  04E6  3469               	retlw	105	;'i'
  3331  04E7  3474               	retlw	116	;'t'
  3332  04E8  3469               	retlw	105	;'i'
  3333  04E9  346E               	retlw	110	;'n'
  3334  04EA  3467               	retlw	103	;'g'
  3335  04EB  3420               	retlw	32	;' '
  3336  04EC  3466               	retlw	102	;'f'
  3337  04ED  346F               	retlw	111	;'o'
  3338  04EE  3472               	retlw	114	;'r'
  3339  04EF  3420               	retlw	32	;' '
  3340  04F0  3470               	retlw	112	;'p'
  3341  04F1  3465               	retlw	101	;'e'
  3342  04F2  3472               	retlw	114	;'r'
  3343  04F3  3469               	retlw	105	;'i'
  3344  04F4  346F               	retlw	111	;'o'
  3345  04F5  3464               	retlw	100	;'d'
  3346  04F6  3420               	retlw	32	;' '
  3347  04F7  3428               	retlw	40	;'('
  3348  04F8  3453               	retlw	83	;'S'
  3349  04F9  3474               	retlw	116	;'t'
  3350  04FA  3461               	retlw	97	;'a'
  3351  04FB  3472               	retlw	114	;'r'
  3352  04FC  3474               	retlw	116	;'t'
  3353  04FD  3429               	retlw	41	;')'
  3354  04FE  340D               	retlw	13
  3355  04FF  340A               	retlw	10
  3356  0500  3400               	retlw	0
  3357                           
  3358                           	psect	stringtext3
  3359  05E7                     __pstringtext3:	
  3360  05E7                     STR_1:	
  3361  05E7  346B               	retlw	107	;'k'
  3362  05E8  3465               	retlw	101	;'e'
  3363  05E9  3465               	retlw	101	;'e'
  3364  05EA  3470               	retlw	112	;'p'
  3365  05EB  3420               	retlw	32	;' '
  3366  05EC  3461               	retlw	97	;'a'
  3367  05ED  346C               	retlw	108	;'l'
  3368  05EE  3469               	retlw	105	;'i'
  3369  05EF  3476               	retlw	118	;'v'
  3370  05F0  3465               	retlw	101	;'e'
  3371  05F1  340D               	retlw	13
  3372  05F2  340A               	retlw	10
  3373  05F3  3400               	retlw	0
  3374                           
  3375                           	psect	stringtext4
  3376  0000                     __pstringtext4:	
  3377                           
  3378                           ; #config settings
  3379  0000                     
  3380                           	psect	cinit
  3381  0012                     start_initialization:	
  3382  0012                     __initialization:	
  3383                           
  3384                           ; Clear objects allocated to COMMON
  3385  0012  01FA               	clrf	__pbssCOMMON& (0+127)
  3386  0013  01FB               	clrf	(__pbssCOMMON+1)& (0+127)
  3387                           
  3388                           ; Clear objects allocated to BANK1
  3389  0014  30A0               	movlw	low __pbssBANK1
  3390  0015  0084               	movwf	4
  3391  0016  3000               	movlw	high __pbssBANK1
  3392  0017  0085               	movwf	5
  3393  0018  3020               	movlw	32
  3394  0019  3186  2618  3180   	fcall	clear_ram0
  3395                           
  3396                           ; Clear objects allocated to BANK2
  3397  001C  3020               	movlw	low __pbssBANK2
  3398  001D  0084               	movwf	4
  3399  001E  3001               	movlw	high __pbssBANK2
  3400  001F  0085               	movwf	5
  3401  0020  3020               	movlw	32
  3402  0021  3186  2618  3180   	fcall	clear_ram0
  3403  0024                     end_of_initialization:	
  3404                           ;End of C runtime variable initialization code
  3405                           
  3406  0024                     __end_of__initialization:	
  3407  0024  107E               	bcf	int$flags,0	;clear compiler interrupt flag (level 1)
  3408  0025  0140               	movlb	0
  3409  0026  3182  2A81         	ljmp	_main	;jump to C main() function
  3410                           
  3411                           	psect	bssCOMMON
  3412  007A                     __pbssCOMMON:	
  3413  007A                     _flags:	
  3414  007A                     	ds	2
  3415                           
  3416                           	psect	bssBANK1
  3417  00A0                     __pbssBANK1:	
  3418  00A0                     _UARTBuffer:	
  3419  00A0                     	ds	16
  3420  00B0                     _colorHex:	
  3421  00B0                     	ds	3
  3422  00B3                     _rgb:	
  3423  00B3                     	ds	3
  3424  00B6                     _nout:	
  3425  00B6                     	ds	2
  3426  00B8                     _width:	
  3427  00B8                     	ds	2
  3428  00BA                     _prec:	
  3429  00BA                     	ds	2
  3430  00BC                     _updateRGB:	
  3431  00BC                     	ds	1
  3432  00BD                     _EnterKeyPressed:	
  3433  00BD                     	ds	1
  3434  00BE                     _UARTReceivedByte:	
  3435  00BE                     	ds	1
  3436  00BF                     _UARTBufferIndex:	
  3437  00BF                     	ds	1
  3438                           
  3439                           	psect	bssBANK2
  3440  0120                     __pbssBANK2:	
  3441  0120                     _dbuf:	
  3442  0120                     	ds	32
  3443                           
  3444                           	psect	clrtext
  3445  0618                     clear_ram0:	
  3446                           ;	Called with FSR0 containing the base address, and
  3447                           ;	WREG with the size to clear
  3448                           
  3449  0618  0064               	clrwdt	;clear the watchdog before getting into this loop
  3450  0619                     clrloop0:	
  3451  0619  0180               	clrf	0	;clear RAM location pointed to by FSR
  3452  061A  3101               	addfsr 0,1
  3453  061B  0B89               	decfsz	9,f	;Have we reached the end of clearing yet?
  3454  061C  2E19               	goto	clrloop0	;have we reached the end yet?
  3455  061D  3400               	retlw	0	;all done for this memory range, return
  3456                           
  3457                           	psect	cstackBANK1
  3458  00C0                     __pcstackBANK1:	
  3459  00C0                     vfprintf@fp:	
  3460                           
  3461                           ; 1 bytes @ 0x0
  3462  00C0                     	ds	1
  3463  00C1                     vfprintf@cfmt:	
  3464                           
  3465                           ; 2 bytes @ 0x1
  3466  00C1                     	ds	2
  3467  00C3                     ?_printf:	
  3468  00C3                     printf@fmt:	
  3469                           ; 2 bytes @ 0x3
  3470                           
  3471                           
  3472                           ; 2 bytes @ 0x3
  3473  00C3                     	ds	10
  3474  00CD                     printf@ap:	
  3475                           
  3476                           ; 1 bytes @ 0xD
  3477  00CD                     	ds	1
  3478  00CE                     ??_main:	
  3479                           
  3480                           ; 1 bytes @ 0xE
  3481  00CE                     	ds	6
  3482                           
  3483                           	psect	cstackCOMMON
  3484  0070                     __pcstackCOMMON:	
  3485  0070                     ?_PMD_Initialize:	
  3486  0070                     ?_PIN_MANAGER_Initialize:	
  3487                           ; 1 bytes @ 0x0
  3488                           
  3489  0070                     ?_OSCILLATOR_Initialize:	
  3490                           ; 1 bytes @ 0x0
  3491                           
  3492  0070                     ?_PWM4_Initialize:	
  3493                           ; 1 bytes @ 0x0
  3494                           
  3495  0070                     ?_PWM3_Initialize:	
  3496                           ; 1 bytes @ 0x0
  3497                           
  3498  0070                     ?_PWM5_Initialize:	
  3499                           ; 1 bytes @ 0x0
  3500                           
  3501  0070                     ?_TMR2_Initialize:	
  3502                           ; 1 bytes @ 0x0
  3503                           
  3504  0070                     ?_EUSART1_Initialize:	
  3505                           ; 1 bytes @ 0x0
  3506                           
  3507  0070                     ?_echo:	
  3508                           ; 1 bytes @ 0x0
  3509                           
  3510  0070                     ??_echo:	
  3511                           ; 1 bytes @ 0x0
  3512                           
  3513  0070                     ?_UART_Rx_IntHandler:	
  3514                           ; 1 bytes @ 0x0
  3515                           
  3516  0070                     ?_Interrupt_Handler:	
  3517                           ; 1 bytes @ 0x0
  3518                           
  3519  0070                     ?_SYSTEM_Initialize:	
  3520                           ; 1 bytes @ 0x0
  3521                           
  3522  0070                     ?_putch:	
  3523                           ; 1 bytes @ 0x0
  3524                           
  3525  0070                     ?_isDataAvailable:	
  3526                           ; 1 bytes @ 0x0
  3527                           
  3528  0070                     ?_main:	
  3529                           ; 1 bytes @ 0x0
  3530                           
  3531  0070                     echo@byte:	
  3532                           ; 1 bytes @ 0x0
  3533                           
  3534                           
  3535                           ; 1 bytes @ 0x0
  3536  0070                     	ds	1
  3537  0071                     ??_UART_Rx_IntHandler:	
  3538                           
  3539                           ; 1 bytes @ 0x1
  3540  0071                     	ds	1
  3541  0072                     ??_PMD_Initialize:	
  3542  0072                     ??_PIN_MANAGER_Initialize:	
  3543                           ; 1 bytes @ 0x2
  3544                           
  3545  0072                     ??_OSCILLATOR_Initialize:	
  3546                           ; 1 bytes @ 0x2
  3547                           
  3548  0072                     ??_PWM4_Initialize:	
  3549                           ; 1 bytes @ 0x2
  3550                           
  3551  0072                     ??_PWM3_Initialize:	
  3552                           ; 1 bytes @ 0x2
  3553                           
  3554  0072                     ??_PWM5_Initialize:	
  3555                           ; 1 bytes @ 0x2
  3556                           
  3557  0072                     ??_TMR2_Initialize:	
  3558                           ; 1 bytes @ 0x2
  3559                           
  3560  0072                     ??_EUSART1_Initialize:	
  3561                           ; 1 bytes @ 0x2
  3562                           
  3563  0072                     ??_Interrupt_Handler:	
  3564                           ; 1 bytes @ 0x2
  3565                           
  3566  0072                     ??_SYSTEM_Initialize:	
  3567                           ; 1 bytes @ 0x2
  3568                           
  3569  0072                     ??_putch:	
  3570                           ; 1 bytes @ 0x2
  3571                           
  3572  0072                     ?_PWM3_LoadDutyValue:	
  3573                           ; 1 bytes @ 0x2
  3574                           
  3575  0072                     ?_PWM4_LoadDutyValue:	
  3576                           ; 1 bytes @ 0x2
  3577                           
  3578  0072                     ?_PWM5_LoadDutyValue:	
  3579                           ; 1 bytes @ 0x2
  3580                           
  3581  0072                     ??_isDataAvailable:	
  3582                           ; 1 bytes @ 0x2
  3583                           
  3584  0072                     ?_strlen:	
  3585                           ; 1 bytes @ 0x2
  3586                           
  3587  0072                     ?_isupper:	
  3588                           ; 2 bytes @ 0x2
  3589                           
  3590  0072                     ?_isalpha:	
  3591                           ; 2 bytes @ 0x2
  3592                           
  3593  0072                     ?_islower:	
  3594                           ; 2 bytes @ 0x2
  3595                           
  3596  0072                     putch@txData:	
  3597                           ; 2 bytes @ 0x2
  3598                           
  3599  0072                     PWM3_LoadDutyValue@dutyValue:	
  3600                           ; 1 bytes @ 0x2
  3601                           
  3602  0072                     PWM4_LoadDutyValue@dutyValue:	
  3603                           ; 2 bytes @ 0x2
  3604                           
  3605  0072                     PWM5_LoadDutyValue@dutyValue:	
  3606                           ; 2 bytes @ 0x2
  3607                           
  3608  0072                     isalpha@c:	
  3609                           ; 2 bytes @ 0x2
  3610                           
  3611  0072                     isupper@c:	
  3612                           ; 2 bytes @ 0x2
  3613                           
  3614  0072                     islower@c:	
  3615                           ; 2 bytes @ 0x2
  3616                           
  3617                           
  3618                           ; 2 bytes @ 0x2
  3619  0072                     	ds	1
  3620  0073                     ?_fputc:	
  3621  0073                     fputc@c:	
  3622                           ; 2 bytes @ 0x3
  3623                           
  3624                           
  3625                           ; 2 bytes @ 0x3
  3626  0073                     	ds	1
  3627  0074                     ??_strlen:	
  3628  0074                     ??_isupper:	
  3629                           ; 1 bytes @ 0x4
  3630                           
  3631  0074                     ??_isalpha:	
  3632                           ; 1 bytes @ 0x4
  3633                           
  3634  0074                     ??_islower:	
  3635                           ; 1 bytes @ 0x4
  3636                           
  3637  0074                     ??_PWM3_LoadDutyValue:	
  3638                           ; 1 bytes @ 0x4
  3639                           
  3640  0074                     ??_PWM4_LoadDutyValue:	
  3641                           ; 1 bytes @ 0x4
  3642                           
  3643  0074                     ??_PWM5_LoadDutyValue:	
  3644                           ; 1 bytes @ 0x4
  3645                           
  3646                           
  3647                           ; 1 bytes @ 0x4
  3648  0074                     	ds	1
  3649  0075                     fputc@fp:	
  3650  0075                     strlen@a:	
  3651                           ; 1 bytes @ 0x5
  3652                           
  3653                           
  3654                           ; 1 bytes @ 0x5
  3655  0075                     	ds	1
  3656  0076                     ?_fputs:	
  3657  0076                     fputs@fp:	
  3658                           ; 2 bytes @ 0x6
  3659                           
  3660  0076                     strlen@s:	
  3661                           ; 1 bytes @ 0x6
  3662                           
  3663                           
  3664                           ; 1 bytes @ 0x6
  3665  0076                     	ds	1
  3666  0077                     ??_fputs:	
  3667                           
  3668                           ; 1 bytes @ 0x7
  3669  0077                     	ds	1
  3670  0078                     ?_toupper:	
  3671  0078                     toupper@c:	
  3672                           ; 2 bytes @ 0x8
  3673                           
  3674                           
  3675                           ; 2 bytes @ 0x8
  3676  0078                     	ds	2
  3677                           
  3678                           	psect	cstackBANK0
  3679  0020                     __pcstackBANK0:	
  3680  0020                     ??_fputc:	
  3681  0020                     ??_toupper:	
  3682                           ; 1 bytes @ 0x0
  3683                           
  3684                           
  3685                           ; 1 bytes @ 0x0
  3686  0020                     	ds	4
  3687  0024                     _toupper$1006:	
  3688                           
  3689                           ; 2 bytes @ 0x4
  3690  0024                     	ds	1
  3691  0025                     fputs@c:	
  3692                           
  3693                           ; 1 bytes @ 0x5
  3694  0025                     	ds	1
  3695  0026                     fputs@i:	
  3696                           
  3697                           ; 2 bytes @ 0x6
  3698  0026                     	ds	2
  3699  0028                     fputs@s:	
  3700                           
  3701                           ; 1 bytes @ 0x8
  3702  0028                     	ds	1
  3703  0029                     ?_pad:	
  3704  0029                     pad@buf:	
  3705                           ; 2 bytes @ 0x9
  3706                           
  3707                           
  3708                           ; 1 bytes @ 0x9
  3709  0029                     	ds	1
  3710  002A                     pad@p:	
  3711                           
  3712                           ; 2 bytes @ 0xA
  3713  002A                     	ds	2
  3714  002C                     ??_pad:	
  3715                           
  3716                           ; 1 bytes @ 0xC
  3717  002C                     	ds	1
  3718  002D                     pad@i:	
  3719                           
  3720                           ; 2 bytes @ 0xD
  3721  002D                     	ds	2
  3722  002F                     pad@w:	
  3723                           
  3724                           ; 2 bytes @ 0xF
  3725  002F                     	ds	2
  3726  0031                     pad@fp:	
  3727                           
  3728                           ; 1 bytes @ 0x11
  3729  0031                     	ds	1
  3730  0032                     ?_xtoa:	
  3731  0032                     xtoa@d:	
  3732                           ; 2 bytes @ 0x12
  3733                           
  3734                           
  3735                           ; 8 bytes @ 0x12
  3736  0032                     	ds	8
  3737  003A                     xtoa@x:	
  3738                           
  3739                           ; 1 bytes @ 0x1A
  3740  003A                     	ds	1
  3741  003B                     ??_xtoa:	
  3742                           
  3743                           ; 1 bytes @ 0x1B
  3744  003B                     	ds	8
  3745  0043                     _xtoa$638:	
  3746                           
  3747                           ; 2 bytes @ 0x23
  3748  0043                     	ds	2
  3749  0045                     _xtoa$639:	
  3750                           
  3751                           ; 2 bytes @ 0x25
  3752  0045                     	ds	2
  3753  0047                     xtoa@fp:	
  3754                           
  3755                           ; 1 bytes @ 0x27
  3756  0047                     	ds	1
  3757  0048                     xtoa@p:	
  3758                           
  3759                           ; 2 bytes @ 0x28
  3760  0048                     	ds	2
  3761  004A                     xtoa@w:	
  3762                           
  3763                           ; 2 bytes @ 0x2A
  3764  004A                     	ds	2
  3765  004C                     xtoa@n:	
  3766                           
  3767                           ; 8 bytes @ 0x2C
  3768  004C                     	ds	8
  3769  0054                     xtoa@i:	
  3770                           
  3771                           ; 2 bytes @ 0x34
  3772  0054                     	ds	2
  3773  0056                     xtoa@c:	
  3774                           
  3775                           ; 2 bytes @ 0x36
  3776  0056                     	ds	2
  3777  0058                     ?_vfpfcnvrt:	
  3778  0058                     vfpfcnvrt@fmt:	
  3779                           ; 2 bytes @ 0x38
  3780                           
  3781                           
  3782                           ; 1 bytes @ 0x38
  3783  0058                     	ds	1
  3784  0059                     vfpfcnvrt@ap:	
  3785                           
  3786                           ; 1 bytes @ 0x39
  3787  0059                     	ds	1
  3788  005A                     ??_vfpfcnvrt:	
  3789                           
  3790                           ; 1 bytes @ 0x3A
  3791  005A                     	ds	5
  3792  005F                     vfpfcnvrt@llu:	
  3793                           
  3794                           ; 8 bytes @ 0x3F
  3795  005F                     	ds	8
  3796  0067                     vfpfcnvrt@c:	
  3797                           
  3798                           ; 1 bytes @ 0x47
  3799  0067                     	ds	1
  3800  0068                     vfpfcnvrt@fp:	
  3801                           
  3802                           ; 1 bytes @ 0x48
  3803  0068                     	ds	1
  3804  0069                     ?_vfprintf:	
  3805  0069                     vfprintf@fmt:	
  3806                           ; 2 bytes @ 0x49
  3807                           
  3808                           
  3809                           ; 2 bytes @ 0x49
  3810  0069                     	ds	2
  3811  006B                     vfprintf@ap:	
  3812                           
  3813                           ; 1 bytes @ 0x4B
  3814  006B                     	ds	1
  3815  006C                     ??_vfprintf:	
  3816                           
  3817                           ; 1 bytes @ 0x4C
  3818  006C                     	ds	2
  3819  006E                     ??_printf:	
  3820                           
  3821                           ; 1 bytes @ 0x4E
  3822  006E                     	ds	1
  3823  006F                     main@state:	
  3824                           
  3825                           ; 1 bytes @ 0x4F
  3826  006F                     	ds	1
  3827                           
  3828                           	psect	maintext
  3829  0281                     __pmaintext:	
  3830 ;;
  3831 ;;Main: autosize = 0, tempsize = 6, incstack = 0, save=0
  3832 ;;
  3833 ;; *************** function _main *****************
  3834 ;; Defined at:
  3835 ;;		line 67 in file "main.c"
  3836 ;; Parameters:    Size  Location     Type
  3837 ;;		None
  3838 ;; Auto vars:     Size  Location     Type
  3839 ;;  state           1   79[BANK0 ] unsigned char 
  3840 ;; Return value:  Size  Location     Type
  3841 ;;                  1    wreg      void 
  3842 ;; Registers used:
  3843 ;;		wreg, fsr0l, fsr0h, fsr1l, fsr1h, status,2, status,0, pclath, cstack
  3844 ;; Tracked objects:
  3845 ;;		On entry : B3F/0
  3846 ;;		On exit  : 0/0
  3847 ;;		Unchanged: 0/0
  3848 ;; Data sizes:     COMMON   BANK0   BANK1   BANK2   BANK3   BANK4   BANK5   BANK6   BANK7   BANK8   BANK9  BANK10  BANK1
      +1  BANK12  BANK13  BANK14  BANK15  BANK16  BANK17  BANK18  BANK19  BANK20  BANK21  BANK22  BANK23  BANK24  BANK25
  3849 ;;      Params:         0       0       0       0       0       0       0       0       0       0       0       0       
      +0       0       0       0       0       0       0       0       0       0       0       0       0       0       0
  3850 ;;      Locals:         0       1       0       0       0       0       0       0       0       0       0       0       
      +0       0       0       0       0       0       0       0       0       0       0       0       0       0       0
  3851 ;;      Temps:          0       0       6       0       0       0       0       0       0       0       0       0       
      +0       0       0       0       0       0       0       0       0       0       0       0       0       0       0
  3852 ;;      Totals:         0       1       6       0       0       0       0       0       0       0       0       0       
      +0       0       0       0       0       0       0       0       0       0       0       0       0       0       0
  3853 ;;Total ram usage:        7 bytes
  3854 ;; Hardware stack levels required when called:   11
  3855 ;; This function calls:
  3856 ;;		_PWM3_LoadDutyValue
  3857 ;;		_PWM4_LoadDutyValue
  3858 ;;		_PWM5_LoadDutyValue
  3859 ;;		_SYSTEM_Initialize
  3860 ;;		_isDataAvailable
  3861 ;;		_printf
  3862 ;; This function is called by:
  3863 ;;		Startup code after reset
  3864 ;; This function uses a non-reentrant model
  3865 ;;
  3866                           
  3867                           
  3868                           ;psect for function _main
  3869  0281                     _main:	
  3870  0281                     l2179:	
  3871                           ;incstack = 0
  3872                           ; Regs used in _main: [wreg-fsr1h+status,2+status,0+pclath+cstack]
  3873                           
  3874                           
  3875                           ;main.c: 69:     uint8_t state = 0;
  3876  0281  0140               	movlb	0	; select bank0
  3877  0282  01EF               	clrf	main@state
  3878  0283                     l2181:	
  3879                           
  3880                           ;main.c: 72:     SYSTEM_Initialize();
  3881  0283  3185  251B  3182   	fcall	_SYSTEM_Initialize
  3882  0286                     l2183:	
  3883                           
  3884                           ;main.c: 75:     {;main.c: 77:         printf("keep alive\r\n");
  3885  0286  30E7               	movlw	low (STR_1| (0+32768))
  3886  0287  0141               	movlb	1	; select bank1
  3887  0288  00C3               	movwf	printf@fmt^(0+128)
  3888  0289  3085               	movlw	high (STR_1| (0+32768))
  3889  028A  00C4               	movwf	(printf@fmt^(0+128)+1)
  3890  028B  3185  2564  3182   	fcall	_printf
  3891  028E                     l2185:	
  3892                           
  3893                           ;main.c: 78:         UARTReceivedByte = 0;
  3894  028E  0141               	movlb	1	; select bank1
  3895  028F  01BE               	clrf	_UARTReceivedByte^(0+128)
  3896                           
  3897                           ;main.c: 80:         switch(state)
  3898  0290  2B0A               	goto	l2219
  3899  0291                     l2187:	
  3900                           
  3901                           ;main.c: 83:             {;main.c: 85:                 printf("Waiting for period (Start
      +                          )\r\n");
  3902  0291  30E4               	movlw	low (STR_2| (0+32768))
  3903  0292  00C3               	movwf	printf@fmt^(0+128)
  3904  0293  3084               	movlw	high (STR_2| (0+32768))
  3905  0294  00C4               	movwf	(printf@fmt^(0+128)+1)
  3906  0295  3185  2564  3182   	fcall	_printf
  3907                           
  3908                           ;main.c: 86:                 while(UARTReceivedByte != '.')
  3909  0298  2AA5               	goto	l2193
  3910  0299                     l2189:	
  3911                           
  3912                           ;main.c: 87:                 {;main.c: 88:                     UARTReceivedByte = isData
      +                          Available();
  3913  0299  3185  25FE  3182   	fcall	_isDataAvailable
  3914  029C  0141               	movlb	1	; select bank1
  3915  029D  00CE               	movwf	??_main^(0+128)
  3916  029E  084E               	movf	??_main^(0+128),w
  3917  029F  00BE               	movwf	_UARTReceivedByte^(0+128)
  3918  02A0                     l2191:	
  3919                           
  3920                           ;main.c: 89:                     state++;
  3921  02A0  3001               	movlw	1
  3922  02A1  00CE               	movwf	??_main^(0+128)
  3923  02A2  084E               	movf	??_main^(0+128),w
  3924  02A3  0140               	movlb	0	; select bank0
  3925  02A4  07EF               	addwf	main@state,f
  3926  02A5                     l2193:	
  3927                           
  3928                           ;main.c: 86:                 while(UARTReceivedByte != '.')
  3929  02A5  302E               	movlw	46
  3930  02A6  0141               	movlb	1	; select bank1
  3931  02A7  063E               	xorwf	_UARTReceivedByte^(0+128),w
  3932  02A8  1D03               	btfss	3,2
  3933  02A9  2AAB               	goto	u1511
  3934  02AA  2AAC               	goto	u1510
  3935  02AB                     u1511:	
  3936  02AB  2A99               	goto	l2189
  3937  02AC                     u1510:	
  3938  02AC  2A86               	goto	l2183
  3939  02AD                     l2195:	
  3940                           
  3941                           ;main.c: 94:             {;main.c: 96:                 rgb.red = isDataAvailable();
  3942  02AD  3185  25FE  3182   	fcall	_isDataAvailable
  3943  02B0  0141               	movlb	1	; select bank1
  3944  02B1  00CE               	movwf	??_main^(0+128)
  3945  02B2  084E               	movf	??_main^(0+128),w
  3946  02B3  00B3               	movwf	_rgb^(0+128)
  3947  02B4                     l2197:	
  3948                           
  3949                           ;main.c: 97:                 state++;
  3950  02B4  3001               	movlw	1
  3951  02B5  00CE               	movwf	??_main^(0+128)
  3952  02B6  084E               	movf	??_main^(0+128),w
  3953  02B7  0140               	movlb	0	; select bank0
  3954  02B8  07EF               	addwf	main@state,f
  3955                           
  3956                           ;main.c: 98:                 break;
  3957  02B9  2A86               	goto	l2183
  3958  02BA                     l2199:	
  3959                           
  3960                           ;main.c: 101:             {;main.c: 103:                 rgb.grn = isDataAvailable();
  3961  02BA  3185  25FE  3182   	fcall	_isDataAvailable
  3962  02BD  0141               	movlb	1	; select bank1
  3963  02BE  00CE               	movwf	??_main^(0+128)
  3964  02BF  084E               	movf	??_main^(0+128),w
  3965  02C0  00B4               	movwf	(_rgb^(0+128)+1)
  3966  02C1  2AB4               	goto	l2197
  3967  02C2                     l2203:	
  3968                           
  3969                           ;main.c: 108:             {;main.c: 110:                 rgb.blu = isDataAvailable();
  3970  02C2  3185  25FE  3182   	fcall	_isDataAvailable
  3971  02C5  0141               	movlb	1	; select bank1
  3972  02C6  00CE               	movwf	??_main^(0+128)
  3973  02C7  084E               	movf	??_main^(0+128),w
  3974  02C8  00B5               	movwf	(_rgb^(0+128)+2)
  3975  02C9  2AB4               	goto	l2197
  3976  02CA                     l2207:	
  3977                           
  3978                           ;main.c: 115:             {;main.c: 117:                 printf("Received value: \r\n"
  3979  02CA  30F1               	movlw	low (STR_3| (0+32768))
  3980  02CB  00C3               	movwf	printf@fmt^(0+128)
  3981  02CC  3083               	movlw	high (STR_3| (0+32768))
  3982  02CD  00C4               	movwf	(printf@fmt^(0+128)+1)
  3983  02CE  0833               	movf	_rgb^(0+128),w
  3984  02CF  00CE               	movwf	??_main^(0+128)
  3985  02D0  01CF               	clrf	(??_main^(0+128)+1)
  3986  02D1  084E               	movf	??_main^(0+128),w
  3987  02D2  00C5               	movwf	(?_printf^(0+128)+2)
  3988  02D3  084F               	movf	(??_main+1)^(0+128),w
  3989  02D4  00C6               	movwf	((?_printf+1)^(0+128)+2)
  3990  02D5  0834               	movf	(_rgb^(0+128)+1),w
  3991  02D6  00D0               	movwf	(??_main+2)^(0+128)
  3992  02D7  01D1               	clrf	((??_main+2)^(0+128)+1)
  3993  02D8  0850               	movf	(??_main+2)^(0+128),w
  3994  02D9  00C7               	movwf	(?_printf^(0+128)+4)
  3995  02DA  0851               	movf	(??_main+3)^(0+128),w
  3996  02DB  00C8               	movwf	((?_printf+1)^(0+128)+4)
  3997  02DC  0835               	movf	(_rgb^(0+128)+2),w
  3998  02DD  00D2               	movwf	(??_main+4)^(0+128)
  3999  02DE  01D3               	clrf	((??_main+4)^(0+128)+1)
  4000  02DF  0852               	movf	(??_main+4)^(0+128),w
  4001  02E0  00C9               	movwf	(?_printf^(0+128)+6)
  4002  02E1  0853               	movf	(??_main+5)^(0+128),w
  4003  02E2  00CA               	movwf	((?_printf+1)^(0+128)+6)
  4004  02E3  3185  2564  3182   	fcall	_printf
  4005  02E6                     l2209:	
  4006                           
  4007                           ;main.c: 122:                 PWM3_LoadDutyValue(rgb.red);
  4008  02E6  0141               	movlb	1	; select bank1
  4009  02E7  0833               	movf	_rgb^(0+128),w
  4010  02E8  00CE               	movwf	??_main^(0+128)
  4011  02E9  01CF               	clrf	(??_main^(0+128)+1)
  4012  02EA  084E               	movf	??_main^(0+128),w
  4013  02EB  00F2               	movwf	PWM3_LoadDutyValue@dutyValue
  4014  02EC  084F               	movf	(??_main+1)^(0+128),w
  4015  02ED  00F3               	movwf	PWM3_LoadDutyValue@dutyValue+1
  4016  02EE  3185  25A6  3182   	fcall	_PWM3_LoadDutyValue
  4017  02F1                     l2211:	
  4018                           
  4019                           ;main.c: 123:                 PWM4_LoadDutyValue(rgb.grn);
  4020  02F1  0141               	movlb	1	; select bank1
  4021  02F2  0834               	movf	(_rgb^(0+128)+1),w
  4022  02F3  00CE               	movwf	??_main^(0+128)
  4023  02F4  01CF               	clrf	(??_main^(0+128)+1)
  4024  02F5  084E               	movf	??_main^(0+128),w
  4025  02F6  00F2               	movwf	PWM4_LoadDutyValue@dutyValue
  4026  02F7  084F               	movf	(??_main+1)^(0+128),w
  4027  02F8  00F3               	movwf	PWM4_LoadDutyValue@dutyValue+1
  4028  02F9  3185  2590  3182   	fcall	_PWM4_LoadDutyValue
  4029  02FC                     l2213:	
  4030                           
  4031                           ;main.c: 124:                 PWM5_LoadDutyValue(rgb.blu);
  4032  02FC  0141               	movlb	1	; select bank1
  4033  02FD  0835               	movf	(_rgb^(0+128)+2),w
  4034  02FE  00CE               	movwf	??_main^(0+128)
  4035  02FF  01CF               	clrf	(??_main^(0+128)+1)
  4036  0300  084E               	movf	??_main^(0+128),w
  4037  0301  00F2               	movwf	PWM5_LoadDutyValue@dutyValue
  4038  0302  084F               	movf	(??_main+1)^(0+128),w
  4039  0303  00F3               	movwf	PWM5_LoadDutyValue@dutyValue+1
  4040  0304  3185  257A  3182   	fcall	_PWM5_LoadDutyValue
  4041  0307                     l2215:	
  4042                           
  4043                           ;main.c: 125:                 state = 0;
  4044  0307  0140               	movlb	0	; select bank0
  4045  0308  01EF               	clrf	main@state
  4046                           
  4047                           ;main.c: 126:                 break;
  4048  0309  2A86               	goto	l2183
  4049  030A                     l2219:	
  4050  030A  0140               	movlb	0	; select bank0
  4051  030B  086F               	movf	main@state,w
  4052  030C  0141               	movlb	1	; select bank1
  4053  030D  00CE               	movwf	??_main^(0+128)
  4054  030E  01CF               	clrf	(??_main^(0+128)+1)
  4055                           
  4056                           ; Switch on 2 bytes has been partitioned into a top level switch of size 1, and 1 sub-sw
      +                          itches
  4057                           ; Switch size 1, requested type "simple"
  4058                           ; Number of cases is 1, Range of values is 0 to 0
  4059                           ; switch strategies available:
  4060                           ; Name         Instructions Cycles
  4061                           ; simple_byte            4     3 (average)
  4062                           ; direct_byte            8     6 (fixed)
  4063                           ; jumptable            260     6 (fixed)
  4064                           ;	Chosen strategy is simple_byte
  4065  030F  084F               	movf	(??_main+1)^(0+128),w
  4066  0310  3A00               	xorlw	0	; case 0
  4067  0311  1903               	skipnz
  4068  0312  2B14               	goto	l2257
  4069  0313  2A86               	goto	l2183
  4070  0314                     l2257:	
  4071                           
  4072                           ; Switch size 1, requested type "simple"
  4073                           ; Number of cases is 5, Range of values is 0 to 4
  4074                           ; switch strategies available:
  4075                           ; Name         Instructions Cycles
  4076                           ; direct_byte           16     6 (fixed)
  4077                           ; simple_byte           16     9 (average)
  4078                           ; jumptable            260     6 (fixed)
  4079                           ;	Chosen strategy is simple_byte
  4080  0314  084E               	movf	??_main^(0+128),w
  4081  0315  3A00               	xorlw	0	; case 0
  4082  0316  1903               	skipnz
  4083  0317  2A91               	goto	l2187
  4084  0318  3A01               	xorlw	1	; case 1
  4085  0319  1903               	skipnz
  4086  031A  2AAD               	goto	l2195
  4087  031B  3A03               	xorlw	3	; case 2
  4088  031C  1903               	skipnz
  4089  031D  2ABA               	goto	l2199
  4090  031E  3A01               	xorlw	1	; case 3
  4091  031F  1903               	skipnz
  4092  0320  2AC2               	goto	l2203
  4093  0321  3A07               	xorlw	7	; case 4
  4094  0322  1903               	skipnz
  4095  0323  2ACA               	goto	l2207
  4096  0324  2A86               	goto	l2183
  4097  0325  3180  2810         	ljmp	start
  4098  0327                     __end_of_main:	
  4099                           
  4100                           	psect	text1
  4101  0564                     __ptext1:	
  4102 ;; *************** function _printf *****************
  4103 ;; Defined at:
  4104 ;;		line 5 in file "D:\Program Files (x86)\Microchip\xc8\v2.10\pic\sources\c99\common\printf.c"
  4105 ;; Parameters:    Size  Location     Type
  4106 ;;  fmt             2    3[BANK1 ] PTR const unsigned char 
  4107 ;;		 -> STR_3(51), STR_2(29), STR_1(13), 
  4108 ;; Auto vars:     Size  Location     Type
  4109 ;;  ret             2    0        int 
  4110 ;;  ap              1   13[BANK1 ] PTR void [1]
  4111 ;;		 -> ?_printf(2), 
  4112 ;; Return value:  Size  Location     Type
  4113 ;;                  2    3[BANK1 ] int 
  4114 ;; Registers used:
  4115 ;;		wreg, fsr0l, fsr0h, fsr1l, fsr1h, status,2, status,0, pclath, cstack
  4116 ;; Tracked objects:
  4117 ;;		On entry : 0/0
  4118 ;;		On exit  : 0/0
  4119 ;;		Unchanged: 0/0
  4120 ;; Data sizes:     COMMON   BANK0   BANK1   BANK2   BANK3   BANK4   BANK5   BANK6   BANK7   BANK8   BANK9  BANK10  BANK1
      +1  BANK12  BANK13  BANK14  BANK15  BANK16  BANK17  BANK18  BANK19  BANK20  BANK21  BANK22  BANK23  BANK24  BANK25
  4121 ;;      Params:         0       0       8       0       0       0       0       0       0       0       0       0       
      +0       0       0       0       0       0       0       0       0       0       0       0       0       0       0
  4122 ;;      Locals:         0       0       3       0       0       0       0       0       0       0       0       0       
      +0       0       0       0       0       0       0       0       0       0       0       0       0       0       0
  4123 ;;      Temps:          0       1       0       0       0       0       0       0       0       0       0       0       
      +0       0       0       0       0       0       0       0       0       0       0       0       0       0       0
  4124 ;;      Totals:         0       1      11       0       0       0       0       0       0       0       0       0       
      +0       0       0       0       0       0       0       0       0       0       0       0       0       0       0
  4125 ;;Total ram usage:       12 bytes
  4126 ;; Hardware stack levels used:    1
  4127 ;; Hardware stack levels required when called:   10
  4128 ;; This function calls:
  4129 ;;		_vfprintf
  4130 ;; This function is called by:
  4131 ;;		_main
  4132 ;; This function uses a non-reentrant model
  4133 ;;
  4134                           
  4135                           
  4136                           ;psect for function _printf
  4137  0564                     _printf:	
  4138  0564                     l2173:	
  4139                           ;incstack = 0
  4140                           ; Regs used in _printf: [wreg-fsr1h+status,2+status,0+pclath+cstack]
  4141                           
  4142  0564  30C5               	movlw	(low ((?_printf| 0+2)))& (0+255)
  4143  0565  0140               	movlb	0	; select bank0
  4144  0566  00EE               	movwf	??_printf
  4145  0567  086E               	movf	??_printf,w
  4146  0568  0141               	movlb	1	; select bank1
  4147  0569  00CD               	movwf	printf@ap^(0+128)
  4148  056A                     l2175:	
  4149  056A  0844               	movf	(printf@fmt+1)^(0+128),w
  4150  056B  0140               	movlb	0	; select bank0
  4151  056C  00EA               	movwf	vfprintf@fmt+1
  4152  056D  0141               	movlb	1	; select bank1
  4153  056E  0843               	movf	printf@fmt^(0+128),w
  4154  056F  0140               	movlb	0	; select bank0
  4155  0570  00E9               	movwf	vfprintf@fmt
  4156  0571  30CD               	movlw	(low (printf@ap| 0))& (0+255)
  4157  0572  00EE               	movwf	??_printf
  4158  0573  086E               	movf	??_printf,w
  4159  0574  00EB               	movwf	vfprintf@ap
  4160  0575  3000               	movlw	0
  4161  0576  3183  23BD  3185   	fcall	_vfprintf
  4162  0579                     l974:	
  4163  0579  0008               	return
  4164  057A                     __end_of_printf:	
  4165                           
  4166                           	psect	text2
  4167  03BD                     __ptext2:	
  4168 ;; *************** function _vfprintf *****************
  4169 ;; Defined at:
  4170 ;;		line 1368 in file "D:\Program Files (x86)\Microchip\xc8\v2.10\pic\sources\c99\common\doprnt.c"
  4171 ;; Parameters:    Size  Location     Type
  4172 ;;  fp              1    wreg     PTR struct _IO_FILE
  4173 ;;		 -> NULL(0), 
  4174 ;;  fmt             2   73[BANK0 ] PTR const unsigned char 
  4175 ;;		 -> STR_3(51), STR_2(29), STR_1(13), 
  4176 ;;  ap              1   75[BANK0 ] PTR PTR void 
  4177 ;;		 -> printf@ap(1), 
  4178 ;; Auto vars:     Size  Location     Type
  4179 ;;  fp              1    0[BANK1 ] PTR struct _IO_FILE
  4180 ;;		 -> NULL(0), 
  4181 ;;  cfmt            2    1[BANK1 ] PTR unsigned char 
  4182 ;;		 -> STR_3(51), STR_2(29), STR_1(13), 
  4183 ;; Return value:  Size  Location     Type
  4184 ;;                  2   73[BANK0 ] int 
  4185 ;; Registers used:
  4186 ;;		wreg, fsr0l, fsr0h, fsr1l, fsr1h, status,2, status,0, pclath, cstack
  4187 ;; Tracked objects:
  4188 ;;		On entry : 0/0
  4189 ;;		On exit  : 0/0
  4190 ;;		Unchanged: 0/0
  4191 ;; Data sizes:     COMMON   BANK0   BANK1   BANK2   BANK3   BANK4   BANK5   BANK6   BANK7   BANK8   BANK9  BANK10  BANK1
      +1  BANK12  BANK13  BANK14  BANK15  BANK16  BANK17  BANK18  BANK19  BANK20  BANK21  BANK22  BANK23  BANK24  BANK25
  4192 ;;      Params:         0       3       0       0       0       0       0       0       0       0       0       0       
      +0       0       0       0       0       0       0       0       0       0       0       0       0       0       0
  4193 ;;      Locals:         0       0       3       0       0       0       0       0       0       0       0       0       
      +0       0       0       0       0       0       0       0       0       0       0       0       0       0       0
  4194 ;;      Temps:          0       2       0       0       0       0       0       0       0       0       0       0       
      +0       0       0       0       0       0       0       0       0       0       0       0       0       0       0
  4195 ;;      Totals:         0       5       3       0       0       0       0       0       0       0       0       0       
      +0       0       0       0       0       0       0       0       0       0       0       0       0       0       0
  4196 ;;Total ram usage:        8 bytes
  4197 ;; Hardware stack levels used:    1
  4198 ;; Hardware stack levels required when called:    9
  4199 ;; This function calls:
  4200 ;;		_vfpfcnvrt
  4201 ;; This function is called by:
  4202 ;;		_printf
  4203 ;; This function uses a non-reentrant model
  4204 ;;
  4205                           
  4206                           
  4207                           ;psect for function _vfprintf
  4208  03BD                     _vfprintf:	
  4209                           
  4210                           ;incstack = 0
  4211                           ; Regs used in _vfprintf: [wreg-fsr1h+status,2+status,0+pclath+cstack]
  4212                           ;vfprintf@fp stored from wreg
  4213  03BD  0141               	movlb	1	; select bank1
  4214  03BE  00C0               	movwf	vfprintf@fp^(0+128)
  4215  03BF                     l2133:	
  4216                           
  4217                           ;D:\Program Files (x86)\Microchip\xc8\v2.10\pic\sources\c99\common\doprnt.c: 1368: int v
      +                          fprintf(FILE *fp, const char *fmt, va_list ap);D:\Program Files (x86)\Microchip\xc8\v2.1
      +                          0\pic\sources\c99\common\doprnt.c: 1369: {;D:\Program Files (x86)\Microchip\xc8\v2.10\pi
      +                          c\sources\c99\common\doprnt.c: 1371:     char *cfmt;;D:\Program Files (x86)\Microchip\xc
      +                          8\v2.10\pic\sources\c99\common\doprnt.c: 1373:     cfmt = (char *)fmt;
  4218  03BF  0140               	movlb	0	; select bank0
  4219  03C0  086A               	movf	vfprintf@fmt+1,w
  4220  03C1  0141               	movlb	1	; select bank1
  4221  03C2  00C2               	movwf	(vfprintf@cfmt+1)^(0+128)
  4222  03C3  0140               	movlb	0	; select bank0
  4223  03C4  0869               	movf	vfprintf@fmt,w
  4224  03C5  0141               	movlb	1	; select bank1
  4225  03C6  00C1               	movwf	vfprintf@cfmt^(0+128)
  4226  03C7                     l2135:	
  4227                           
  4228                           ;D:\Program Files (x86)\Microchip\xc8\v2.10\pic\sources\c99\common\doprnt.c: 1374:     n
      +                          out = 0;
  4229  03C7  01B6               	clrf	_nout^(0+128)
  4230  03C8  01B7               	clrf	(_nout+1)^(0+128)
  4231                           
  4232                           ;D:\Program Files (x86)\Microchip\xc8\v2.10\pic\sources\c99\common\doprnt.c: 1375:     w
      +                          hile (*cfmt) {
  4233  03C9  2BE0               	goto	l2139
  4234  03CA                     l2137:	
  4235                           
  4236                           ;D:\Program Files (x86)\Microchip\xc8\v2.10\pic\sources\c99\common\doprnt.c: 1376:      
      +                             nout += vfpfcnvrt(fp, &cfmt, ap);
  4237  03CA  30C1               	movlw	(low (vfprintf@cfmt| 0))& (0+255)
  4238  03CB  0140               	movlb	0	; select bank0
  4239  03CC  00EC               	movwf	??_vfprintf
  4240  03CD  086C               	movf	??_vfprintf,w
  4241  03CE  00D8               	movwf	vfpfcnvrt@fmt
  4242  03CF  086B               	movf	vfprintf@ap,w
  4243  03D0  00ED               	movwf	??_vfprintf+1
  4244  03D1  086D               	movf	??_vfprintf+1,w
  4245  03D2  00D9               	movwf	vfpfcnvrt@ap
  4246  03D3  0141               	movlb	1	; select bank1
  4247  03D4  0840               	movf	vfprintf@fp^(0+128),w
  4248  03D5  3181  219A  3183   	fcall	_vfpfcnvrt
  4249  03D8  0140               	movlb	0	; select bank0
  4250  03D9  0858               	movf	?_vfpfcnvrt,w
  4251  03DA  0141               	movlb	1	; select bank1
  4252  03DB  07B6               	addwf	_nout^(0+128),f
  4253  03DC  0140               	movlb	0	; select bank0
  4254  03DD  0859               	movf	?_vfpfcnvrt+1,w
  4255  03DE  0141               	movlb	1	; select bank1
  4256  03DF  3DB7               	addwfc	(_nout+1)^(0+128),f
  4257  03E0                     l2139:	
  4258                           
  4259                           ;D:\Program Files (x86)\Microchip\xc8\v2.10\pic\sources\c99\common\doprnt.c: 1375:     w
      +                          hile (*cfmt) {
  4260  03E0  0841               	movf	vfprintf@cfmt^(0+128),w
  4261  03E1  0084               	movwf	4
  4262  03E2  0842               	movf	(vfprintf@cfmt+1)^(0+128),w
  4263  03E3  0085               	movwf	5
  4264  03E4  0012               	moviw fsr0++
  4265  03E5  1D03               	btfss	3,2
  4266  03E6  2BE8               	goto	u1461
  4267  03E7  2BE9               	goto	u1460
  4268  03E8                     u1461:	
  4269  03E8  2BCA               	goto	l2137
  4270  03E9                     u1460:	
  4271  03E9                     l2141:	
  4272                           
  4273                           ;D:\Program Files (x86)\Microchip\xc8\v2.10\pic\sources\c99\common\doprnt.c: 1378:     r
      +                          eturn nout;
  4274  03E9  0837               	movf	(_nout+1)^(0+128),w
  4275  03EA  0140               	movlb	0	; select bank0
  4276  03EB  00EA               	movwf	?_vfprintf+1
  4277  03EC  0141               	movlb	1	; select bank1
  4278  03ED  0836               	movf	_nout^(0+128),w
  4279  03EE  0140               	movlb	0	; select bank0
  4280  03EF  00E9               	movwf	?_vfprintf
  4281  03F0                     l481:	
  4282  03F0  0008               	return
  4283  03F1                     __end_of_vfprintf:	
  4284                           
  4285                           	psect	text3
  4286  019A                     __ptext3:	
  4287 ;; *************** function _vfpfcnvrt *****************
  4288 ;; Defined at:
  4289 ;;		line 670 in file "D:\Program Files (x86)\Microchip\xc8\v2.10\pic\sources\c99\common\doprnt.c"
  4290 ;; Parameters:    Size  Location     Type
  4291 ;;  fp              1    wreg     PTR struct _IO_FILE
  4292 ;;		 -> NULL(0), 
  4293 ;;  fmt             1   56[BANK0 ] PTR PTR unsigned char 
  4294 ;;		 -> vfprintf@cfmt(2), 
  4295 ;;  ap              1   57[BANK0 ] PTR PTR void 
  4296 ;;		 -> printf@ap(1), 
  4297 ;; Auto vars:     Size  Location     Type
  4298 ;;  fp              1   72[BANK0 ] PTR struct _IO_FILE
  4299 ;;		 -> NULL(0), 
  4300 ;;  llu             8   63[BANK0 ] unsigned long long 
  4301 ;;  ll              8    0        long long 
  4302 ;;  f               4    0        long long 
  4303 ;;  ct              3    0        unsigned char [3]
  4304 ;;  vp              2    0        PTR void 
  4305 ;;  i               2    0        int 
  4306 ;;  done            2    0        int 
  4307 ;;  cp              2    0        PTR unsigned char 
  4308 ;;  c               1   71[BANK0 ] unsigned char 
  4309 ;; Return value:  Size  Location     Type
  4310 ;;                  2   56[BANK0 ] int 
  4311 ;; Registers used:
  4312 ;;		wreg, fsr0l, fsr0h, fsr1l, fsr1h, status,2, status,0, pclath, cstack
  4313 ;; Tracked objects:
  4314 ;;		On entry : 0/0
  4315 ;;		On exit  : 0/0
  4316 ;;		Unchanged: 0/0
  4317 ;; Data sizes:     COMMON   BANK0   BANK1   BANK2   BANK3   BANK4   BANK5   BANK6   BANK7   BANK8   BANK9  BANK10  BANK1
      +1  BANK12  BANK13  BANK14  BANK15  BANK16  BANK17  BANK18  BANK19  BANK20  BANK21  BANK22  BANK23  BANK24  BANK25
  4318 ;;      Params:         0       2       0       0       0       0       0       0       0       0       0       0       
      +0       0       0       0       0       0       0       0       0       0       0       0       0       0       0
  4319 ;;      Locals:         0      10       0       0       0       0       0       0       0       0       0       0       
      +0       0       0       0       0       0       0       0       0       0       0       0       0       0       0
  4320 ;;      Temps:          0       5       0       0       0       0       0       0       0       0       0       0       
      +0       0       0       0       0       0       0       0       0       0       0       0       0       0       0
  4321 ;;      Totals:         0      17       0       0       0       0       0       0       0       0       0       0       
      +0       0       0       0       0       0       0       0       0       0       0       0       0       0       0
  4322 ;;Total ram usage:       17 bytes
  4323 ;; Hardware stack levels used:    1
  4324 ;; Hardware stack levels required when called:    8
  4325 ;; This function calls:
  4326 ;;		_fputc
  4327 ;;		_xtoa
  4328 ;; This function is called by:
  4329 ;;		_vfprintf
  4330 ;; This function uses a non-reentrant model
  4331 ;;
  4332                           
  4333                           
  4334                           ;psect for function _vfpfcnvrt
  4335  019A                     _vfpfcnvrt:	
  4336                           
  4337                           ;incstack = 0
  4338                           ; Regs used in _vfpfcnvrt: [wreg-fsr1h+status,2+status,0+pclath+cstack]
  4339                           ;vfpfcnvrt@fp stored from wreg
  4340  019A  0140               	movlb	0	; select bank0
  4341  019B  00E8               	movwf	vfpfcnvrt@fp
  4342  019C                     l2009:	
  4343                           
  4344                           ;D:\Program Files (x86)\Microchip\xc8\v2.10\pic\sources\c99\common\doprnt.c: 670: static
      +                           int vfpfcnvrt(FILE *fp, char *fmt[], va_list ap);D:\Program Files (x86)\Microchip\xc8\v
      +                          2.10\pic\sources\c99\common\doprnt.c: 671: {;D:\Program Files (x86)\Microchip\xc8\v2.10\
      +                          pic\sources\c99\common\doprnt.c: 672:     char c, *cp, ct[3];;D:\Program Files (x86)\Mic
      +                          rochip\xc8\v2.10\pic\sources\c99\common\doprnt.c: 673:     int done, i;;D:\Program Files
      +                           (x86)\Microchip\xc8\v2.10\pic\sources\c99\common\doprnt.c: 674:     long long ll;
  4345  019C  0858               	movf	vfpfcnvrt@fmt,w
  4346  019D  0086               	movwf	6
  4347  019E  0187               	clrf	7
  4348  019F  3F40               	moviw [0]fsr1
  4349  01A0  00DA               	movwf	??_vfpfcnvrt
  4350  01A1  3F41               	moviw [1]fsr1
  4351  01A2  00DB               	movwf	??_vfpfcnvrt+1
  4352  01A3  085A               	movf	??_vfpfcnvrt,w
  4353  01A4  0084               	movwf	4
  4354  01A5  085B               	movf	??_vfpfcnvrt+1,w
  4355  01A6  0085               	movwf	5
  4356  01A7  0012               	moviw fsr0++
  4357  01A8  3A25               	xorlw	37
  4358  01A9  1D03               	btfss	3,2
  4359  01AA  29AC               	goto	u1411
  4360  01AB  29AD               	goto	u1410
  4361  01AC                     u1411:	
  4362  01AC  2A5D               	goto	l2047
  4363  01AD                     u1410:	
  4364  01AD                     l2011:	
  4365                           
  4366                           ;D:\Program Files (x86)\Microchip\xc8\v2.10\pic\sources\c99\common\doprnt.c: 681:       
      +                            ++*fmt;
  4367  01AD  0858               	movf	vfpfcnvrt@fmt,w
  4368  01AE  0086               	movwf	6
  4369  01AF  0187               	clrf	7
  4370  01B0  3001               	movlw	1
  4371  01B1  0781               	addwf	1,f
  4372  01B2  3141               	addfsr 1,1
  4373  01B3  1803               	skipnc
  4374  01B4  0A81               	incf	1,f
  4375  01B5                     l2013:	
  4376                           
  4377                           ;D:\Program Files (x86)\Microchip\xc8\v2.10\pic\sources\c99\common\doprnt.c: 683:       
      +                            flags = width = 0;
  4378  01B5  0141               	movlb	1	; select bank1
  4379  01B6  01B8               	clrf	_width^(0+128)
  4380  01B7  01B9               	clrf	(_width+1)^(0+128)
  4381  01B8  01FA               	clrf	_flags
  4382  01B9  01FB               	clrf	_flags+1
  4383  01BA                     l2015:	
  4384                           
  4385                           ;D:\Program Files (x86)\Microchip\xc8\v2.10\pic\sources\c99\common\doprnt.c: 684:       
      +                            prec = -1;
  4386  01BA  30FF               	movlw	255
  4387  01BB  00BA               	movwf	_prec^(0+128)
  4388  01BC  30FF               	movlw	255
  4389  01BD  00BB               	movwf	(_prec^(0+128)+1)
  4390  01BE                     l2017:	
  4391                           
  4392                           ;D:\Program Files (x86)\Microchip\xc8\v2.10\pic\sources\c99\common\doprnt.c: 1274:      
      +                             if ((*fmt[0] == 'x') || (*fmt[0] == 'X')) {
  4393  01BE  0140               	movlb	0	; select bank0
  4394  01BF  0858               	movf	vfpfcnvrt@fmt,w
  4395  01C0  0086               	movwf	6
  4396  01C1  0187               	clrf	7
  4397  01C2  3F40               	moviw [0]fsr1
  4398  01C3  00DA               	movwf	??_vfpfcnvrt
  4399  01C4  3F41               	moviw [1]fsr1
  4400  01C5  00DB               	movwf	??_vfpfcnvrt+1
  4401  01C6  085A               	movf	??_vfpfcnvrt,w
  4402  01C7  0084               	movwf	4
  4403  01C8  085B               	movf	??_vfpfcnvrt+1,w
  4404  01C9  0085               	movwf	5
  4405  01CA  0012               	moviw fsr0++
  4406  01CB  3A78               	xorlw	120
  4407  01CC  1903               	btfsc	3,2
  4408  01CD  29CF               	goto	u1421
  4409  01CE  29D0               	goto	u1420
  4410  01CF                     u1421:	
  4411  01CF  29E1               	goto	l2021
  4412  01D0                     u1420:	
  4413  01D0                     l2019:	
  4414  01D0  0858               	movf	vfpfcnvrt@fmt,w
  4415  01D1  0086               	movwf	6
  4416  01D2  0187               	clrf	7
  4417  01D3  3F40               	moviw [0]fsr1
  4418  01D4  00DA               	movwf	??_vfpfcnvrt
  4419  01D5  3F41               	moviw [1]fsr1
  4420  01D6  00DB               	movwf	??_vfpfcnvrt+1
  4421  01D7  085A               	movf	??_vfpfcnvrt,w
  4422  01D8  0084               	movwf	4
  4423  01D9  085B               	movf	??_vfpfcnvrt+1,w
  4424  01DA  0085               	movwf	5
  4425  01DB  0012               	moviw fsr0++
  4426  01DC  3A58               	xorlw	88
  4427  01DD  1D03               	btfss	3,2
  4428  01DE  29E0               	goto	u1431
  4429  01DF  29E1               	goto	u1430
  4430  01E0                     u1431:	
  4431  01E0  2A28               	goto	l2031
  4432  01E1                     u1430:	
  4433  01E1                     l2021:	
  4434                           
  4435                           ;D:\Program Files (x86)\Microchip\xc8\v2.10\pic\sources\c99\common\doprnt.c: 1276:      
      +                                 c = (*fmt)[0];
  4436  01E1  0858               	movf	vfpfcnvrt@fmt,w
  4437  01E2  0086               	movwf	6
  4438  01E3  0187               	clrf	7
  4439  01E4  3F40               	moviw [0]fsr1
  4440  01E5  00DA               	movwf	??_vfpfcnvrt
  4441  01E6  3F41               	moviw [1]fsr1
  4442  01E7  00DB               	movwf	??_vfpfcnvrt+1
  4443  01E8  085A               	movf	??_vfpfcnvrt,w
  4444  01E9  0084               	movwf	4
  4445  01EA  085B               	movf	??_vfpfcnvrt+1,w
  4446  01EB  0085               	movwf	5
  4447  01EC  0800               	movf	0,w	;code access
  4448  01ED  00DC               	movwf	??_vfpfcnvrt+2
  4449  01EE  085C               	movf	??_vfpfcnvrt+2,w
  4450  01EF  00E7               	movwf	vfpfcnvrt@c
  4451  01F0                     l2023:	
  4452                           
  4453                           ;D:\Program Files (x86)\Microchip\xc8\v2.10\pic\sources\c99\common\doprnt.c: 1277:      
      +                                 ++*fmt;
  4454  01F0  0858               	movf	vfpfcnvrt@fmt,w
  4455  01F1  0086               	movwf	6
  4456  01F2  0187               	clrf	7
  4457  01F3  3001               	movlw	1
  4458  01F4  0781               	addwf	1,f
  4459  01F5  3141               	addfsr 1,1
  4460  01F6  1803               	skipnc
  4461  01F7  0A81               	incf	1,f
  4462  01F8                     l2025:	
  4463                           
  4464                           ;D:\Program Files (x86)\Microchip\xc8\v2.10\pic\sources\c99\common\doprnt.c: 1278:      
      +                                 llu = (unsigned long long)(*(unsigned int *)__va_arg(*(unsigned int **)ap, (unsig
      +                          ned int)0));
  4465  01F8  0859               	movf	vfpfcnvrt@ap,w
  4466  01F9  0086               	movwf	6
  4467  01FA  0187               	clrf	7
  4468  01FB  0801               	movf	1,w
  4469  01FC  0084               	movwf	4
  4470  01FD  0185               	clrf	5
  4471  01FE  3002               	movlw	2
  4472  01FF  0781               	addwf	1,f
  4473  0200  3F00               	moviw [0]fsr0
  4474  0201  00DF               	movwf	vfpfcnvrt@llu
  4475  0202  3F01               	moviw [1]fsr0
  4476  0203  00E0               	movwf	vfpfcnvrt@llu+1
  4477  0204  01E1               	clrf	vfpfcnvrt@llu+2
  4478  0205  01E2               	clrf	vfpfcnvrt@llu+3
  4479  0206  01E3               	clrf	vfpfcnvrt@llu+4
  4480  0207  01E4               	clrf	vfpfcnvrt@llu+5
  4481  0208  01E5               	clrf	vfpfcnvrt@llu+6
  4482  0209  01E6               	clrf	vfpfcnvrt@llu+7
  4483  020A                     l2027:	
  4484                           
  4485                           ;D:\Program Files (x86)\Microchip\xc8\v2.10\pic\sources\c99\common\doprnt.c: 1280:      
      +                                 return xtoa(fp, llu, c);
  4486  020A  085F               	movf	vfpfcnvrt@llu,w
  4487  020B  00B2               	movwf	xtoa@d
  4488  020C  0860               	movf	vfpfcnvrt@llu+1,w
  4489  020D  00B3               	movwf	xtoa@d+1
  4490  020E  0861               	movf	vfpfcnvrt@llu+2,w
  4491  020F  00B4               	movwf	xtoa@d+2
  4492  0210  0862               	movf	vfpfcnvrt@llu+3,w
  4493  0211  00B5               	movwf	xtoa@d+3
  4494  0212  0863               	movf	vfpfcnvrt@llu+4,w
  4495  0213  00B6               	movwf	xtoa@d+4
  4496  0214  0864               	movf	vfpfcnvrt@llu+5,w
  4497  0215  00B7               	movwf	xtoa@d+5
  4498  0216  0865               	movf	vfpfcnvrt@llu+6,w
  4499  0217  00B8               	movwf	xtoa@d+6
  4500  0218  0866               	movf	vfpfcnvrt@llu+7,w
  4501  0219  00B9               	movwf	xtoa@d+7
  4502  021A  0867               	movf	vfpfcnvrt@c,w
  4503  021B  00DA               	movwf	??_vfpfcnvrt
  4504  021C  085A               	movf	??_vfpfcnvrt,w
  4505  021D  00BA               	movwf	xtoa@x
  4506  021E  0868               	movf	vfpfcnvrt@fp,w
  4507  021F  3180  2028  3181   	fcall	_xtoa
  4508  0222  0140               	movlb	0	; select bank0
  4509  0223  0833               	movf	?_xtoa+1,w
  4510  0224  00D9               	movwf	?_vfpfcnvrt+1
  4511  0225  0832               	movf	?_xtoa,w
  4512  0226  00D8               	movwf	?_vfpfcnvrt
  4513  0227  2A80               	goto	l474
  4514  0228                     l2031:	
  4515                           
  4516                           ;D:\Program Files (x86)\Microchip\xc8\v2.10\pic\sources\c99\common\doprnt.c: 1350:      
      +                             if ((*fmt)[0] == '%') {
  4517  0228  0858               	movf	vfpfcnvrt@fmt,w
  4518  0229  0086               	movwf	6
  4519  022A  0187               	clrf	7
  4520  022B  3F40               	moviw [0]fsr1
  4521  022C  00DA               	movwf	??_vfpfcnvrt
  4522  022D  3F41               	moviw [1]fsr1
  4523  022E  00DB               	movwf	??_vfpfcnvrt+1
  4524  022F  085A               	movf	??_vfpfcnvrt,w
  4525  0230  0084               	movwf	4
  4526  0231  085B               	movf	??_vfpfcnvrt+1,w
  4527  0232  0085               	movwf	5
  4528  0233  0012               	moviw fsr0++
  4529  0234  3A25               	xorlw	37
  4530  0235  1D03               	btfss	3,2
  4531  0236  2A38               	goto	u1441
  4532  0237  2A39               	goto	u1440
  4533  0238                     u1441:	
  4534  0238  2A52               	goto	l2041
  4535  0239                     u1440:	
  4536  0239                     l2033:	
  4537                           
  4538                           ;D:\Program Files (x86)\Microchip\xc8\v2.10\pic\sources\c99\common\doprnt.c: 1351:      
      +                                 ++*fmt;
  4539  0239  0858               	movf	vfpfcnvrt@fmt,w
  4540  023A  0086               	movwf	6
  4541  023B  0187               	clrf	7
  4542  023C  3001               	movlw	1
  4543  023D  0781               	addwf	1,f
  4544  023E  3141               	addfsr 1,1
  4545  023F  1803               	skipnc
  4546  0240  0A81               	incf	1,f
  4547  0241                     l2035:	
  4548                           
  4549                           ;D:\Program Files (x86)\Microchip\xc8\v2.10\pic\sources\c99\common\doprnt.c: 1352:      
      +                                 fputc((int)'%', fp);
  4550  0241  3025               	movlw	37
  4551  0242  00F3               	movwf	fputc@c
  4552  0243  3000               	movlw	0
  4553  0244  00F4               	movwf	fputc@c+1
  4554  0245  0868               	movf	vfpfcnvrt@fp,w
  4555  0246  00DA               	movwf	??_vfpfcnvrt
  4556  0247  085A               	movf	??_vfpfcnvrt,w
  4557  0248  00F5               	movwf	fputc@fp
  4558  0249  3183  237D  3181   	fcall	_fputc
  4559  024C                     l2037:	
  4560                           
  4561                           ;D:\Program Files (x86)\Microchip\xc8\v2.10\pic\sources\c99\common\doprnt.c: 1353:      
      +                                 return 1;
  4562  024C  3001               	movlw	1
  4563  024D  0140               	movlb	0	; select bank0
  4564  024E  00D8               	movwf	?_vfpfcnvrt
  4565  024F  3000               	movlw	0
  4566  0250  00D9               	movwf	?_vfpfcnvrt+1
  4567  0251  2A80               	goto	l474
  4568  0252                     l2041:	
  4569                           
  4570                           ;D:\Program Files (x86)\Microchip\xc8\v2.10\pic\sources\c99\common\doprnt.c: 1357:      
      +                             ++*fmt;
  4571  0252  0858               	movf	vfpfcnvrt@fmt,w
  4572  0253  0086               	movwf	6
  4573  0254  0187               	clrf	7
  4574  0255  3001               	movlw	1
  4575  0256  0781               	addwf	1,f
  4576  0257  3141               	addfsr 1,1
  4577  0258  1803               	skipnc
  4578  0259  0A81               	incf	1,f
  4579  025A                     l2043:	
  4580                           
  4581                           ;D:\Program Files (x86)\Microchip\xc8\v2.10\pic\sources\c99\common\doprnt.c: 1358:      
      +                             return 0;
  4582  025A  01D8               	clrf	?_vfpfcnvrt
  4583  025B  01D9               	clrf	?_vfpfcnvrt+1
  4584  025C  2A80               	goto	l474
  4585  025D                     l2047:	
  4586                           
  4587                           ;D:\Program Files (x86)\Microchip\xc8\v2.10\pic\sources\c99\common\doprnt.c: 1362:     f
      +                          putc((int)(*fmt)[0], fp);
  4588  025D  0858               	movf	vfpfcnvrt@fmt,w
  4589  025E  0086               	movwf	6
  4590  025F  0187               	clrf	7
  4591  0260  3F40               	moviw [0]fsr1
  4592  0261  00DA               	movwf	??_vfpfcnvrt
  4593  0262  3F41               	moviw [1]fsr1
  4594  0263  00DB               	movwf	??_vfpfcnvrt+1
  4595  0264  085A               	movf	??_vfpfcnvrt,w
  4596  0265  0084               	movwf	4
  4597  0266  085B               	movf	??_vfpfcnvrt+1,w
  4598  0267  0085               	movwf	5
  4599  0268  0800               	movf	0,w	;code access
  4600  0269  00DC               	movwf	??_vfpfcnvrt+2
  4601  026A  01DD               	clrf	??_vfpfcnvrt+3
  4602  026B  085C               	movf	??_vfpfcnvrt+2,w
  4603  026C  00F3               	movwf	fputc@c
  4604  026D  085D               	movf	??_vfpfcnvrt+3,w
  4605  026E  00F4               	movwf	fputc@c+1
  4606  026F  0868               	movf	vfpfcnvrt@fp,w
  4607  0270  00DE               	movwf	??_vfpfcnvrt+4
  4608  0271  085E               	movf	??_vfpfcnvrt+4,w
  4609  0272  00F5               	movwf	fputc@fp
  4610  0273  3183  237D  3181   	fcall	_fputc
  4611  0276                     l2049:	
  4612                           
  4613                           ;D:\Program Files (x86)\Microchip\xc8\v2.10\pic\sources\c99\common\doprnt.c: 1363:     +
      +                          +*fmt;
  4614  0276  0140               	movlb	0	; select bank0
  4615  0277  0858               	movf	vfpfcnvrt@fmt,w
  4616  0278  0086               	movwf	6
  4617  0279  0187               	clrf	7
  4618  027A  3001               	movlw	1
  4619  027B  0781               	addwf	1,f
  4620  027C  3141               	addfsr 1,1
  4621  027D  1803               	skipnc
  4622  027E  0A81               	incf	1,f
  4623  027F  2A4C               	goto	l2037
  4624  0280                     l474:	
  4625  0280  0008               	return
  4626  0281                     __end_of_vfpfcnvrt:	
  4627                           
  4628                           	psect	text4
  4629  0028                     __ptext4:	
  4630 ;; *************** function _xtoa *****************
  4631 ;; Defined at:
  4632 ;;		line 623 in file "D:\Program Files (x86)\Microchip\xc8\v2.10\pic\sources\c99\common\doprnt.c"
  4633 ;; Parameters:    Size  Location     Type
  4634 ;;  fp              1    wreg     PTR struct _IO_FILE
  4635 ;;		 -> NULL(0), 
  4636 ;;  d               8   18[BANK0 ] unsigned long long 
  4637 ;;  x               1   26[BANK0 ] unsigned char 
  4638 ;; Auto vars:     Size  Location     Type
  4639 ;;  fp              1   39[BANK0 ] PTR struct _IO_FILE
  4640 ;;		 -> NULL(0), 
  4641 ;;  n               8   44[BANK0 ] unsigned long long 
  4642 ;;  c               2   54[BANK0 ] int 
  4643 ;;  i               2   52[BANK0 ] int 
  4644 ;;  w               2   42[BANK0 ] int 
  4645 ;;  p               2   40[BANK0 ] int 
  4646 ;; Return value:  Size  Location     Type
  4647 ;;                  2   18[BANK0 ] int 
  4648 ;; Registers used:
  4649 ;;		wreg, fsr1l, fsr1h, status,2, status,0, pclath, cstack
  4650 ;; Tracked objects:
  4651 ;;		On entry : 0/0
  4652 ;;		On exit  : 0/0
  4653 ;;		Unchanged: 0/0
  4654 ;; Data sizes:     COMMON   BANK0   BANK1   BANK2   BANK3   BANK4   BANK5   BANK6   BANK7   BANK8   BANK9  BANK10  BANK1
      +1  BANK12  BANK13  BANK14  BANK15  BANK16  BANK17  BANK18  BANK19  BANK20  BANK21  BANK22  BANK23  BANK24  BANK25
  4655 ;;      Params:         0       9       0       0       0       0       0       0       0       0       0       0       
      +0       0       0       0       0       0       0       0       0       0       0       0       0       0       0
  4656 ;;      Locals:         0      21       0       0       0       0       0       0       0       0       0       0       
      +0       0       0       0       0       0       0       0       0       0       0       0       0       0       0
  4657 ;;      Temps:          0       8       0       0       0       0       0       0       0       0       0       0       
      +0       0       0       0       0       0       0       0       0       0       0       0       0       0       0
  4658 ;;      Totals:         0      38       0       0       0       0       0       0       0       0       0       0       
      +0       0       0       0       0       0       0       0       0       0       0       0       0       0       0
  4659 ;;Total ram usage:       38 bytes
  4660 ;; Hardware stack levels used:    1
  4661 ;; Hardware stack levels required when called:    7
  4662 ;; This function calls:
  4663 ;;		_isalpha
  4664 ;;		_isupper
  4665 ;;		_pad
  4666 ;;		_toupper
  4667 ;; This function is called by:
  4668 ;;		_vfpfcnvrt
  4669 ;; This function uses a non-reentrant model
  4670 ;;
  4671                           
  4672                           
  4673                           ;psect for function _xtoa
  4674  0028                     _xtoa:	
  4675                           
  4676                           ;incstack = 0
  4677                           ; Regs used in _xtoa: [wreg+fsr1l+fsr1h+status,2+status,0+pclath+cstack]
  4678                           ;xtoa@fp stored from wreg
  4679  0028  0140               	movlb	0	; select bank0
  4680  0029  00C7               	movwf	xtoa@fp
  4681  002A                     l1945:	
  4682                           
  4683                           ;D:\Program Files (x86)\Microchip\xc8\v2.10\pic\sources\c99\common\doprnt.c: 623: static
      +                           int xtoa(FILE *fp, unsigned long long d, char x);D:\Program Files (x86)\Microchip\xc8\v
      +                          2.10\pic\sources\c99\common\doprnt.c: 624: {;D:\Program Files (x86)\Microchip\xc8\v2.10\
      +                          pic\sources\c99\common\doprnt.c: 625:     int c, i, p, w;;D:\Program Files (x86)\Microch
      +                          ip\xc8\v2.10\pic\sources\c99\common\doprnt.c: 626:     unsigned long long n;;D:\Program 
      +                          Files (x86)\Microchip\xc8\v2.10\pic\sources\c99\common\doprnt.c: 629:     if (!(prec < 0
      +                          )) {
  4684  002A  0141               	movlb	1	; select bank1
  4685  002B  1BBB               	btfsc	(_prec+1)^(0+128),7
  4686  002C  282E               	goto	u1241
  4687  002D  282F               	goto	u1240
  4688  002E                     u1241:	
  4689  002E  2833               	goto	l440
  4690  002F                     u1240:	
  4691  002F                     l1947:	
  4692                           
  4693                           ;D:\Program Files (x86)\Microchip\xc8\v2.10\pic\sources\c99\common\doprnt.c: 630:       
      +                            flags &= ~(1 << 1);
  4694  002F  30FD               	movlw	253
  4695  0030  05FA               	andwf	_flags,f
  4696  0031  30FF               	movlw	255
  4697  0032  05FB               	andwf	_flags+1,f
  4698  0033                     l440:	
  4699                           ;D:\Program Files (x86)\Microchip\xc8\v2.10\pic\sources\c99\common\doprnt.c: 631:     }
  4700                           
  4701                           
  4702                           ;D:\Program Files (x86)\Microchip\xc8\v2.10\pic\sources\c99\common\doprnt.c: 632:     p 
      +                          = (0 < prec) ? prec : 1;
  4703  0033  083B               	movf	(_prec+1)^(0+128),w
  4704  0034  3A80               	xorlw	128
  4705  0035  0140               	movlb	0	; select bank0
  4706  0036  00BB               	movwf	??_xtoa
  4707  0037  3080               	movlw	128
  4708  0038  023B               	subwf	??_xtoa,w
  4709  0039  1D03               	skipz
  4710  003A  283E               	goto	u1255
  4711  003B  3001               	movlw	1
  4712  003C  0141               	movlb	1	; select bank1
  4713  003D  023A               	subwf	_prec^(0+128),w
  4714  003E                     u1255:	
  4715  003E  1803               	skipnc
  4716  003F  2841               	goto	u1251
  4717  0040  2842               	goto	u1250
  4718  0041                     u1251:	
  4719  0041  2848               	goto	l1951
  4720  0042                     u1250:	
  4721  0042                     l1949:	
  4722  0042  3001               	movlw	1
  4723  0043  0140               	movlb	0	; select bank0
  4724  0044  00C8               	movwf	xtoa@p
  4725  0045  3000               	movlw	0
  4726  0046  00C9               	movwf	xtoa@p+1
  4727  0047  2850               	goto	l444
  4728  0048                     l1951:	
  4729  0048  0141               	movlb	1	; select bank1
  4730  0049  083B               	movf	(_prec+1)^(0+128),w
  4731  004A  0140               	movlb	0	; select bank0
  4732  004B  00C9               	movwf	xtoa@p+1
  4733  004C  0141               	movlb	1	; select bank1
  4734  004D  083A               	movf	_prec^(0+128),w
  4735  004E  0140               	movlb	0	; select bank0
  4736  004F  00C8               	movwf	xtoa@p
  4737  0050                     l444:	
  4738                           
  4739                           ;D:\Program Files (x86)\Microchip\xc8\v2.10\pic\sources\c99\common\doprnt.c: 633:     w 
      +                          = width;
  4740  0050  0141               	movlb	1	; select bank1
  4741  0051  0839               	movf	(_width+1)^(0+128),w
  4742  0052  0140               	movlb	0	; select bank0
  4743  0053  00CB               	movwf	xtoa@w+1
  4744  0054  0141               	movlb	1	; select bank1
  4745  0055  0838               	movf	_width^(0+128),w
  4746  0056  0140               	movlb	0	; select bank0
  4747  0057  00CA               	movwf	xtoa@w
  4748  0058                     l1953:	
  4749                           
  4750                           ;D:\Program Files (x86)\Microchip\xc8\v2.10\pic\sources\c99\common\doprnt.c: 634:     if
      +                           (flags & (1 << 4)) {
  4751  0058  1E7A               	btfss	_flags,4
  4752  0059  285B               	goto	u1261
  4753  005A  285C               	goto	u1260
  4754  005B                     u1261:	
  4755  005B  2860               	goto	l1957
  4756  005C                     u1260:	
  4757  005C                     l1955:	
  4758                           
  4759                           ;D:\Program Files (x86)\Microchip\xc8\v2.10\pic\sources\c99\common\doprnt.c: 635:       
      +                            w -= 2;
  4760  005C  30FE               	movlw	254
  4761  005D  07CA               	addwf	xtoa@w,f
  4762  005E  30FF               	movlw	255
  4763  005F  3DCB               	addwfc	xtoa@w+1,f
  4764  0060                     l1957:	
  4765                           
  4766                           ;D:\Program Files (x86)\Microchip\xc8\v2.10\pic\sources\c99\common\doprnt.c: 639:     n 
      +                          = d;
  4767  0060  0832               	movf	xtoa@d,w
  4768  0061  00CC               	movwf	xtoa@n
  4769  0062  0833               	movf	xtoa@d+1,w
  4770  0063  00CD               	movwf	xtoa@n+1
  4771  0064  0834               	movf	xtoa@d+2,w
  4772  0065  00CE               	movwf	xtoa@n+2
  4773  0066  0835               	movf	xtoa@d+3,w
  4774  0067  00CF               	movwf	xtoa@n+3
  4775  0068  0836               	movf	xtoa@d+4,w
  4776  0069  00D0               	movwf	xtoa@n+4
  4777  006A  0837               	movf	xtoa@d+5,w
  4778  006B  00D1               	movwf	xtoa@n+5
  4779  006C  0838               	movf	xtoa@d+6,w
  4780  006D  00D2               	movwf	xtoa@n+6
  4781  006E  0839               	movf	xtoa@d+7,w
  4782  006F  00D3               	movwf	xtoa@n+7
  4783                           
  4784                           ;D:\Program Files (x86)\Microchip\xc8\v2.10\pic\sources\c99\common\doprnt.c: 640:     i 
      +                          = sizeof(dbuf) - 1;
  4785  0070  301F               	movlw	31
  4786  0071  00D4               	movwf	xtoa@i
  4787  0072  3000               	movlw	0
  4788  0073  00D5               	movwf	xtoa@i+1
  4789  0074                     l1959:	
  4790                           
  4791                           ;D:\Program Files (x86)\Microchip\xc8\v2.10\pic\sources\c99\common\doprnt.c: 641:     db
      +                          uf[i] = '\0';
  4792  0074  0142               	movlb	2	; select bank2
  4793  0075  01BF               	clrf	(_dbuf^(0+256)+31)
  4794                           
  4795                           ;D:\Program Files (x86)\Microchip\xc8\v2.10\pic\sources\c99\common\doprnt.c: 642:     wh
      +                          ile (!(i < 2) && (n || (0 < p) || ((0 < w) && (flags & (1 << 1))))) {
  4796  0076  292D               	goto	l1989
  4797  0077                     l1961:	
  4798                           
  4799                           ;D:\Program Files (x86)\Microchip\xc8\v2.10\pic\sources\c99\common\doprnt.c: 643:       
      +                            --i;
  4800  0077  30FF               	movlw	255
  4801  0078  0140               	movlb	0	; select bank0
  4802  0079  07D4               	addwf	xtoa@i,f
  4803  007A  30FF               	movlw	255
  4804  007B  3DD5               	addwfc	xtoa@i+1,f
  4805                           
  4806                           ;D:\Program Files (x86)\Microchip\xc8\v2.10\pic\sources\c99\common\doprnt.c: 644:       
      +                            c = n & 0x0f;
  4807  007C  300F               	movlw	15
  4808  007D  054C               	andwf	xtoa@n,w
  4809  007E  00D6               	movwf	xtoa@c
  4810  007F  3000               	movlw	0
  4811  0080  054D               	andwf	xtoa@n+1,w
  4812  0081  00D7               	movwf	xtoa@c+1
  4813                           
  4814                           ;D:\Program Files (x86)\Microchip\xc8\v2.10\pic\sources\c99\common\doprnt.c: 645:       
      +                            c = (c < 10) ? '0' + c : 'a' + (c - 10);
  4815  0082  0857               	movf	xtoa@c+1,w
  4816  0083  3A80               	xorlw	128
  4817  0084  00BB               	movwf	??_xtoa
  4818  0085  3080               	movlw	128
  4819  0086  023B               	subwf	??_xtoa,w
  4820  0087  1D03               	skipz
  4821  0088  288B               	goto	u1275
  4822  0089  300A               	movlw	10
  4823  008A  0256               	subwf	xtoa@c,w
  4824  008B                     u1275:	
  4825  008B  1C03               	skipc
  4826  008C  288E               	goto	u1271
  4827  008D  288F               	goto	u1270
  4828  008E                     u1271:	
  4829  008E  2897               	goto	l1965
  4830  008F                     u1270:	
  4831  008F                     l1963:	
  4832  008F  0140               	movlb	0	; select bank0
  4833  0090  0856               	movf	xtoa@c,w
  4834  0091  3E57               	addlw	87
  4835  0092  00D6               	movwf	xtoa@c
  4836  0093  3000               	movlw	0
  4837  0094  3D57               	addwfc	xtoa@c+1,w
  4838  0095  00D7               	movwf	xtoa@c+1
  4839  0096  289E               	goto	l1967
  4840  0097                     l1965:	
  4841  0097  0140               	movlb	0	; select bank0
  4842  0098  0856               	movf	xtoa@c,w
  4843  0099  3E30               	addlw	48
  4844  009A  00D6               	movwf	xtoa@c
  4845  009B  3000               	movlw	0
  4846  009C  3D57               	addwfc	xtoa@c+1,w
  4847  009D  00D7               	movwf	xtoa@c+1
  4848  009E                     l1967:	
  4849  009E  083A               	movf	xtoa@x,w
  4850  009F  3EBF               	addlw	191
  4851  00A0  00BB               	movwf	??_xtoa
  4852  00A1  30FF               	movlw	255
  4853  00A2  1803               	skipnc
  4854  00A3  3000               	movlw	0
  4855  00A4  00BC               	movwf	??_xtoa+1
  4856  00A5  3000               	movlw	0
  4857  00A6  023C               	subwf	??_xtoa+1,w
  4858  00A7  301A               	movlw	26
  4859  00A8  1903               	skipnz
  4860  00A9  023B               	subwf	??_xtoa,w
  4861  00AA  1C03               	skipc
  4862  00AB  28AD               	goto	u1281
  4863  00AC  28AF               	goto	u1280
  4864  00AD                     u1281:	
  4865  00AD  3001               	movlw	1
  4866  00AE  28B0               	goto	u1290
  4867  00AF                     u1280:	
  4868  00AF  3000               	movlw	0
  4869  00B0                     u1290:	
  4870  00B0  00BD               	movwf	??_xtoa+2
  4871  00B1  01BE               	clrf	??_xtoa+3
  4872  00B2  083D               	movf	??_xtoa+2,w
  4873  00B3  00C3               	movwf	_xtoa$638
  4874  00B4  083E               	movf	??_xtoa+3,w
  4875  00B5  00C4               	movwf	_xtoa$638+1
  4876  00B6                     l1971:	
  4877  00B6  0843               	movf	_xtoa$638,w
  4878  00B7  0444               	iorwf	_xtoa$638+1,w
  4879  00B8  1903               	btfsc	3,2
  4880  00B9  28BB               	goto	u1301
  4881  00BA  28BC               	goto	u1300
  4882  00BB                     u1301:	
  4883  00BB  28EB               	goto	l1981
  4884  00BC                     u1300:	
  4885  00BC                     l1973:	
  4886  00BC  3020               	movlw	32
  4887  00BD  0456               	iorwf	xtoa@c,w
  4888  00BE  00BB               	movwf	??_xtoa
  4889  00BF  3000               	movlw	0
  4890  00C0  0457               	iorwf	xtoa@c+1,w
  4891  00C1  00BC               	movwf	??_xtoa+1
  4892  00C2  083B               	movf	??_xtoa,w
  4893  00C3  3E9F               	addlw	159
  4894  00C4  00BD               	movwf	??_xtoa+2
  4895  00C5  30FF               	movlw	255
  4896  00C6  3D3C               	addwfc	??_xtoa+1,w
  4897  00C7  00BE               	movwf	??_xtoa+3
  4898  00C8  3000               	movlw	0
  4899  00C9  023E               	subwf	??_xtoa+3,w
  4900  00CA  301A               	movlw	26
  4901  00CB  1903               	skipnz
  4902  00CC  023D               	subwf	??_xtoa+2,w
  4903  00CD  1C03               	skipc
  4904  00CE  28D0               	goto	u1311
  4905  00CF  28D2               	goto	u1310
  4906  00D0                     u1311:	
  4907  00D0  3001               	movlw	1
  4908  00D1  28D3               	goto	u1320
  4909  00D2                     u1310:	
  4910  00D2  3000               	movlw	0
  4911  00D3                     u1320:	
  4912  00D3  00BF               	movwf	??_xtoa+4
  4913  00D4  01C0               	clrf	??_xtoa+5
  4914  00D5  083F               	movf	??_xtoa+4,w
  4915  00D6  00C5               	movwf	_xtoa$639
  4916  00D7  0840               	movf	??_xtoa+5,w
  4917  00D8  00C6               	movwf	_xtoa$639+1
  4918  00D9                     l1977:	
  4919  00D9  0845               	movf	_xtoa$639,w
  4920  00DA  0446               	iorwf	_xtoa$639+1,w
  4921  00DB  1903               	btfsc	3,2
  4922  00DC  28DE               	goto	u1331
  4923  00DD  28DF               	goto	u1330
  4924  00DE                     u1331:	
  4925  00DE  28EB               	goto	l1981
  4926  00DF                     u1330:	
  4927  00DF                     l1979:	
  4928                           
  4929                           ;D:\Program Files (x86)\Microchip\xc8\v2.10\pic\sources\c99\common\doprnt.c: 647:       
      +                                c = toupper(c);
  4930  00DF  0857               	movf	xtoa@c+1,w
  4931  00E0  00F9               	movwf	toupper@c+1
  4932  00E1  0856               	movf	xtoa@c,w
  4933  00E2  00F8               	movwf	toupper@c
  4934  00E3  3184  2480  3180   	fcall	_toupper
  4935  00E6  0879               	movf	?_toupper+1,w
  4936  00E7  0140               	movlb	0	; select bank0
  4937  00E8  00D7               	movwf	xtoa@c+1
  4938  00E9  0878               	movf	?_toupper,w
  4939  00EA  00D6               	movwf	xtoa@c
  4940  00EB                     l1981:	
  4941                           
  4942                           ;D:\Program Files (x86)\Microchip\xc8\v2.10\pic\sources\c99\common\doprnt.c: 649:       
      +                            dbuf[i] = (char)c;
  4943  00EB  0856               	movf	xtoa@c,w
  4944  00EC  00BB               	movwf	??_xtoa
  4945  00ED  0854               	movf	xtoa@i,w
  4946  00EE  3E20               	addlw	(low (_dbuf| (0+256)))& (0+255)
  4947  00EF  0086               	movwf	6
  4948  00F0  3001               	movlw	1	; select bank2/3
  4949  00F1  0087               	movwf	7
  4950  00F2  083B               	movf	??_xtoa,w
  4951  00F3  0081               	movwf	1
  4952  00F4                     l1983:	
  4953                           
  4954                           ;D:\Program Files (x86)\Microchip\xc8\v2.10\pic\sources\c99\common\doprnt.c: 650:       
      +                            --p;
  4955  00F4  30FF               	movlw	255
  4956  00F5  07C8               	addwf	xtoa@p,f
  4957  00F6  30FF               	movlw	255
  4958  00F7  3DC9               	addwfc	xtoa@p+1,f
  4959  00F8                     l1985:	
  4960                           
  4961                           ;D:\Program Files (x86)\Microchip\xc8\v2.10\pic\sources\c99\common\doprnt.c: 651:       
      +                            --w;
  4962  00F8  30FF               	movlw	255
  4963  00F9  07CA               	addwf	xtoa@w,f
  4964  00FA  30FF               	movlw	255
  4965  00FB  3DCB               	addwfc	xtoa@w+1,f
  4966  00FC                     l1987:	
  4967                           
  4968                           ;D:\Program Files (x86)\Microchip\xc8\v2.10\pic\sources\c99\common\doprnt.c: 652:       
      +                            n = n >> 4;
  4969  00FC  304C               	movlw	low xtoa@n
  4970  00FD  0086               	movwf	6
  4971  00FE  3000               	movlw	high xtoa@n
  4972  00FF  0087               	movwf	7
  4973  0100  3F40               	moviw [0]fsr1
  4974  0101  00BB               	movwf	??_xtoa
  4975  0102  3F41               	moviw [1]fsr1
  4976  0103  00BC               	movwf	??_xtoa+1
  4977  0104  3F42               	moviw [2]fsr1
  4978  0105  00BD               	movwf	??_xtoa+2
  4979  0106  3F43               	moviw [3]fsr1
  4980  0107  00BE               	movwf	??_xtoa+3
  4981  0108  3F44               	moviw [4]fsr1
  4982  0109  00BF               	movwf	??_xtoa+4
  4983  010A  3F45               	moviw [5]fsr1
  4984  010B  00C0               	movwf	??_xtoa+5
  4985  010C  3F46               	moviw [6]fsr1
  4986  010D  00C1               	movwf	??_xtoa+6
  4987  010E  3F47               	moviw [7]fsr1
  4988  010F  00C2               	movwf	??_xtoa+7
  4989  0110  3004               	movlw	4
  4990  0111                     u1345:	
  4991  0111  0140               	movlb	0	; select bank0
  4992  0112  36C2               	lsrf	??_xtoa+7,f
  4993  0113  0CC1               	rrf	??_xtoa+6,f
  4994  0114  0CC0               	rrf	??_xtoa+5,f
  4995  0115  0CBF               	rrf	??_xtoa+4,f
  4996  0116  0CBE               	rrf	??_xtoa+3,f
  4997  0117  0CBD               	rrf	??_xtoa+2,f
  4998  0118  0CBC               	rrf	??_xtoa+1,f
  4999  0119  0CBB               	rrf	??_xtoa,f
  5000  011A                     u1340:	
  5001  011A  0B89               	decfsz	9,f
  5002  011B  2911               	goto	u1345
  5003  011C  0140               	movlb	0	; select bank0
  5004  011D  0842               	movf	??_xtoa+7,w
  5005  011E  00D3               	movwf	xtoa@n+7
  5006  011F  0841               	movf	??_xtoa+6,w
  5007  0120  00D2               	movwf	xtoa@n+6
  5008  0121  0840               	movf	??_xtoa+5,w
  5009  0122  00D1               	movwf	xtoa@n+5
  5010  0123  083F               	movf	??_xtoa+4,w
  5011  0124  00D0               	movwf	xtoa@n+4
  5012  0125  083E               	movf	??_xtoa+3,w
  5013  0126  00CF               	movwf	xtoa@n+3
  5014  0127  083D               	movf	??_xtoa+2,w
  5015  0128  00CE               	movwf	xtoa@n+2
  5016  0129  083C               	movf	??_xtoa+1,w
  5017  012A  00CD               	movwf	xtoa@n+1
  5018  012B  083B               	movf	??_xtoa,w
  5019  012C  00CC               	movwf	xtoa@n
  5020  012D                     l1989:	
  5021                           
  5022                           ;D:\Program Files (x86)\Microchip\xc8\v2.10\pic\sources\c99\common\doprnt.c: 642:     wh
      +                          ile (!(i < 2) && (n || (0 < p) || ((0 < w) && (flags & (1 << 1))))) {
  5023  012D  0140               	movlb	0	; select bank0
  5024  012E  0855               	movf	xtoa@i+1,w
  5025  012F  3A80               	xorlw	128
  5026  0130  00BB               	movwf	??_xtoa
  5027  0131  3080               	movlw	128
  5028  0132  023B               	subwf	??_xtoa,w
  5029  0133  1D03               	skipz
  5030  0134  2937               	goto	u1355
  5031  0135  3002               	movlw	2
  5032  0136  0254               	subwf	xtoa@i,w
  5033  0137                     u1355:	
  5034  0137  1C03               	skipc
  5035  0138  293A               	goto	u1351
  5036  0139  293B               	goto	u1350
  5037  013A                     u1351:	
  5038  013A  2967               	goto	l465
  5039  013B                     u1350:	
  5040  013B                     l1991:	
  5041  013B  0140               	movlb	0	; select bank0
  5042  013C  084C               	movf	xtoa@n,w
  5043  013D  044D               	iorwf	xtoa@n+1,w
  5044  013E  044E               	iorwf	xtoa@n+2,w
  5045  013F  044F               	iorwf	xtoa@n+3,w
  5046  0140  0450               	iorwf	xtoa@n+4,w
  5047  0141  0451               	iorwf	xtoa@n+5,w
  5048  0142  0452               	iorwf	xtoa@n+6,w
  5049  0143  0453               	iorwf	xtoa@n+7,w
  5050  0144  1D03               	skipz
  5051  0145  2947               	goto	u1361
  5052  0146  2948               	goto	u1360
  5053  0147                     u1361:	
  5054  0147  2877               	goto	l1961
  5055  0148                     u1360:	
  5056  0148                     l1993:	
  5057  0148  0849               	movf	xtoa@p+1,w
  5058  0149  3A80               	xorlw	128
  5059  014A  00BB               	movwf	??_xtoa
  5060  014B  3080               	movlw	128
  5061  014C  023B               	subwf	??_xtoa,w
  5062  014D  1D03               	skipz
  5063  014E  2951               	goto	u1375
  5064  014F  3001               	movlw	1
  5065  0150  0248               	subwf	xtoa@p,w
  5066  0151                     u1375:	
  5067  0151  1803               	skipnc
  5068  0152  2954               	goto	u1371
  5069  0153  2955               	goto	u1370
  5070  0154                     u1371:	
  5071  0154  2877               	goto	l1961
  5072  0155                     u1370:	
  5073  0155                     l1995:	
  5074  0155  0140               	movlb	0	; select bank0
  5075  0156  084B               	movf	xtoa@w+1,w
  5076  0157  3A80               	xorlw	128
  5077  0158  00BB               	movwf	??_xtoa
  5078  0159  3080               	movlw	128
  5079  015A  023B               	subwf	??_xtoa,w
  5080  015B  1D03               	skipz
  5081  015C  295F               	goto	u1385
  5082  015D  3001               	movlw	1
  5083  015E  024A               	subwf	xtoa@w,w
  5084  015F                     u1385:	
  5085  015F  1C03               	skipc
  5086  0160  2962               	goto	u1381
  5087  0161  2963               	goto	u1380
  5088  0162                     u1381:	
  5089  0162  2967               	goto	l465
  5090  0163                     u1380:	
  5091  0163                     l1997:	
  5092  0163  18FA               	btfsc	_flags,1
  5093  0164  2966               	goto	u1391
  5094  0165  2967               	goto	u1390
  5095  0166                     u1391:	
  5096  0166  2877               	goto	l1961
  5097  0167                     u1390:	
  5098  0167                     l465:	
  5099                           
  5100                           ;D:\Program Files (x86)\Microchip\xc8\v2.10\pic\sources\c99\common\doprnt.c: 656:     if
      +                           (flags & (1 << 4)) {
  5101  0167  1E7A               	btfss	_flags,4
  5102  0168  296A               	goto	u1401
  5103  0169  296B               	goto	u1400
  5104  016A                     u1401:	
  5105  016A  2986               	goto	l2005
  5106  016B                     u1400:	
  5107  016B                     l1999:	
  5108                           
  5109                           ;D:\Program Files (x86)\Microchip\xc8\v2.10\pic\sources\c99\common\doprnt.c: 657:       
      +                            --i;
  5110  016B  30FF               	movlw	255
  5111  016C  0140               	movlb	0	; select bank0
  5112  016D  07D4               	addwf	xtoa@i,f
  5113  016E  30FF               	movlw	255
  5114  016F  3DD5               	addwfc	xtoa@i+1,f
  5115  0170                     l2001:	
  5116                           
  5117                           ;D:\Program Files (x86)\Microchip\xc8\v2.10\pic\sources\c99\common\doprnt.c: 658:       
      +                            dbuf[i] = x;
  5118  0170  083A               	movf	xtoa@x,w
  5119  0171  00BB               	movwf	??_xtoa
  5120  0172  0854               	movf	xtoa@i,w
  5121  0173  3E20               	addlw	(low (_dbuf| (0+256)))& (0+255)
  5122  0174  0086               	movwf	6
  5123  0175  3001               	movlw	1	; select bank2/3
  5124  0176  0087               	movwf	7
  5125  0177  083B               	movf	??_xtoa,w
  5126  0178  0081               	movwf	1
  5127  0179                     l2003:	
  5128                           
  5129                           ;D:\Program Files (x86)\Microchip\xc8\v2.10\pic\sources\c99\common\doprnt.c: 659:       
      +                            --i;
  5130  0179  30FF               	movlw	255
  5131  017A  07D4               	addwf	xtoa@i,f
  5132  017B  30FF               	movlw	255
  5133  017C  3DD5               	addwfc	xtoa@i+1,f
  5134                           
  5135                           ;D:\Program Files (x86)\Microchip\xc8\v2.10\pic\sources\c99\common\doprnt.c: 660:       
      +                            dbuf[i] = '0';
  5136  017D  3030               	movlw	48
  5137  017E  00BB               	movwf	??_xtoa
  5138  017F  0854               	movf	xtoa@i,w
  5139  0180  3E20               	addlw	(low (_dbuf| (0+256)))& (0+255)
  5140  0181  0086               	movwf	6
  5141  0182  3001               	movlw	1	; select bank2/3
  5142  0183  0087               	movwf	7
  5143  0184  083B               	movf	??_xtoa,w
  5144  0185  0081               	movwf	1
  5145  0186                     l2005:	
  5146                           
  5147                           ;D:\Program Files (x86)\Microchip\xc8\v2.10\pic\sources\c99\common\doprnt.c: 664:     re
      +                          turn pad(fp, &dbuf[i], w);
  5148  0186  0140               	movlb	0	; select bank0
  5149  0187  0854               	movf	xtoa@i,w
  5150  0188  3E20               	addlw	(low (_dbuf| (0+256)))& (0+255)
  5151  0189  00BB               	movwf	??_xtoa
  5152  018A  083B               	movf	??_xtoa,w
  5153  018B  00A9               	movwf	pad@buf
  5154  018C  084B               	movf	xtoa@w+1,w
  5155  018D  00AB               	movwf	pad@p+1
  5156  018E  084A               	movf	xtoa@w,w
  5157  018F  00AA               	movwf	pad@p
  5158  0190  0847               	movf	xtoa@fp,w
  5159  0191  3183  2327  3180   	fcall	_pad
  5160  0194  0140               	movlb	0	; select bank0
  5161  0195  082A               	movf	?_pad+1,w
  5162  0196  00B3               	movwf	?_xtoa+1
  5163  0197  0829               	movf	?_pad,w
  5164  0198  00B2               	movwf	?_xtoa
  5165  0199                     l467:	
  5166  0199  0008               	return
  5167  019A                     __end_of_xtoa:	
  5168                           
  5169                           	psect	text5
  5170  0480                     __ptext5:	
  5171 ;; *************** function _toupper *****************
  5172 ;; Defined at:
  5173 ;;		line 4 in file "D:\Program Files (x86)\Microchip\xc8\v2.10\pic\sources\c99\common\toupper.c"
  5174 ;; Parameters:    Size  Location     Type
  5175 ;;  c               2    8[COMMON] int 
  5176 ;; Auto vars:     Size  Location     Type
  5177 ;;		None
  5178 ;; Return value:  Size  Location     Type
  5179 ;;                  2    8[COMMON] int 
  5180 ;; Registers used:
  5181 ;;		wreg, status,2, status,0
  5182 ;; Tracked objects:
  5183 ;;		On entry : 0/0
  5184 ;;		On exit  : 0/0
  5185 ;;		Unchanged: 0/0
  5186 ;; Data sizes:     COMMON   BANK0   BANK1   BANK2   BANK3   BANK4   BANK5   BANK6   BANK7   BANK8   BANK9  BANK10  BANK1
      +1  BANK12  BANK13  BANK14  BANK15  BANK16  BANK17  BANK18  BANK19  BANK20  BANK21  BANK22  BANK23  BANK24  BANK25
  5187 ;;      Params:         2       0       0       0       0       0       0       0       0       0       0       0       
      +0       0       0       0       0       0       0       0       0       0       0       0       0       0       0
  5188 ;;      Locals:         0       2       0       0       0       0       0       0       0       0       0       0       
      +0       0       0       0       0       0       0       0       0       0       0       0       0       0       0
  5189 ;;      Temps:          0       4       0       0       0       0       0       0       0       0       0       0       
      +0       0       0       0       0       0       0       0       0       0       0       0       0       0       0
  5190 ;;      Totals:         2       6       0       0       0       0       0       0       0       0       0       0       
      +0       0       0       0       0       0       0       0       0       0       0       0       0       0       0
  5191 ;;Total ram usage:        8 bytes
  5192 ;; Hardware stack levels used:    1
  5193 ;; Hardware stack levels required when called:    4
  5194 ;; This function calls:
  5195 ;;		_islower
  5196 ;; This function is called by:
  5197 ;;		_xtoa
  5198 ;; This function uses a non-reentrant model
  5199 ;;
  5200                           
  5201                           
  5202                           ;psect for function _toupper
  5203  0480                     _toupper:	
  5204  0480                     l1935:	
  5205                           ;incstack = 0
  5206                           ; Regs used in _toupper: [wreg+status,2+status,0]
  5207                           
  5208  0480  0878               	movf	toupper@c,w
  5209  0481  3E9F               	addlw	159
  5210  0482  0140               	movlb	0	; select bank0
  5211  0483  00A0               	movwf	??_toupper
  5212  0484  30FF               	movlw	255
  5213  0485  3D79               	addwfc	toupper@c+1,w
  5214  0486  00A1               	movwf	??_toupper+1
  5215  0487  3000               	movlw	0
  5216  0488  0221               	subwf	??_toupper+1,w
  5217  0489  301A               	movlw	26
  5218  048A  1903               	skipnz
  5219  048B  0220               	subwf	??_toupper,w
  5220  048C  1C03               	skipc
  5221  048D  2C8F               	goto	u1211
  5222  048E  2C91               	goto	u1210
  5223  048F                     u1211:	
  5224  048F  3001               	movlw	1
  5225  0490  2C92               	goto	u1220
  5226  0491                     u1210:	
  5227  0491  3000               	movlw	0
  5228  0492                     u1220:	
  5229  0492  00A2               	movwf	??_toupper+2
  5230  0493  01A3               	clrf	??_toupper+3
  5231  0494  0822               	movf	??_toupper+2,w
  5232  0495  00A4               	movwf	_toupper$1006
  5233  0496  0823               	movf	??_toupper+3,w
  5234  0497  00A5               	movwf	_toupper$1006+1
  5235  0498                     l1939:	
  5236  0498  0824               	movf	_toupper$1006,w
  5237  0499  0425               	iorwf	_toupper$1006+1,w
  5238  049A  1903               	btfsc	3,2
  5239  049B  2C9D               	goto	u1231
  5240  049C  2C9E               	goto	u1230
  5241  049D                     u1231:	
  5242  049D  2CA5               	goto	l985
  5243  049E                     u1230:	
  5244  049E                     l1941:	
  5245  049E  305F               	movlw	95
  5246  049F  0578               	andwf	toupper@c,w
  5247  04A0  00F8               	movwf	?_toupper
  5248  04A1  3000               	movlw	0
  5249  04A2  0579               	andwf	toupper@c+1,w
  5250  04A3  00F9               	movwf	?_toupper+1
  5251  04A4  2CA5               	goto	l990
  5252  04A5                     l985:	
  5253  04A5                     l990:	
  5254  04A5  0008               	return
  5255  04A6                     __end_of_toupper:	
  5256                           
  5257                           	psect	text6
  5258  0534                     __ptext6:	
  5259 ;; *************** function _islower *****************
  5260 ;; Defined at:
  5261 ;;		line 5 in file "D:\Program Files (x86)\Microchip\xc8\v2.10\pic\sources\c99\common\islower.c"
  5262 ;; Parameters:    Size  Location     Type
  5263 ;;  c               2    2[COMMON] int 
  5264 ;; Auto vars:     Size  Location     Type
  5265 ;;		None
  5266 ;; Return value:  Size  Location     Type
  5267 ;;                  2    2[COMMON] int 
  5268 ;; Registers used:
  5269 ;;		wreg, status,2, status,0
  5270 ;; Tracked objects:
  5271 ;;		On entry : 0/0
  5272 ;;		On exit  : 0/0
  5273 ;;		Unchanged: 0/0
  5274 ;; Data sizes:     COMMON   BANK0   BANK1   BANK2   BANK3   BANK4   BANK5   BANK6   BANK7   BANK8   BANK9  BANK10  BANK1
      +1  BANK12  BANK13  BANK14  BANK15  BANK16  BANK17  BANK18  BANK19  BANK20  BANK21  BANK22  BANK23  BANK24  BANK25
  5275 ;;      Params:         2       0       0       0       0       0       0       0       0       0       0       0       
      +0       0       0       0       0       0       0       0       0       0       0       0       0       0       0
  5276 ;;      Locals:         0       0       0       0       0       0       0       0       0       0       0       0       
      +0       0       0       0       0       0       0       0       0       0       0       0       0       0       0
  5277 ;;      Temps:          4       0       0       0       0       0       0       0       0       0       0       0       
      +0       0       0       0       0       0       0       0       0       0       0       0       0       0       0
  5278 ;;      Totals:         6       0       0       0       0       0       0       0       0       0       0       0       
      +0       0       0       0       0       0       0       0       0       0       0       0       0       0       0
  5279 ;;Total ram usage:        6 bytes
  5280 ;; Hardware stack levels used:    1
  5281 ;; Hardware stack levels required when called:    3
  5282 ;; This function calls:
  5283 ;;		Nothing
  5284 ;; This function is called by:
  5285 ;;		_toupper
  5286 ;; This function uses a non-reentrant model
  5287 ;;
  5288                           
  5289                           
  5290                           ;psect for function _islower
  5291  0534                     _islower:	
  5292  0534                     l1903:	
  5293                           ;incstack = 0
  5294                           ; Regs used in _islower: [wreg+status,2+status,0]
  5295                           
  5296  0534  0872               	movf	islower@c,w
  5297  0535  3E9F               	addlw	159
  5298  0536  00F4               	movwf	??_islower
  5299  0537  30FF               	movlw	255
  5300  0538  3D73               	addwfc	islower@c+1,w
  5301  0539  00F5               	movwf	??_islower+1
  5302  053A  3000               	movlw	0
  5303  053B  0275               	subwf	??_islower+1,w
  5304  053C  301A               	movlw	26
  5305  053D  1903               	skipnz
  5306  053E  0274               	subwf	??_islower,w
  5307  053F  1C03               	skipc
  5308  0540  2D42               	goto	u1111
  5309  0541  2D44               	goto	u1110
  5310  0542                     u1111:	
  5311  0542  3001               	movlw	1
  5312  0543  2D45               	goto	u1120
  5313  0544                     u1110:	
  5314  0544  3000               	movlw	0
  5315  0545                     u1120:	
  5316  0545  00F6               	movwf	??_islower+2
  5317  0546  01F7               	clrf	??_islower+3
  5318  0547  0876               	movf	??_islower+2,w
  5319  0548  00F2               	movwf	?_islower
  5320  0549  0877               	movf	??_islower+3,w
  5321  054A  00F3               	movwf	?_islower+1
  5322  054B                     l1002:	
  5323  054B  0008               	return
  5324  054C                     __end_of_islower:	
  5325                           
  5326                           	psect	text7
  5327  0327                     __ptext7:	
  5328 ;; *************** function _pad *****************
  5329 ;; Defined at:
  5330 ;;		line 72 in file "D:\Program Files (x86)\Microchip\xc8\v2.10\pic\sources\c99\common\doprnt.c"
  5331 ;; Parameters:    Size  Location     Type
  5332 ;;  fp              1    wreg     PTR struct _IO_FILE
  5333 ;;		 -> NULL(0), 
  5334 ;;  buf             1    9[BANK0 ] PTR unsigned char 
  5335 ;;		 -> dbuf(32), 
  5336 ;;  p               2   10[BANK0 ] int 
  5337 ;; Auto vars:     Size  Location     Type
  5338 ;;  fp              1   17[BANK0 ] PTR struct _IO_FILE
  5339 ;;		 -> NULL(0), 
  5340 ;;  w               2   15[BANK0 ] int 
  5341 ;;  i               2   13[BANK0 ] int 
  5342 ;; Return value:  Size  Location     Type
  5343 ;;                  2    9[BANK0 ] int 
  5344 ;; Registers used:
  5345 ;;		wreg, fsr1l, fsr1h, status,2, status,0, pclath, cstack
  5346 ;; Tracked objects:
  5347 ;;		On entry : 0/0
  5348 ;;		On exit  : 0/0
  5349 ;;		Unchanged: 0/0
  5350 ;; Data sizes:     COMMON   BANK0   BANK1   BANK2   BANK3   BANK4   BANK5   BANK6   BANK7   BANK8   BANK9  BANK10  BANK1
      +1  BANK12  BANK13  BANK14  BANK15  BANK16  BANK17  BANK18  BANK19  BANK20  BANK21  BANK22  BANK23  BANK24  BANK25
  5351 ;;      Params:         0       3       0       0       0       0       0       0       0       0       0       0       
      +0       0       0       0       0       0       0       0       0       0       0       0       0       0       0
  5352 ;;      Locals:         0       5       0       0       0       0       0       0       0       0       0       0       
      +0       0       0       0       0       0       0       0       0       0       0       0       0       0       0
  5353 ;;      Temps:          0       1       0       0       0       0       0       0       0       0       0       0       
      +0       0       0       0       0       0       0       0       0       0       0       0       0       0       0
  5354 ;;      Totals:         0       9       0       0       0       0       0       0       0       0       0       0       
      +0       0       0       0       0       0       0       0       0       0       0       0       0       0       0
  5355 ;;Total ram usage:        9 bytes
  5356 ;; Hardware stack levels used:    1
  5357 ;; Hardware stack levels required when called:    6
  5358 ;; This function calls:
  5359 ;;		_fputc
  5360 ;;		_fputs
  5361 ;;		_strlen
  5362 ;; This function is called by:
  5363 ;;		_xtoa
  5364 ;; This function uses a non-reentrant model
  5365 ;;
  5366                           
  5367                           
  5368                           ;psect for function _pad
  5369  0327                     _pad:	
  5370                           
  5371                           ;incstack = 0
  5372                           ; Regs used in _pad: [wreg+fsr1l+fsr1h+status,2+status,0+pclath+cstack]
  5373                           ;pad@fp stored from wreg
  5374  0327  0140               	movlb	0	; select bank0
  5375  0328  00B1               	movwf	pad@fp
  5376  0329                     l1907:	
  5377                           
  5378                           ;D:\Program Files (x86)\Microchip\xc8\v2.10\pic\sources\c99\common\doprnt.c: 72: static 
      +                          int pad(FILE *fp, char *buf, int p);D:\Program Files (x86)\Microchip\xc8\v2.10\pic\sourc
      +                          es\c99\common\doprnt.c: 73: {;D:\Program Files (x86)\Microchip\xc8\v2.10\pic\sources\c99
      +                          \common\doprnt.c: 74:     int i, w;;D:\Program Files (x86)\Microchip\xc8\v2.10\pic\sourc
      +                          es\c99\common\doprnt.c: 77:     if (flags & (1 << 0)) {
  5379  0329  1C7A               	btfss	_flags,0
  5380  032A  2B2C               	goto	u1131
  5381  032B  2B2D               	goto	u1130
  5382  032C                     u1131:	
  5383  032C  2B35               	goto	l1911
  5384  032D                     u1130:	
  5385  032D                     l1909:	
  5386                           
  5387                           ;D:\Program Files (x86)\Microchip\xc8\v2.10\pic\sources\c99\common\doprnt.c: 78:        
      +                           fputs((const char *)buf, fp);
  5388  032D  0831               	movf	pad@fp,w
  5389  032E  00AC               	movwf	??_pad
  5390  032F  082C               	movf	??_pad,w
  5391  0330  00F6               	movwf	fputs@fp
  5392  0331  0829               	movf	pad@buf,w
  5393  0332  3184  2457  3183   	fcall	_fputs
  5394  0335                     l1911:	
  5395                           
  5396                           ;D:\Program Files (x86)\Microchip\xc8\v2.10\pic\sources\c99\common\doprnt.c: 82:     w =
      +                           (p < 0) ? 0 : p;
  5397  0335  0140               	movlb	0	; select bank0
  5398  0336  1BAB               	btfsc	pad@p+1,7
  5399  0337  2B39               	goto	u1141
  5400  0338  2B3A               	goto	u1140
  5401  0339                     u1141:	
  5402  0339  2B3F               	goto	l1915
  5403  033A                     u1140:	
  5404  033A                     l1913:	
  5405  033A  082B               	movf	pad@p+1,w
  5406  033B  00B0               	movwf	pad@w+1
  5407  033C  082A               	movf	pad@p,w
  5408  033D  00AF               	movwf	pad@w
  5409  033E  2B41               	goto	l432
  5410  033F                     l1915:	
  5411  033F  01AF               	clrf	pad@w
  5412  0340  01B0               	clrf	pad@w+1
  5413  0341                     l432:	
  5414                           
  5415                           ;D:\Program Files (x86)\Microchip\xc8\v2.10\pic\sources\c99\common\doprnt.c: 83:     i =
      +                           0;
  5416  0341  01AD               	clrf	pad@i
  5417  0342  01AE               	clrf	pad@i+1
  5418                           
  5419                           ;D:\Program Files (x86)\Microchip\xc8\v2.10\pic\sources\c99\common\doprnt.c: 84:     whi
      +                          le (i < w) {
  5420  0343  2B55               	goto	l1921
  5421  0344                     l1917:	
  5422                           
  5423                           ;D:\Program Files (x86)\Microchip\xc8\v2.10\pic\sources\c99\common\doprnt.c: 85:        
      +                           fputc(' ', fp);
  5424  0344  3020               	movlw	32
  5425  0345  00F3               	movwf	fputc@c
  5426  0346  3000               	movlw	0
  5427  0347  00F4               	movwf	fputc@c+1
  5428  0348  0140               	movlb	0	; select bank0
  5429  0349  0831               	movf	pad@fp,w
  5430  034A  00AC               	movwf	??_pad
  5431  034B  082C               	movf	??_pad,w
  5432  034C  00F5               	movwf	fputc@fp
  5433  034D  3183  237D  3183   	fcall	_fputc
  5434  0350                     l1919:	
  5435                           
  5436                           ;D:\Program Files (x86)\Microchip\xc8\v2.10\pic\sources\c99\common\doprnt.c: 86:        
      +                           ++i;
  5437  0350  3001               	movlw	1
  5438  0351  0140               	movlb	0	; select bank0
  5439  0352  07AD               	addwf	pad@i,f
  5440  0353  3000               	movlw	0
  5441  0354  3DAE               	addwfc	pad@i+1,f
  5442  0355                     l1921:	
  5443                           
  5444                           ;D:\Program Files (x86)\Microchip\xc8\v2.10\pic\sources\c99\common\doprnt.c: 84:     whi
      +                          le (i < w) {
  5445  0355  082E               	movf	pad@i+1,w
  5446  0356  3A80               	xorlw	128
  5447  0357  00AC               	movwf	??_pad
  5448  0358  0830               	movf	pad@w+1,w
  5449  0359  3A80               	xorlw	128
  5450  035A  022C               	subwf	??_pad,w
  5451  035B  1D03               	skipz
  5452  035C  2B5F               	goto	u1155
  5453  035D  082F               	movf	pad@w,w
  5454  035E  022D               	subwf	pad@i,w
  5455  035F                     u1155:	
  5456  035F  1C03               	skipc
  5457  0360  2B62               	goto	u1151
  5458  0361  2B63               	goto	u1150
  5459  0362                     u1151:	
  5460  0362  2B44               	goto	l1917
  5461  0363                     u1150:	
  5462  0363                     l435:	
  5463                           
  5464                           ;D:\Program Files (x86)\Microchip\xc8\v2.10\pic\sources\c99\common\doprnt.c: 90:     if 
      +                          (!(flags & (1 << 0))) {
  5465  0363  187A               	btfsc	_flags,0
  5466  0364  2B66               	goto	u1161
  5467  0365  2B67               	goto	u1160
  5468  0366                     u1161:	
  5469  0366  2B70               	goto	l436
  5470  0367                     u1160:	
  5471  0367                     l1923:	
  5472                           
  5473                           ;D:\Program Files (x86)\Microchip\xc8\v2.10\pic\sources\c99\common\doprnt.c: 91:        
      +                           fputs((const char *)buf, fp);
  5474  0367  0140               	movlb	0	; select bank0
  5475  0368  0831               	movf	pad@fp,w
  5476  0369  00AC               	movwf	??_pad
  5477  036A  082C               	movf	??_pad,w
  5478  036B  00F6               	movwf	fputs@fp
  5479  036C  0829               	movf	pad@buf,w
  5480  036D  3184  2457  3183   	fcall	_fputs
  5481  0370                     l436:	
  5482                           ;D:\Program Files (x86)\Microchip\xc8\v2.10\pic\sources\c99\common\doprnt.c: 92:     }
  5483                           
  5484                           
  5485                           ;D:\Program Files (x86)\Microchip\xc8\v2.10\pic\sources\c99\common\doprnt.c: 94:     ret
      +                          urn strlen(buf) + w;
  5486  0370  0140               	movlb	0	; select bank0
  5487  0371  0829               	movf	pad@buf,w
  5488  0372  3185  2501  3183   	fcall	_strlen
  5489  0375  0140               	movlb	0	; select bank0
  5490  0376  082F               	movf	pad@w,w
  5491  0377  0772               	addwf	?_strlen,w
  5492  0378  00A9               	movwf	?_pad
  5493  0379  0830               	movf	pad@w+1,w
  5494  037A  3D73               	addwfc	?_strlen+1,w
  5495  037B  00AA               	movwf	?_pad+1
  5496  037C                     l437:	
  5497  037C  0008               	return
  5498  037D                     __end_of_pad:	
  5499                           
  5500                           	psect	text8
  5501  0501                     __ptext8:	
  5502 ;; *************** function _strlen *****************
  5503 ;; Defined at:
  5504 ;;		line 5 in file "D:\Program Files (x86)\Microchip\xc8\v2.10\pic\sources\c99\common\strlen.c"
  5505 ;; Parameters:    Size  Location     Type
  5506 ;;  s               1    wreg     PTR const unsigned char 
  5507 ;;		 -> dbuf(32), 
  5508 ;; Auto vars:     Size  Location     Type
  5509 ;;  s               1    6[COMMON] PTR const unsigned char 
  5510 ;;		 -> dbuf(32), 
  5511 ;;  a               1    5[COMMON] PTR const unsigned char 
  5512 ;;		 -> dbuf(32), 
  5513 ;; Return value:  Size  Location     Type
  5514 ;;                  2    2[COMMON] unsigned int 
  5515 ;; Registers used:
  5516 ;;		wreg, fsr1l, fsr1h, status,2, status,0
  5517 ;; Tracked objects:
  5518 ;;		On entry : 0/0
  5519 ;;		On exit  : 0/0
  5520 ;;		Unchanged: 0/0
  5521 ;; Data sizes:     COMMON   BANK0   BANK1   BANK2   BANK3   BANK4   BANK5   BANK6   BANK7   BANK8   BANK9  BANK10  BANK1
      +1  BANK12  BANK13  BANK14  BANK15  BANK16  BANK17  BANK18  BANK19  BANK20  BANK21  BANK22  BANK23  BANK24  BANK25
  5522 ;;      Params:         2       0       0       0       0       0       0       0       0       0       0       0       
      +0       0       0       0       0       0       0       0       0       0       0       0       0       0       0
  5523 ;;      Locals:         2       0       0       0       0       0       0       0       0       0       0       0       
      +0       0       0       0       0       0       0       0       0       0       0       0       0       0       0
  5524 ;;      Temps:          1       0       0       0       0       0       0       0       0       0       0       0       
      +0       0       0       0       0       0       0       0       0       0       0       0       0       0       0
  5525 ;;      Totals:         5       0       0       0       0       0       0       0       0       0       0       0       
      +0       0       0       0       0       0       0       0       0       0       0       0       0       0       0
  5526 ;;Total ram usage:        5 bytes
  5527 ;; Hardware stack levels used:    1
  5528 ;; Hardware stack levels required when called:    3
  5529 ;; This function calls:
  5530 ;;		Nothing
  5531 ;; This function is called by:
  5532 ;;		_pad
  5533 ;; This function uses a non-reentrant model
  5534 ;;
  5535                           
  5536                           
  5537                           ;psect for function _strlen
  5538  0501                     _strlen:	
  5539                           
  5540                           ;incstack = 0
  5541                           ; Regs used in _strlen: [wreg+fsr1l+fsr1h+status,2+status,0]
  5542                           ;strlen@s stored from wreg
  5543  0501  00F6               	movwf	strlen@s
  5544  0502                     l1893:	
  5545  0502  0876               	movf	strlen@s,w
  5546  0503  00F4               	movwf	??_strlen
  5547  0504  0874               	movf	??_strlen,w
  5548  0505  00F5               	movwf	strlen@a
  5549  0506  2D0B               	goto	l1897
  5550  0507                     l1895:	
  5551  0507  3001               	movlw	1
  5552  0508  00F4               	movwf	??_strlen
  5553  0509  0874               	movf	??_strlen,w
  5554  050A  07F6               	addwf	strlen@s,f
  5555  050B                     l1897:	
  5556  050B  0876               	movf	strlen@s,w
  5557  050C  0086               	movwf	6
  5558  050D  3001               	movlw	1	; select bank2/3
  5559  050E  0087               	movwf	7
  5560  050F  0801               	movf	1,w
  5561  0510  1D03               	btfss	3,2
  5562  0511  2D13               	goto	u1101
  5563  0512  2D14               	goto	u1100
  5564  0513                     u1101:	
  5565  0513  2D07               	goto	l1895
  5566  0514                     u1100:	
  5567  0514                     l1899:	
  5568  0514  0875               	movf	strlen@a,w
  5569  0515  0276               	subwf	strlen@s,w
  5570  0516  00F2               	movwf	?_strlen
  5571  0517  01F3               	clrf	?_strlen+1
  5572  0518  1BF2               	btfsc	?_strlen,7
  5573  0519  03F3               	decf	?_strlen+1,f
  5574  051A                     l980:	
  5575  051A  0008               	return
  5576  051B                     __end_of_strlen:	
  5577                           
  5578                           	psect	text9
  5579  0457                     __ptext9:	
  5580 ;; *************** function _fputs *****************
  5581 ;; Defined at:
  5582 ;;		line 8 in file "D:\Program Files (x86)\Microchip\xc8\v2.10\pic\sources\c99\common\nf_fputs.c"
  5583 ;; Parameters:    Size  Location     Type
  5584 ;;  s               1    wreg     PTR const unsigned char 
  5585 ;;		 -> dbuf(32), 
  5586 ;;  fp              1    6[COMMON] PTR struct _IO_FILE
  5587 ;;		 -> NULL(0), 
  5588 ;; Auto vars:     Size  Location     Type
  5589 ;;  s               1    8[BANK0 ] PTR const unsigned char 
  5590 ;;		 -> dbuf(32), 
  5591 ;;  i               2    6[BANK0 ] int 
  5592 ;;  c               1    5[BANK0 ] unsigned char 
  5593 ;; Return value:  Size  Location     Type
  5594 ;;                  2    6[COMMON] int 
  5595 ;; Registers used:
  5596 ;;		wreg, fsr1l, fsr1h, status,2, status,0, pclath, cstack
  5597 ;; Tracked objects:
  5598 ;;		On entry : 0/0
  5599 ;;		On exit  : 0/0
  5600 ;;		Unchanged: 0/0
  5601 ;; Data sizes:     COMMON   BANK0   BANK1   BANK2   BANK3   BANK4   BANK5   BANK6   BANK7   BANK8   BANK9  BANK10  BANK1
      +1  BANK12  BANK13  BANK14  BANK15  BANK16  BANK17  BANK18  BANK19  BANK20  BANK21  BANK22  BANK23  BANK24  BANK25
  5602 ;;      Params:         1       0       0       0       0       0       0       0       0       0       0       0       
      +0       0       0       0       0       0       0       0       0       0       0       0       0       0       0
  5603 ;;      Locals:         0       4       0       0       0       0       0       0       0       0       0       0       
      +0       0       0       0       0       0       0       0       0       0       0       0       0       0       0
  5604 ;;      Temps:          3       0       0       0       0       0       0       0       0       0       0       0       
      +0       0       0       0       0       0       0       0       0       0       0       0       0       0       0
  5605 ;;      Totals:         4       4       0       0       0       0       0       0       0       0       0       0       
      +0       0       0       0       0       0       0       0       0       0       0       0       0       0       0
  5606 ;;Total ram usage:        8 bytes
  5607 ;; Hardware stack levels used:    1
  5608 ;; Hardware stack levels required when called:    5
  5609 ;; This function calls:
  5610 ;;		_fputc
  5611 ;; This function is called by:
  5612 ;;		_pad
  5613 ;; This function uses a non-reentrant model
  5614 ;;
  5615                           
  5616                           
  5617                           ;psect for function _fputs
  5618  0457                     _fputs:	
  5619                           
  5620                           ;incstack = 0
  5621                           ; Regs used in _fputs: [wreg+fsr1l+fsr1h+status,2+status,0+pclath+cstack]
  5622                           ;fputs@s stored from wreg
  5623  0457  0140               	movlb	0	; select bank0
  5624  0458  00A8               	movwf	fputs@s
  5625  0459                     l1885:	
  5626  0459  01A6               	clrf	fputs@i
  5627  045A  01A7               	clrf	fputs@i+1
  5628  045B  2C6F               	goto	l1891
  5629  045C                     l1887:	
  5630  045C  0825               	movf	fputs@c,w
  5631  045D  00F7               	movwf	??_fputs
  5632  045E  01F8               	clrf	??_fputs+1
  5633  045F  0877               	movf	??_fputs,w
  5634  0460  00F3               	movwf	fputc@c
  5635  0461  0878               	movf	??_fputs+1,w
  5636  0462  00F4               	movwf	fputc@c+1
  5637  0463  0876               	movf	fputs@fp,w
  5638  0464  00F9               	movwf	??_fputs+2
  5639  0465  0879               	movf	??_fputs+2,w
  5640  0466  00F5               	movwf	fputc@fp
  5641  0467  3183  237D  3184   	fcall	_fputc
  5642  046A                     l1889:	
  5643  046A  3001               	movlw	1
  5644  046B  0140               	movlb	0	; select bank0
  5645  046C  07A6               	addwf	fputs@i,f
  5646  046D  3000               	movlw	0
  5647  046E  3DA7               	addwfc	fputs@i+1,f
  5648  046F                     l1891:	
  5649  046F  0826               	movf	fputs@i,w
  5650  0470  0728               	addwf	fputs@s,w
  5651  0471  00F7               	movwf	??_fputs
  5652  0472  0877               	movf	??_fputs,w
  5653  0473  0086               	movwf	6
  5654  0474  3001               	movlw	1	; select bank2/3
  5655  0475  0087               	movwf	7
  5656  0476  0801               	movf	1,w
  5657  0477  00F8               	movwf	??_fputs+1
  5658  0478  0878               	movf	??_fputs+1,w
  5659  0479  00A5               	movwf	fputs@c
  5660  047A  0825               	movf	fputs@c,w
  5661  047B  1D03               	btfss	3,2
  5662  047C  2C7E               	goto	u1091
  5663  047D  2C7F               	goto	u1090
  5664  047E                     u1091:	
  5665  047E  2C5C               	goto	l1887
  5666  047F                     u1090:	
  5667  047F                     l967:	
  5668  047F  0008               	return
  5669  0480                     __end_of_fputs:	
  5670                           
  5671                           	psect	text10
  5672  037D                     __ptext10:	
  5673 ;; *************** function _fputc *****************
  5674 ;; Defined at:
  5675 ;;		line 8 in file "D:\Program Files (x86)\Microchip\xc8\v2.10\pic\sources\c99\common\nf_fputc.c"
  5676 ;; Parameters:    Size  Location     Type
  5677 ;;  c               2    3[COMMON] int 
  5678 ;;  fp              1    5[COMMON] PTR struct _IO_FILE
  5679 ;;		 -> NULL(0), 
  5680 ;; Auto vars:     Size  Location     Type
  5681 ;;		None
  5682 ;; Return value:  Size  Location     Type
  5683 ;;                  2    3[COMMON] int 
  5684 ;; Registers used:
  5685 ;;		wreg, fsr1l, fsr1h, status,2, status,0, pclath, cstack
  5686 ;; Tracked objects:
  5687 ;;		On entry : 0/0
  5688 ;;		On exit  : 0/0
  5689 ;;		Unchanged: 0/0
  5690 ;; Data sizes:     COMMON   BANK0   BANK1   BANK2   BANK3   BANK4   BANK5   BANK6   BANK7   BANK8   BANK9  BANK10  BANK1
      +1  BANK12  BANK13  BANK14  BANK15  BANK16  BANK17  BANK18  BANK19  BANK20  BANK21  BANK22  BANK23  BANK24  BANK25
  5691 ;;      Params:         3       0       0       0       0       0       0       0       0       0       0       0       
      +0       0       0       0       0       0       0       0       0       0       0       0       0       0       0
  5692 ;;      Locals:         0       0       0       0       0       0       0       0       0       0       0       0       
      +0       0       0       0       0       0       0       0       0       0       0       0       0       0       0
  5693 ;;      Temps:          0       5       0       0       0       0       0       0       0       0       0       0       
      +0       0       0       0       0       0       0       0       0       0       0       0       0       0       0
  5694 ;;      Totals:         3       5       0       0       0       0       0       0       0       0       0       0       
      +0       0       0       0       0       0       0       0       0       0       0       0       0       0       0
  5695 ;;Total ram usage:        8 bytes
  5696 ;; Hardware stack levels used:    1
  5697 ;; Hardware stack levels required when called:    4
  5698 ;; This function calls:
  5699 ;;		_putch
  5700 ;; This function is called by:
  5701 ;;		_pad
  5702 ;;		_vfpfcnvrt
  5703 ;;		_fputs
  5704 ;; This function uses a non-reentrant model
  5705 ;;
  5706                           
  5707                           
  5708                           ;psect for function _fputc
  5709  037D                     _fputc:	
  5710  037D                     l1871:	
  5711                           ;incstack = 0
  5712                           ; Regs used in _fputc: [wreg+fsr1l+fsr1h+status,2+status,0+pclath+cstack]
  5713                           
  5714  037D  0875               	movf	fputc@fp,w
  5715  037E  1903               	btfsc	3,2
  5716  037F  2B81               	goto	u1051
  5717  0380  2B82               	goto	u1050
  5718  0381                     u1051:	
  5719  0381  2B87               	goto	l1875
  5720  0382                     u1050:	
  5721  0382                     l1873:	
  5722  0382  0875               	movf	fputc@fp,w
  5723  0383  1D03               	btfss	3,2
  5724  0384  2B86               	goto	u1061
  5725  0385  2B87               	goto	u1060
  5726  0386                     u1061:	
  5727  0386  2B8C               	goto	l1877
  5728  0387                     u1060:	
  5729  0387                     l1875:	
  5730  0387  0873               	movf	fputc@c,w
  5731  0388  3185  25F4  3183   	fcall	_putch
  5732  038B  2BBC               	goto	l959
  5733  038C                     l1877:	
  5734  038C  0875               	movf	fputc@fp,w
  5735  038D  3E03               	addlw	3
  5736  038E  0086               	movwf	6
  5737  038F  0187               	clrf	7
  5738  0390  0016               	moviw fsr1++
  5739  0391  0401               	iorwf	1,w
  5740  0392  1903               	btfsc	3,2
  5741  0393  2B95               	goto	u1071
  5742  0394  2B96               	goto	u1070
  5743  0395                     u1071:	
  5744  0395  2BB4               	goto	l1881
  5745  0396                     u1070:	
  5746  0396                     l1879:	
  5747  0396  0875               	movf	fputc@fp,w
  5748  0397  3E03               	addlw	3
  5749  0398  0086               	movwf	6
  5750  0399  0187               	clrf	7
  5751  039A  3F40               	moviw [0]fsr1
  5752  039B  0140               	movlb	0	; select bank0
  5753  039C  00A0               	movwf	??_fputc
  5754  039D  3F41               	moviw [1]fsr1
  5755  039E  00A1               	movwf	??_fputc+1
  5756  039F  0A75               	incf	fputc@fp,w
  5757  03A0  0086               	movwf	6
  5758  03A1  0187               	clrf	7
  5759  03A2  3F40               	moviw [0]fsr1
  5760  03A3  00A2               	movwf	??_fputc+2
  5761  03A4  3F41               	moviw [1]fsr1
  5762  03A5  00A3               	movwf	??_fputc+3
  5763  03A6  0823               	movf	??_fputc+3,w
  5764  03A7  3A80               	xorlw	128
  5765  03A8  00A4               	movwf	??_fputc+4
  5766  03A9  0821               	movf	??_fputc+1,w
  5767  03AA  3A80               	xorlw	128
  5768  03AB  0224               	subwf	??_fputc+4,w
  5769  03AC  1D03               	skipz
  5770  03AD  2BB0               	goto	u1085
  5771  03AE  0820               	movf	??_fputc,w
  5772  03AF  0222               	subwf	??_fputc+2,w
  5773  03B0                     u1085:	
  5774  03B0  1803               	skipnc
  5775  03B1  2BB3               	goto	u1081
  5776  03B2  2BB4               	goto	u1080
  5777  03B3                     u1081:	
  5778  03B3  2BBC               	goto	l959
  5779  03B4                     u1080:	
  5780  03B4                     l1881:	
  5781  03B4  0A75               	incf	fputc@fp,w
  5782  03B5  0086               	movwf	6
  5783  03B6  0187               	clrf	7
  5784  03B7  3001               	movlw	1
  5785  03B8  0781               	addwf	1,f
  5786  03B9  3141               	addfsr 1,1
  5787  03BA  1803               	skipnc
  5788  03BB  0A81               	incf	1,f
  5789  03BC                     l959:	
  5790  03BC  0008               	return
  5791  03BD                     __end_of_fputc:	
  5792                           
  5793                           	psect	text11
  5794  05F4                     __ptext11:	
  5795 ;; *************** function _putch *****************
  5796 ;; Defined at:
  5797 ;;		line 77 in file "mcc_generated_files/eusart1.c"
  5798 ;; Parameters:    Size  Location     Type
  5799 ;;  txData          1    wreg     unsigned char 
  5800 ;; Auto vars:     Size  Location     Type
  5801 ;;  txData          1    2[COMMON] unsigned char 
  5802 ;; Return value:  Size  Location     Type
  5803 ;;                  1    wreg      void 
  5804 ;; Registers used:
  5805 ;;		wreg
  5806 ;; Tracked objects:
  5807 ;;		On entry : 0/0
  5808 ;;		On exit  : 0/0
  5809 ;;		Unchanged: 0/0
  5810 ;; Data sizes:     COMMON   BANK0   BANK1   BANK2   BANK3   BANK4   BANK5   BANK6   BANK7   BANK8   BANK9  BANK10  BANK1
      +1  BANK12  BANK13  BANK14  BANK15  BANK16  BANK17  BANK18  BANK19  BANK20  BANK21  BANK22  BANK23  BANK24  BANK25
  5811 ;;      Params:         0       0       0       0       0       0       0       0       0       0       0       0       
      +0       0       0       0       0       0       0       0       0       0       0       0       0       0       0
  5812 ;;      Locals:         1       0       0       0       0       0       0       0       0       0       0       0       
      +0       0       0       0       0       0       0       0       0       0       0       0       0       0       0
  5813 ;;      Temps:          0       0       0       0       0       0       0       0       0       0       0       0       
      +0       0       0       0       0       0       0       0       0       0       0       0       0       0       0
  5814 ;;      Totals:         1       0       0       0       0       0       0       0       0       0       0       0       
      +0       0       0       0       0       0       0       0       0       0       0       0       0       0       0
  5815 ;;Total ram usage:        1 bytes
  5816 ;; Hardware stack levels used:    1
  5817 ;; Hardware stack levels required when called:    3
  5818 ;; This function calls:
  5819 ;;		Nothing
  5820 ;; This function is called by:
  5821 ;;		_fputc
  5822 ;; This function uses a non-reentrant model
  5823 ;;
  5824                           
  5825                           
  5826                           ;psect for function _putch
  5827  05F4                     _putch:	
  5828                           
  5829                           ;incstack = 0
  5830                           ; Regs used in _putch: [wreg]
  5831                           ;putch@txData stored from wreg
  5832  05F4  00F2               	movwf	putch@txData
  5833  05F5                     l1867:	
  5834  05F5                     l179:	
  5835                           ;mcc_generated_files/eusart1.c: 80:     {;mcc_generated_files/eusart1.c: 81:     }
  5836                           
  5837                           
  5838                           ;mcc_generated_files/eusart1.c: 79:     while(0 == PIR3bits.TX1IF)
  5839  05F5  014E               	movlb	14	; select bank14
  5840  05F6  1E0F               	btfss	15,4	;volatile
  5841  05F7  2DF9               	goto	u1041
  5842  05F8  2DFA               	goto	u1040
  5843  05F9                     u1041:	
  5844  05F9  2DF5               	goto	l179
  5845  05FA                     u1040:	
  5846  05FA                     l1869:	
  5847                           
  5848                           ;mcc_generated_files/eusart1.c: 83:     TX1REG = txData;
  5849  05FA  0872               	movf	putch@txData,w
  5850  05FB  0142               	movlb	2	; select bank2
  5851  05FC  009A               	movwf	26	;volatile
  5852  05FD                     l182:	
  5853  05FD  0008               	return
  5854  05FE                     __end_of_putch:	
  5855                           
  5856                           	psect	text12
  5857  054C                     __ptext12:	
  5858 ;; *************** function _isupper *****************
  5859 ;; Defined at:
  5860 ;;		line 5 in file "D:\Program Files (x86)\Microchip\xc8\v2.10\pic\sources\c99\common\isupper.c"
  5861 ;; Parameters:    Size  Location     Type
  5862 ;;  c               2    2[COMMON] int 
  5863 ;; Auto vars:     Size  Location     Type
  5864 ;;		None
  5865 ;; Return value:  Size  Location     Type
  5866 ;;                  2    2[COMMON] int 
  5867 ;; Registers used:
  5868 ;;		wreg, status,2, status,0
  5869 ;; Tracked objects:
  5870 ;;		On entry : 0/0
  5871 ;;		On exit  : 0/0
  5872 ;;		Unchanged: 0/0
  5873 ;; Data sizes:     COMMON   BANK0   BANK1   BANK2   BANK3   BANK4   BANK5   BANK6   BANK7   BANK8   BANK9  BANK10  BANK1
      +1  BANK12  BANK13  BANK14  BANK15  BANK16  BANK17  BANK18  BANK19  BANK20  BANK21  BANK22  BANK23  BANK24  BANK25
  5874 ;;      Params:         2       0       0       0       0       0       0       0       0       0       0       0       
      +0       0       0       0       0       0       0       0       0       0       0       0       0       0       0
  5875 ;;      Locals:         0       0       0       0       0       0       0       0       0       0       0       0       
      +0       0       0       0       0       0       0       0       0       0       0       0       0       0       0
  5876 ;;      Temps:          4       0       0       0       0       0       0       0       0       0       0       0       
      +0       0       0       0       0       0       0       0       0       0       0       0       0       0       0
  5877 ;;      Totals:         6       0       0       0       0       0       0       0       0       0       0       0       
      +0       0       0       0       0       0       0       0       0       0       0       0       0       0       0
  5878 ;;Total ram usage:        6 bytes
  5879 ;; Hardware stack levels used:    1
  5880 ;; Hardware stack levels required when called:    3
  5881 ;; This function calls:
  5882 ;;		Nothing
  5883 ;; This function is called by:
  5884 ;;		_xtoa
  5885 ;; This function uses a non-reentrant model
  5886 ;;
  5887                           
  5888                           
  5889                           ;psect for function _isupper
  5890  054C                     _isupper:	
  5891  054C                     l1927:	
  5892                           ;incstack = 0
  5893                           ; Regs used in _isupper: [wreg+status,2+status,0]
  5894                           
  5895  054C  0872               	movf	isupper@c,w
  5896  054D  3EBF               	addlw	191
  5897  054E  00F4               	movwf	??_isupper
  5898  054F  30FF               	movlw	255
  5899  0550  3D73               	addwfc	isupper@c+1,w
  5900  0551  00F5               	movwf	??_isupper+1
  5901  0552  3000               	movlw	0
  5902  0553  0275               	subwf	??_isupper+1,w
  5903  0554  301A               	movlw	26
  5904  0555  1903               	skipnz
  5905  0556  0274               	subwf	??_isupper,w
  5906  0557  1C03               	skipc
  5907  0558  2D5A               	goto	u1171
  5908  0559  2D5C               	goto	u1170
  5909  055A                     u1171:	
  5910  055A  3001               	movlw	1
  5911  055B  2D5D               	goto	u1180
  5912  055C                     u1170:	
  5913  055C  3000               	movlw	0
  5914  055D                     u1180:	
  5915  055D  00F6               	movwf	??_isupper+2
  5916  055E  01F7               	clrf	??_isupper+3
  5917  055F  0876               	movf	??_isupper+2,w
  5918  0560  00F2               	movwf	?_isupper
  5919  0561  0877               	movf	??_isupper+3,w
  5920  0562  00F3               	movwf	?_isupper+1
  5921  0563                     l944:	
  5922  0563  0008               	return
  5923  0564                     __end_of_isupper:	
  5924                           
  5925                           	psect	text13
  5926  04C6                     __ptext13:	
  5927 ;; *************** function _isalpha *****************
  5928 ;; Defined at:
  5929 ;;		line 5 in file "D:\Program Files (x86)\Microchip\xc8\v2.10\pic\sources\c99\common\isalpha.c"
  5930 ;; Parameters:    Size  Location     Type
  5931 ;;  c               2    2[COMMON] int 
  5932 ;; Auto vars:     Size  Location     Type
  5933 ;;		None
  5934 ;; Return value:  Size  Location     Type
  5935 ;;                  2    2[COMMON] int 
  5936 ;; Registers used:
  5937 ;;		wreg, status,2, status,0
  5938 ;; Tracked objects:
  5939 ;;		On entry : 0/0
  5940 ;;		On exit  : 0/0
  5941 ;;		Unchanged: 0/0
  5942 ;; Data sizes:     COMMON   BANK0   BANK1   BANK2   BANK3   BANK4   BANK5   BANK6   BANK7   BANK8   BANK9  BANK10  BANK1
      +1  BANK12  BANK13  BANK14  BANK15  BANK16  BANK17  BANK18  BANK19  BANK20  BANK21  BANK22  BANK23  BANK24  BANK25
  5943 ;;      Params:         2       0       0       0       0       0       0       0       0       0       0       0       
      +0       0       0       0       0       0       0       0       0       0       0       0       0       0       0
  5944 ;;      Locals:         0       0       0       0       0       0       0       0       0       0       0       0       
      +0       0       0       0       0       0       0       0       0       0       0       0       0       0       0
  5945 ;;      Temps:          6       0       0       0       0       0       0       0       0       0       0       0       
      +0       0       0       0       0       0       0       0       0       0       0       0       0       0       0
  5946 ;;      Totals:         8       0       0       0       0       0       0       0       0       0       0       0       
      +0       0       0       0       0       0       0       0       0       0       0       0       0       0       0
  5947 ;;Total ram usage:        8 bytes
  5948 ;; Hardware stack levels used:    1
  5949 ;; Hardware stack levels required when called:    3
  5950 ;; This function calls:
  5951 ;;		Nothing
  5952 ;; This function is called by:
  5953 ;;		_xtoa
  5954 ;; This function uses a non-reentrant model
  5955 ;;
  5956                           
  5957                           
  5958                           ;psect for function _isalpha
  5959  04C6                     _isalpha:	
  5960  04C6                     l1931:	
  5961                           ;incstack = 0
  5962                           ; Regs used in _isalpha: [wreg+status,2+status,0]
  5963                           
  5964  04C6  3020               	movlw	32
  5965  04C7  0472               	iorwf	isalpha@c,w
  5966  04C8  00F4               	movwf	??_isalpha
  5967  04C9  3000               	movlw	0
  5968  04CA  0473               	iorwf	isalpha@c+1,w
  5969  04CB  00F5               	movwf	??_isalpha+1
  5970  04CC  0874               	movf	??_isalpha,w
  5971  04CD  3E9F               	addlw	159
  5972  04CE  00F6               	movwf	??_isalpha+2
  5973  04CF  30FF               	movlw	255
  5974  04D0  3D75               	addwfc	??_isalpha+1,w
  5975  04D1  00F7               	movwf	??_isalpha+3
  5976  04D2  3000               	movlw	0
  5977  04D3  0277               	subwf	??_isalpha+3,w
  5978  04D4  301A               	movlw	26
  5979  04D5  1903               	skipnz
  5980  04D6  0276               	subwf	??_isalpha+2,w
  5981  04D7  1C03               	skipc
  5982  04D8  2CDA               	goto	u1191
  5983  04D9  2CDC               	goto	u1190
  5984  04DA                     u1191:	
  5985  04DA  3001               	movlw	1
  5986  04DB  2CDD               	goto	u1200
  5987  04DC                     u1190:	
  5988  04DC  3000               	movlw	0
  5989  04DD                     u1200:	
  5990  04DD  00F8               	movwf	??_isalpha+4
  5991  04DE  01F9               	clrf	??_isalpha+5
  5992  04DF  0878               	movf	??_isalpha+4,w
  5993  04E0  00F2               	movwf	?_isalpha
  5994  04E1  0879               	movf	??_isalpha+5,w
  5995  04E2  00F3               	movwf	?_isalpha+1
  5996  04E3                     l938:	
  5997  04E3  0008               	return
  5998  04E4                     __end_of_isalpha:	
  5999                           
  6000                           	psect	text14
  6001  05FE                     __ptext14:	
  6002 ;; *************** function _isDataAvailable *****************
  6003 ;; Defined at:
  6004 ;;		line 61 in file "main.c"
  6005 ;; Parameters:    Size  Location     Type
  6006 ;;		None
  6007 ;; Auto vars:     Size  Location     Type
  6008 ;;		None
  6009 ;; Return value:  Size  Location     Type
  6010 ;;                  1    wreg      unsigned char 
  6011 ;; Registers used:
  6012 ;;		wreg
  6013 ;; Tracked objects:
  6014 ;;		On entry : 0/0
  6015 ;;		On exit  : 0/0
  6016 ;;		Unchanged: 0/0
  6017 ;; Data sizes:     COMMON   BANK0   BANK1   BANK2   BANK3   BANK4   BANK5   BANK6   BANK7   BANK8   BANK9  BANK10  BANK1
      +1  BANK12  BANK13  BANK14  BANK15  BANK16  BANK17  BANK18  BANK19  BANK20  BANK21  BANK22  BANK23  BANK24  BANK25
  6018 ;;      Params:         0       0       0       0       0       0       0       0       0       0       0       0       
      +0       0       0       0       0       0       0       0       0       0       0       0       0       0       0
  6019 ;;      Locals:         0       0       0       0       0       0       0       0       0       0       0       0       
      +0       0       0       0       0       0       0       0       0       0       0       0       0       0       0
  6020 ;;      Temps:          0       0       0       0       0       0       0       0       0       0       0       0       
      +0       0       0       0       0       0       0       0       0       0       0       0       0       0       0
  6021 ;;      Totals:         0       0       0       0       0       0       0       0       0       0       0       0       
      +0       0       0       0       0       0       0       0       0       0       0       0       0       0       0
  6022 ;;Total ram usage:        0 bytes
  6023 ;; Hardware stack levels used:    1
  6024 ;; Hardware stack levels required when called:    3
  6025 ;; This function calls:
  6026 ;;		Nothing
  6027 ;; This function is called by:
  6028 ;;		_main
  6029 ;; This function uses a non-reentrant model
  6030 ;;
  6031                           
  6032                           
  6033                           ;psect for function _isDataAvailable
  6034  05FE                     _isDataAvailable:	
  6035  05FE                     l2167:	
  6036                           ;incstack = 0
  6037                           ; Regs used in _isDataAvailable: [wreg]
  6038                           
  6039  05FE                     l316:	
  6040                           ;main.c: 63:     while(PIR3bits.RC1IF != 1);
  6041                           
  6042  05FE  014E               	movlb	14	; select bank14
  6043  05FF  1E8F               	btfss	15,5	;volatile
  6044  0600  2E02               	goto	u1501
  6045  0601  2E03               	goto	u1500
  6046  0602                     u1501:	
  6047  0602  2DFE               	goto	l316
  6048  0603                     u1500:	
  6049  0603                     l318:	
  6050                           
  6051                           ;main.c: 64:     PIR3bits.RC1IF = 0;
  6052  0603  128F               	bcf	15,5	;volatile
  6053  0604                     l2169:	
  6054                           
  6055                           ;main.c: 65:     return RC1REG;
  6056  0604  0142               	movlb	2	; select bank2
  6057  0605  0819               	movf	25,w	;volatile
  6058  0606                     l319:	
  6059  0606  0008               	return
  6060  0607                     __end_of_isDataAvailable:	
  6061                           
  6062                           	psect	text15
  6063  051B                     __ptext15:	
  6064 ;; *************** function _SYSTEM_Initialize *****************
  6065 ;; Defined at:
  6066 ;;		line 50 in file "mcc_generated_files/mcc.c"
  6067 ;; Parameters:    Size  Location     Type
  6068 ;;		None
  6069 ;; Auto vars:     Size  Location     Type
  6070 ;;		None
  6071 ;; Return value:  Size  Location     Type
  6072 ;;                  1    wreg      void 
  6073 ;; Registers used:
  6074 ;;		wreg, status,2, status,0, pclath, cstack
  6075 ;; Tracked objects:
  6076 ;;		On entry : 0/0
  6077 ;;		On exit  : 0/0
  6078 ;;		Unchanged: 0/0
  6079 ;; Data sizes:     COMMON   BANK0   BANK1   BANK2   BANK3   BANK4   BANK5   BANK6   BANK7   BANK8   BANK9  BANK10  BANK1
      +1  BANK12  BANK13  BANK14  BANK15  BANK16  BANK17  BANK18  BANK19  BANK20  BANK21  BANK22  BANK23  BANK24  BANK25
  6080 ;;      Params:         0       0       0       0       0       0       0       0       0       0       0       0       
      +0       0       0       0       0       0       0       0       0       0       0       0       0       0       0
  6081 ;;      Locals:         0       0       0       0       0       0       0       0       0       0       0       0       
      +0       0       0       0       0       0       0       0       0       0       0       0       0       0       0
  6082 ;;      Temps:          0       0       0       0       0       0       0       0       0       0       0       0       
      +0       0       0       0       0       0       0       0       0       0       0       0       0       0       0
  6083 ;;      Totals:         0       0       0       0       0       0       0       0       0       0       0       0       
      +0       0       0       0       0       0       0       0       0       0       0       0       0       0       0
  6084 ;;Total ram usage:        0 bytes
  6085 ;; Hardware stack levels used:    1
  6086 ;; Hardware stack levels required when called:    4
  6087 ;; This function calls:
  6088 ;;		_EUSART1_Initialize
  6089 ;;		_OSCILLATOR_Initialize
  6090 ;;		_PIN_MANAGER_Initialize
  6091 ;;		_PMD_Initialize
  6092 ;;		_PWM3_Initialize
  6093 ;;		_PWM4_Initialize
  6094 ;;		_PWM5_Initialize
  6095 ;;		_TMR2_Initialize
  6096 ;; This function is called by:
  6097 ;;		_main
  6098 ;; This function uses a non-reentrant model
  6099 ;;
  6100                           
  6101                           
  6102                           ;psect for function _SYSTEM_Initialize
  6103  051B                     _SYSTEM_Initialize:	
  6104  051B                     l2145:	
  6105                           ;incstack = 0
  6106                           ; Regs used in _SYSTEM_Initialize: [wreg+status,2+status,0+pclath+cstack]
  6107                           
  6108                           
  6109                           ;mcc_generated_files/mcc.c: 52:     PMD_Initialize();
  6110  051B  3186  2610  3185   	fcall	_PMD_Initialize
  6111  051E                     l2147:	
  6112                           
  6113                           ;mcc_generated_files/mcc.c: 53:     PIN_MANAGER_Initialize();
  6114  051E  3184  2424  3185   	fcall	_PIN_MANAGER_Initialize
  6115  0521                     l2149:	
  6116                           
  6117                           ;mcc_generated_files/mcc.c: 54:     OSCILLATOR_Initialize();
  6118  0521  3185  25D9  3185   	fcall	_OSCILLATOR_Initialize
  6119  0524                     l2151:	
  6120                           
  6121                           ;mcc_generated_files/mcc.c: 55:     PWM4_Initialize();
  6122  0524  3186  2624  3185   	fcall	_PWM4_Initialize
  6123  0527                     l2153:	
  6124                           
  6125                           ;mcc_generated_files/mcc.c: 56:     PWM3_Initialize();
  6126  0527  3186  262A  3185   	fcall	_PWM3_Initialize
  6127  052A                     l2155:	
  6128                           
  6129                           ;mcc_generated_files/mcc.c: 57:     PWM5_Initialize();
  6130  052A  3186  261E  3185   	fcall	_PWM5_Initialize
  6131  052D                     l2157:	
  6132                           
  6133                           ;mcc_generated_files/mcc.c: 58:     TMR2_Initialize();
  6134  052D  3185  25CB  3185   	fcall	_TMR2_Initialize
  6135  0530                     l2159:	
  6136                           
  6137                           ;mcc_generated_files/mcc.c: 59:     EUSART1_Initialize();
  6138  0530  3185  25BC  3185   	fcall	_EUSART1_Initialize
  6139  0533                     l86:	
  6140  0533  0008               	return
  6141  0534                     __end_of_SYSTEM_Initialize:	
  6142                           
  6143                           	psect	text16
  6144  05CB                     __ptext16:	
  6145 ;; *************** function _TMR2_Initialize *****************
  6146 ;; Defined at:
  6147 ;;		line 62 in file "mcc_generated_files/tmr2.c"
  6148 ;; Parameters:    Size  Location     Type
  6149 ;;		None
  6150 ;; Auto vars:     Size  Location     Type
  6151 ;;		None
  6152 ;; Return value:  Size  Location     Type
  6153 ;;                  1    wreg      void 
  6154 ;; Registers used:
  6155 ;;		wreg, status,2
  6156 ;; Tracked objects:
  6157 ;;		On entry : 0/0
  6158 ;;		On exit  : 0/0
  6159 ;;		Unchanged: 0/0
  6160 ;; Data sizes:     COMMON   BANK0   BANK1   BANK2   BANK3   BANK4   BANK5   BANK6   BANK7   BANK8   BANK9  BANK10  BANK1
      +1  BANK12  BANK13  BANK14  BANK15  BANK16  BANK17  BANK18  BANK19  BANK20  BANK21  BANK22  BANK23  BANK24  BANK25
  6161 ;;      Params:         0       0       0       0       0       0       0       0       0       0       0       0       
      +0       0       0       0       0       0       0       0       0       0       0       0       0       0       0
  6162 ;;      Locals:         0       0       0       0       0       0       0       0       0       0       0       0       
      +0       0       0       0       0       0       0       0       0       0       0       0       0       0       0
  6163 ;;      Temps:          0       0       0       0       0       0       0       0       0       0       0       0       
      +0       0       0       0       0       0       0       0       0       0       0       0       0       0       0
  6164 ;;      Totals:         0       0       0       0       0       0       0       0       0       0       0       0       
      +0       0       0       0       0       0       0       0       0       0       0       0       0       0       0
  6165 ;;Total ram usage:        0 bytes
  6166 ;; Hardware stack levels used:    1
  6167 ;; Hardware stack levels required when called:    3
  6168 ;; This function calls:
  6169 ;;		Nothing
  6170 ;; This function is called by:
  6171 ;;		_SYSTEM_Initialize
  6172 ;; This function uses a non-reentrant model
  6173 ;;
  6174                           
  6175                           
  6176                           ;psect for function _TMR2_Initialize
  6177  05CB                     _TMR2_Initialize:	
  6178  05CB                     l2115:	
  6179                           ;incstack = 0
  6180                           ; Regs used in _TMR2_Initialize: [wreg+status,2]
  6181                           
  6182                           
  6183                           ;mcc_generated_files/tmr2.c: 67:     T2CLKCON = 0x01;
  6184  05CB  3001               	movlw	1
  6185  05CC  0145               	movlb	5	; select bank5
  6186  05CD  0090               	movwf	16	;volatile
  6187  05CE                     l2117:	
  6188                           
  6189                           ;mcc_generated_files/tmr2.c: 70:     T2HLT = 0x00;
  6190  05CE  018F               	clrf	15	;volatile
  6191  05CF                     l2119:	
  6192                           
  6193                           ;mcc_generated_files/tmr2.c: 73:     T2RST = 0x00;
  6194  05CF  0191               	clrf	17	;volatile
  6195                           
  6196                           ;mcc_generated_files/tmr2.c: 76:     T2PR = 0xFF;
  6197  05D0  30FF               	movlw	255
  6198  05D1  008D               	movwf	13	;volatile
  6199  05D2                     l2121:	
  6200                           
  6201                           ;mcc_generated_files/tmr2.c: 79:     T2TMR = 0x00;
  6202  05D2  018C               	clrf	12	;volatile
  6203  05D3                     l2123:	
  6204                           
  6205                           ;mcc_generated_files/tmr2.c: 82:     PIR4bits.TMR2IF = 0;
  6206  05D3  014E               	movlb	14	; select bank14
  6207  05D4  1090               	bcf	16,1	;volatile
  6208  05D5                     l2125:	
  6209                           
  6210                           ;mcc_generated_files/tmr2.c: 85:     T2CON = 0xF0;
  6211  05D5  30F0               	movlw	240
  6212  05D6  0145               	movlb	5	; select bank5
  6213  05D7  008E               	movwf	14	;volatile
  6214  05D8                     l221:	
  6215  05D8  0008               	return
  6216  05D9                     __end_of_TMR2_Initialize:	
  6217                           
  6218                           	psect	text17
  6219  061E                     __ptext17:	
  6220 ;; *************** function _PWM5_Initialize *****************
  6221 ;; Defined at:
  6222 ;;		line 58 in file "mcc_generated_files/pwm5.c"
  6223 ;; Parameters:    Size  Location     Type
  6224 ;;		None
  6225 ;; Auto vars:     Size  Location     Type
  6226 ;;		None
  6227 ;; Return value:  Size  Location     Type
  6228 ;;                  1    wreg      void 
  6229 ;; Registers used:
  6230 ;;		wreg, status,2
  6231 ;; Tracked objects:
  6232 ;;		On entry : 0/0
  6233 ;;		On exit  : 0/0
  6234 ;;		Unchanged: 0/0
  6235 ;; Data sizes:     COMMON   BANK0   BANK1   BANK2   BANK3   BANK4   BANK5   BANK6   BANK7   BANK8   BANK9  BANK10  BANK1
      +1  BANK12  BANK13  BANK14  BANK15  BANK16  BANK17  BANK18  BANK19  BANK20  BANK21  BANK22  BANK23  BANK24  BANK25
  6236 ;;      Params:         0       0       0       0       0       0       0       0       0       0       0       0       
      +0       0       0       0       0       0       0       0       0       0       0       0       0       0       0
  6237 ;;      Locals:         0       0       0       0       0       0       0       0       0       0       0       0       
      +0       0       0       0       0       0       0       0       0       0       0       0       0       0       0
  6238 ;;      Temps:          0       0       0       0       0       0       0       0       0       0       0       0       
      +0       0       0       0       0       0       0       0       0       0       0       0       0       0       0
  6239 ;;      Totals:         0       0       0       0       0       0       0       0       0       0       0       0       
      +0       0       0       0       0       0       0       0       0       0       0       0       0       0       0
  6240 ;;Total ram usage:        0 bytes
  6241 ;; Hardware stack levels used:    1
  6242 ;; Hardware stack levels required when called:    3
  6243 ;; This function calls:
  6244 ;;		Nothing
  6245 ;; This function is called by:
  6246 ;;		_SYSTEM_Initialize
  6247 ;; This function uses a non-reentrant model
  6248 ;;
  6249                           
  6250                           
  6251                           ;psect for function _PWM5_Initialize
  6252  061E                     _PWM5_Initialize:	
  6253  061E                     l2109:	
  6254                           ;incstack = 0
  6255                           ; Regs used in _PWM5_Initialize: [wreg+status,2]
  6256                           
  6257                           
  6258                           ;mcc_generated_files/pwm5.c: 62:     PWM5CON = 0x90;
  6259  061E  3090               	movlw	144
  6260  061F  0146               	movlb	6	; select bank6
  6261  0620  009E               	movwf	30	;volatile
  6262  0621                     l2111:	
  6263                           
  6264                           ;mcc_generated_files/pwm5.c: 65:     PWM5DCH = 0x00;
  6265  0621  019D               	clrf	29	;volatile
  6266  0622                     l2113:	
  6267                           
  6268                           ;mcc_generated_files/pwm5.c: 68:     PWM5DCL = 0x00;
  6269  0622  019C               	clrf	28	;volatile
  6270  0623                     l282:	
  6271  0623  0008               	return
  6272  0624                     __end_of_PWM5_Initialize:	
  6273                           
  6274                           	psect	text18
  6275  0624                     __ptext18:	
  6276 ;; *************** function _PWM4_Initialize *****************
  6277 ;; Defined at:
  6278 ;;		line 58 in file "mcc_generated_files/pwm4.c"
  6279 ;; Parameters:    Size  Location     Type
  6280 ;;		None
  6281 ;; Auto vars:     Size  Location     Type
  6282 ;;		None
  6283 ;; Return value:  Size  Location     Type
  6284 ;;                  1    wreg      void 
  6285 ;; Registers used:
  6286 ;;		wreg, status,2
  6287 ;; Tracked objects:
  6288 ;;		On entry : 0/0
  6289 ;;		On exit  : 0/0
  6290 ;;		Unchanged: 0/0
  6291 ;; Data sizes:     COMMON   BANK0   BANK1   BANK2   BANK3   BANK4   BANK5   BANK6   BANK7   BANK8   BANK9  BANK10  BANK1
      +1  BANK12  BANK13  BANK14  BANK15  BANK16  BANK17  BANK18  BANK19  BANK20  BANK21  BANK22  BANK23  BANK24  BANK25
  6292 ;;      Params:         0       0       0       0       0       0       0       0       0       0       0       0       
      +0       0       0       0       0       0       0       0       0       0       0       0       0       0       0
  6293 ;;      Locals:         0       0       0       0       0       0       0       0       0       0       0       0       
      +0       0       0       0       0       0       0       0       0       0       0       0       0       0       0
  6294 ;;      Temps:          0       0       0       0       0       0       0       0       0       0       0       0       
      +0       0       0       0       0       0       0       0       0       0       0       0       0       0       0
  6295 ;;      Totals:         0       0       0       0       0       0       0       0       0       0       0       0       
      +0       0       0       0       0       0       0       0       0       0       0       0       0       0       0
  6296 ;;Total ram usage:        0 bytes
  6297 ;; Hardware stack levels used:    1
  6298 ;; Hardware stack levels required when called:    3
  6299 ;; This function calls:
  6300 ;;		Nothing
  6301 ;; This function is called by:
  6302 ;;		_SYSTEM_Initialize
  6303 ;; This function uses a non-reentrant model
  6304 ;;
  6305                           
  6306                           
  6307                           ;psect for function _PWM4_Initialize
  6308  0624                     _PWM4_Initialize:	
  6309  0624                     l2097:	
  6310                           ;incstack = 0
  6311                           ; Regs used in _PWM4_Initialize: [wreg+status,2]
  6312                           
  6313                           
  6314                           ;mcc_generated_files/pwm4.c: 62:     PWM4CON = 0x90;
  6315  0624  3090               	movlw	144
  6316  0625  0146               	movlb	6	; select bank6
  6317  0626  009A               	movwf	26	;volatile
  6318  0627                     l2099:	
  6319                           
  6320                           ;mcc_generated_files/pwm4.c: 65:     PWM4DCH = 0x00;
  6321  0627  0199               	clrf	25	;volatile
  6322  0628                     l2101:	
  6323                           
  6324                           ;mcc_generated_files/pwm4.c: 68:     PWM4DCL = 0x00;
  6325  0628  0198               	clrf	24	;volatile
  6326  0629                     l270:	
  6327  0629  0008               	return
  6328  062A                     __end_of_PWM4_Initialize:	
  6329                           
  6330                           	psect	text19
  6331  062A                     __ptext19:	
  6332 ;; *************** function _PWM3_Initialize *****************
  6333 ;; Defined at:
  6334 ;;		line 58 in file "mcc_generated_files/pwm3.c"
  6335 ;; Parameters:    Size  Location     Type
  6336 ;;		None
  6337 ;; Auto vars:     Size  Location     Type
  6338 ;;		None
  6339 ;; Return value:  Size  Location     Type
  6340 ;;                  1    wreg      void 
  6341 ;; Registers used:
  6342 ;;		wreg, status,2
  6343 ;; Tracked objects:
  6344 ;;		On entry : 0/0
  6345 ;;		On exit  : 0/0
  6346 ;;		Unchanged: 0/0
  6347 ;; Data sizes:     COMMON   BANK0   BANK1   BANK2   BANK3   BANK4   BANK5   BANK6   BANK7   BANK8   BANK9  BANK10  BANK1
      +1  BANK12  BANK13  BANK14  BANK15  BANK16  BANK17  BANK18  BANK19  BANK20  BANK21  BANK22  BANK23  BANK24  BANK25
  6348 ;;      Params:         0       0       0       0       0       0       0       0       0       0       0       0       
      +0       0       0       0       0       0       0       0       0       0       0       0       0       0       0
  6349 ;;      Locals:         0       0       0       0       0       0       0       0       0       0       0       0       
      +0       0       0       0       0       0       0       0       0       0       0       0       0       0       0
  6350 ;;      Temps:          0       0       0       0       0       0       0       0       0       0       0       0       
      +0       0       0       0       0       0       0       0       0       0       0       0       0       0       0
  6351 ;;      Totals:         0       0       0       0       0       0       0       0       0       0       0       0       
      +0       0       0       0       0       0       0       0       0       0       0       0       0       0       0
  6352 ;;Total ram usage:        0 bytes
  6353 ;; Hardware stack levels used:    1
  6354 ;; Hardware stack levels required when called:    3
  6355 ;; This function calls:
  6356 ;;		Nothing
  6357 ;; This function is called by:
  6358 ;;		_SYSTEM_Initialize
  6359 ;; This function uses a non-reentrant model
  6360 ;;
  6361                           
  6362                           
  6363                           ;psect for function _PWM3_Initialize
  6364  062A                     _PWM3_Initialize:	
  6365  062A                     l2103:	
  6366                           ;incstack = 0
  6367                           ; Regs used in _PWM3_Initialize: [wreg+status,2]
  6368                           
  6369                           
  6370                           ;mcc_generated_files/pwm3.c: 62:     PWM3CON = 0x90;
  6371  062A  3090               	movlw	144
  6372  062B  0146               	movlb	6	; select bank6
  6373  062C  0096               	movwf	22	;volatile
  6374  062D                     l2105:	
  6375                           
  6376                           ;mcc_generated_files/pwm3.c: 65:     PWM3DCH = 0x00;
  6377  062D  0195               	clrf	21	;volatile
  6378  062E                     l2107:	
  6379                           
  6380                           ;mcc_generated_files/pwm3.c: 68:     PWM3DCL = 0x00;
  6381  062E  0194               	clrf	20	;volatile
  6382  062F                     l191:	
  6383  062F  0008               	return
  6384  0630                     __end_of_PWM3_Initialize:	
  6385                           
  6386                           	psect	text20
  6387  0610                     __ptext20:	
  6388 ;; *************** function _PMD_Initialize *****************
  6389 ;; Defined at:
  6390 ;;		line 82 in file "mcc_generated_files/mcc.c"
  6391 ;; Parameters:    Size  Location     Type
  6392 ;;		None
  6393 ;; Auto vars:     Size  Location     Type
  6394 ;;		None
  6395 ;; Return value:  Size  Location     Type
  6396 ;;                  1    wreg      void 
  6397 ;; Registers used:
  6398 ;;		status,2
  6399 ;; Tracked objects:
  6400 ;;		On entry : 0/0
  6401 ;;		On exit  : 0/0
  6402 ;;		Unchanged: 0/0
  6403 ;; Data sizes:     COMMON   BANK0   BANK1   BANK2   BANK3   BANK4   BANK5   BANK6   BANK7   BANK8   BANK9  BANK10  BANK1
      +1  BANK12  BANK13  BANK14  BANK15  BANK16  BANK17  BANK18  BANK19  BANK20  BANK21  BANK22  BANK23  BANK24  BANK25
  6404 ;;      Params:         0       0       0       0       0       0       0       0       0       0       0       0       
      +0       0       0       0       0       0       0       0       0       0       0       0       0       0       0
  6405 ;;      Locals:         0       0       0       0       0       0       0       0       0       0       0       0       
      +0       0       0       0       0       0       0       0       0       0       0       0       0       0       0
  6406 ;;      Temps:          0       0       0       0       0       0       0       0       0       0       0       0       
      +0       0       0       0       0       0       0       0       0       0       0       0       0       0       0
  6407 ;;      Totals:         0       0       0       0       0       0       0       0       0       0       0       0       
      +0       0       0       0       0       0       0       0       0       0       0       0       0       0       0
  6408 ;;Total ram usage:        0 bytes
  6409 ;; Hardware stack levels used:    1
  6410 ;; Hardware stack levels required when called:    3
  6411 ;; This function calls:
  6412 ;;		Nothing
  6413 ;; This function is called by:
  6414 ;;		_SYSTEM_Initialize
  6415 ;; This function uses a non-reentrant model
  6416 ;;
  6417                           
  6418                           
  6419                           ;psect for function _PMD_Initialize
  6420  0610                     _PMD_Initialize:	
  6421  0610                     l2055:	
  6422                           ;incstack = 0
  6423                           ; Regs used in _PMD_Initialize: [status,2]
  6424                           
  6425                           
  6426                           ;mcc_generated_files/mcc.c: 85:     PMD0 = 0x00;
  6427  0610  014F               	movlb	15	; select bank15
  6428  0611  0196               	clrf	22	;volatile
  6429                           
  6430                           ;mcc_generated_files/mcc.c: 87:     PMD1 = 0x00;
  6431  0612  0197               	clrf	23	;volatile
  6432                           
  6433                           ;mcc_generated_files/mcc.c: 89:     PMD2 = 0x00;
  6434  0613  0198               	clrf	24	;volatile
  6435                           
  6436                           ;mcc_generated_files/mcc.c: 91:     PMD3 = 0x00;
  6437  0614  0199               	clrf	25	;volatile
  6438                           
  6439                           ;mcc_generated_files/mcc.c: 93:     PMD4 = 0x00;
  6440  0615  019A               	clrf	26	;volatile
  6441                           
  6442                           ;mcc_generated_files/mcc.c: 95:     PMD5 = 0x00;
  6443  0616  019B               	clrf	27	;volatile
  6444  0617                     l95:	
  6445  0617  0008               	return
  6446  0618                     __end_of_PMD_Initialize:	
  6447                           
  6448                           	psect	text21
  6449  0424                     __ptext21:	
  6450 ;; *************** function _PIN_MANAGER_Initialize *****************
  6451 ;; Defined at:
  6452 ;;		line 55 in file "mcc_generated_files/pin_manager.c"
  6453 ;; Parameters:    Size  Location     Type
  6454 ;;		None
  6455 ;; Auto vars:     Size  Location     Type
  6456 ;;		None
  6457 ;; Return value:  Size  Location     Type
  6458 ;;                  1    wreg      void 
  6459 ;; Registers used:
  6460 ;;		wreg, status,2
  6461 ;; Tracked objects:
  6462 ;;		On entry : 0/0
  6463 ;;		On exit  : 0/0
  6464 ;;		Unchanged: 0/0
  6465 ;; Data sizes:     COMMON   BANK0   BANK1   BANK2   BANK3   BANK4   BANK5   BANK6   BANK7   BANK8   BANK9  BANK10  BANK1
      +1  BANK12  BANK13  BANK14  BANK15  BANK16  BANK17  BANK18  BANK19  BANK20  BANK21  BANK22  BANK23  BANK24  BANK25
  6466 ;;      Params:         0       0       0       0       0       0       0       0       0       0       0       0       
      +0       0       0       0       0       0       0       0       0       0       0       0       0       0       0
  6467 ;;      Locals:         0       0       0       0       0       0       0       0       0       0       0       0       
      +0       0       0       0       0       0       0       0       0       0       0       0       0       0       0
  6468 ;;      Temps:          0       0       0       0       0       0       0       0       0       0       0       0       
      +0       0       0       0       0       0       0       0       0       0       0       0       0       0       0
  6469 ;;      Totals:         0       0       0       0       0       0       0       0       0       0       0       0       
      +0       0       0       0       0       0       0       0       0       0       0       0       0       0       0
  6470 ;;Total ram usage:        0 bytes
  6471 ;; Hardware stack levels used:    1
  6472 ;; Hardware stack levels required when called:    3
  6473 ;; This function calls:
  6474 ;;		Nothing
  6475 ;; This function is called by:
  6476 ;;		_SYSTEM_Initialize
  6477 ;; This function uses a non-reentrant model
  6478 ;;
  6479                           
  6480                           
  6481                           ;psect for function _PIN_MANAGER_Initialize
  6482  0424                     _PIN_MANAGER_Initialize:	
  6483  0424                     l2057:	
  6484                           ;incstack = 0
  6485                           ; Regs used in _PIN_MANAGER_Initialize: [wreg+status,2]
  6486                           
  6487                           
  6488                           ;mcc_generated_files/pin_manager.c: 60:     LATA = 0x00;
  6489  0424  0140               	movlb	0	; select bank0
  6490  0425  0198               	clrf	24	;volatile
  6491                           
  6492                           ;mcc_generated_files/pin_manager.c: 61:     LATB = 0x00;
  6493  0426  0199               	clrf	25	;volatile
  6494  0427                     l2059:	
  6495                           
  6496                           ;mcc_generated_files/pin_manager.c: 62:     LATC = 0xC7;
  6497  0427  30C7               	movlw	199
  6498  0428  009A               	movwf	26	;volatile
  6499  0429                     l2061:	
  6500                           
  6501                           ;mcc_generated_files/pin_manager.c: 67:     TRISA = 0xFF;
  6502  0429  30FF               	movlw	255
  6503  042A  0092               	movwf	18	;volatile
  6504  042B                     l2063:	
  6505                           
  6506                           ;mcc_generated_files/pin_manager.c: 68:     TRISB = 0xFF;
  6507  042B  30FF               	movlw	255
  6508  042C  0093               	movwf	19	;volatile
  6509  042D                     l2065:	
  6510                           
  6511                           ;mcc_generated_files/pin_manager.c: 69:     TRISC = 0xB8;
  6512  042D  30B8               	movlw	184
  6513  042E  0094               	movwf	20	;volatile
  6514  042F                     l2067:	
  6515                           
  6516                           ;mcc_generated_files/pin_manager.c: 74:     ANSELC = 0x38;
  6517  042F  3038               	movlw	56
  6518  0430  017E               	movlb	62	; select bank62
  6519  0431  00CE               	movwf	78	;volatile
  6520  0432                     l2069:	
  6521                           
  6522                           ;mcc_generated_files/pin_manager.c: 75:     ANSELB = 0xFF;
  6523  0432  30FF               	movlw	255
  6524  0433  00C3               	movwf	67	;volatile
  6525  0434                     l2071:	
  6526                           
  6527                           ;mcc_generated_files/pin_manager.c: 76:     ANSELA = 0xFF;
  6528  0434  30FF               	movlw	255
  6529  0435  00B8               	movwf	56	;volatile
  6530  0436                     l2073:	
  6531                           
  6532                           ;mcc_generated_files/pin_manager.c: 81:     WPUE = 0x00;
  6533  0436  01E5               	clrf	101	;volatile
  6534  0437                     l2075:	
  6535                           
  6536                           ;mcc_generated_files/pin_manager.c: 82:     WPUB = 0x00;
  6537  0437  01C4               	clrf	68	;volatile
  6538  0438                     l2077:	
  6539                           
  6540                           ;mcc_generated_files/pin_manager.c: 83:     WPUA = 0x00;
  6541  0438  01B9               	clrf	57	;volatile
  6542  0439                     l2079:	
  6543                           
  6544                           ;mcc_generated_files/pin_manager.c: 84:     WPUC = 0x00;
  6545  0439  01CF               	clrf	79	;volatile
  6546  043A                     l2081:	
  6547                           
  6548                           ;mcc_generated_files/pin_manager.c: 89:     ODCONA = 0x00;
  6549  043A  01BA               	clrf	58	;volatile
  6550  043B                     l2083:	
  6551                           
  6552                           ;mcc_generated_files/pin_manager.c: 90:     ODCONB = 0x00;
  6553  043B  01C5               	clrf	69	;volatile
  6554  043C                     l2085:	
  6555                           
  6556                           ;mcc_generated_files/pin_manager.c: 91:     ODCONC = 0x00;
  6557  043C  01D0               	clrf	80	;volatile
  6558                           
  6559                           ;mcc_generated_files/pin_manager.c: 96:     SLRCONA = 0xFF;
  6560  043D  30FF               	movlw	255
  6561  043E  00BB               	movwf	59	;volatile
  6562                           
  6563                           ;mcc_generated_files/pin_manager.c: 97:     SLRCONB = 0xFF;
  6564  043F  30FF               	movlw	255
  6565  0440  00C6               	movwf	70	;volatile
  6566                           
  6567                           ;mcc_generated_files/pin_manager.c: 98:     SLRCONC = 0xFF;
  6568  0441  30FF               	movlw	255
  6569  0442  00D1               	movwf	81	;volatile
  6570                           
  6571                           ;mcc_generated_files/pin_manager.c: 103:     INLVLA = 0xFF;
  6572  0443  30FF               	movlw	255
  6573  0444  00BC               	movwf	60	;volatile
  6574                           
  6575                           ;mcc_generated_files/pin_manager.c: 104:     INLVLB = 0xFF;
  6576  0445  30FF               	movlw	255
  6577  0446  00C7               	movwf	71	;volatile
  6578                           
  6579                           ;mcc_generated_files/pin_manager.c: 105:     INLVLC = 0xFF;
  6580  0447  30FF               	movlw	255
  6581  0448  00D2               	movwf	82	;volatile
  6582                           
  6583                           ;mcc_generated_files/pin_manager.c: 106:     INLVLE = 0x08;
  6584  0449  3008               	movlw	8
  6585  044A  00E8               	movwf	104	;volatile
  6586                           
  6587                           ;mcc_generated_files/pin_manager.c: 115:     RC0PPS = 0x0B;
  6588  044B  300B               	movlw	11
  6589  044C  00A0               	movwf	32	;volatile
  6590                           
  6591                           ;mcc_generated_files/pin_manager.c: 116:     RC1PPS = 0x0C;
  6592  044D  300C               	movlw	12
  6593  044E  00A1               	movwf	33	;volatile
  6594                           
  6595                           ;mcc_generated_files/pin_manager.c: 117:     RC2PPS = 0x0D;
  6596  044F  300D               	movlw	13
  6597  0450  00A2               	movwf	34	;volatile
  6598                           
  6599                           ;mcc_generated_files/pin_manager.c: 118:     RC6PPS = 0x0F;
  6600  0451  300F               	movlw	15
  6601  0452  00A6               	movwf	38	;volatile
  6602                           
  6603                           ;mcc_generated_files/pin_manager.c: 119:     RX1DTPPS = 0x17;
  6604  0453  3017               	movlw	23
  6605  0454  017D               	movlb	61	; select bank61
  6606  0455  00CB               	movwf	75	;volatile
  6607  0456                     l154:	
  6608  0456  0008               	return
  6609  0457                     __end_of_PIN_MANAGER_Initialize:	
  6610                           
  6611                           	psect	text22
  6612  05D9                     __ptext22:	
  6613 ;; *************** function _OSCILLATOR_Initialize *****************
  6614 ;; Defined at:
  6615 ;;		line 62 in file "mcc_generated_files/mcc.c"
  6616 ;; Parameters:    Size  Location     Type
  6617 ;;		None
  6618 ;; Auto vars:     Size  Location     Type
  6619 ;;		None
  6620 ;; Return value:  Size  Location     Type
  6621 ;;                  1    wreg      void 
  6622 ;; Registers used:
  6623 ;;		wreg, status,2
  6624 ;; Tracked objects:
  6625 ;;		On entry : 0/0
  6626 ;;		On exit  : 0/0
  6627 ;;		Unchanged: 0/0
  6628 ;; Data sizes:     COMMON   BANK0   BANK1   BANK2   BANK3   BANK4   BANK5   BANK6   BANK7   BANK8   BANK9  BANK10  BANK1
      +1  BANK12  BANK13  BANK14  BANK15  BANK16  BANK17  BANK18  BANK19  BANK20  BANK21  BANK22  BANK23  BANK24  BANK25
  6629 ;;      Params:         0       0       0       0       0       0       0       0       0       0       0       0       
      +0       0       0       0       0       0       0       0       0       0       0       0       0       0       0
  6630 ;;      Locals:         0       0       0       0       0       0       0       0       0       0       0       0       
      +0       0       0       0       0       0       0       0       0       0       0       0       0       0       0
  6631 ;;      Temps:          0       0       0       0       0       0       0       0       0       0       0       0       
      +0       0       0       0       0       0       0       0       0       0       0       0       0       0       0
  6632 ;;      Totals:         0       0       0       0       0       0       0       0       0       0       0       0       
      +0       0       0       0       0       0       0       0       0       0       0       0       0       0       0
  6633 ;;Total ram usage:        0 bytes
  6634 ;; Hardware stack levels used:    1
  6635 ;; Hardware stack levels required when called:    3
  6636 ;; This function calls:
  6637 ;;		Nothing
  6638 ;; This function is called by:
  6639 ;;		_SYSTEM_Initialize
  6640 ;; This function uses a non-reentrant model
  6641 ;;
  6642                           
  6643                           
  6644                           ;psect for function _OSCILLATOR_Initialize
  6645  05D9                     _OSCILLATOR_Initialize:	
  6646  05D9                     l2087:	
  6647                           ;incstack = 0
  6648                           ; Regs used in _OSCILLATOR_Initialize: [wreg+status,2]
  6649                           
  6650                           
  6651                           ;mcc_generated_files/mcc.c: 65:     OSCCON1 = 0x10;
  6652  05D9  3010               	movlw	16
  6653  05DA  0151               	movlb	17	; select bank17
  6654  05DB  008D               	movwf	13	;volatile
  6655  05DC                     l2089:	
  6656                           
  6657                           ;mcc_generated_files/mcc.c: 67:     OSCCON3 = 0x00;
  6658  05DC  018F               	clrf	15	;volatile
  6659  05DD                     l2091:	
  6660                           
  6661                           ;mcc_generated_files/mcc.c: 69:     OSCEN = 0x00;
  6662  05DD  0191               	clrf	17	;volatile
  6663                           
  6664                           ;mcc_generated_files/mcc.c: 71:     OSCFRQ = 0x05;
  6665  05DE  3005               	movlw	5
  6666  05DF  0093               	movwf	19	;volatile
  6667  05E0                     l2093:	
  6668                           
  6669                           ;mcc_generated_files/mcc.c: 73:     OSCSTAT = 0x00;
  6670  05E0  0190               	clrf	16	;volatile
  6671  05E1                     l2095:	
  6672                           
  6673                           ;mcc_generated_files/mcc.c: 75:     OSCTUNE = 0x00;
  6674  05E1  0192               	clrf	18	;volatile
  6675  05E2                     l89:	
  6676                           ;mcc_generated_files/mcc.c: 78:     {;mcc_generated_files/mcc.c: 79:     }
  6677                           
  6678                           
  6679                           ;mcc_generated_files/mcc.c: 77:     while(PLLR == 0)
  6680  05E2  1C10               	btfss	16,0	;volatile
  6681  05E3  2DE5               	goto	u1451
  6682  05E4  2DE6               	goto	u1450
  6683  05E5                     u1451:	
  6684  05E5  2DE2               	goto	l89
  6685  05E6                     u1450:	
  6686  05E6                     l92:	
  6687  05E6  0008               	return
  6688  05E7                     __end_of_OSCILLATOR_Initialize:	
  6689                           
  6690                           	psect	text23
  6691  05BC                     __ptext23:	
  6692 ;; *************** function _EUSART1_Initialize *****************
  6693 ;; Defined at:
  6694 ;;		line 54 in file "mcc_generated_files/eusart1.c"
  6695 ;; Parameters:    Size  Location     Type
  6696 ;;		None
  6697 ;; Auto vars:     Size  Location     Type
  6698 ;;		None
  6699 ;; Return value:  Size  Location     Type
  6700 ;;                  1    wreg      void 
  6701 ;; Registers used:
  6702 ;;		wreg
  6703 ;; Tracked objects:
  6704 ;;		On entry : 0/0
  6705 ;;		On exit  : 0/0
  6706 ;;		Unchanged: 0/0
  6707 ;; Data sizes:     COMMON   BANK0   BANK1   BANK2   BANK3   BANK4   BANK5   BANK6   BANK7   BANK8   BANK9  BANK10  BANK1
      +1  BANK12  BANK13  BANK14  BANK15  BANK16  BANK17  BANK18  BANK19  BANK20  BANK21  BANK22  BANK23  BANK24  BANK25
  6708 ;;      Params:         0       0       0       0       0       0       0       0       0       0       0       0       
      +0       0       0       0       0       0       0       0       0       0       0       0       0       0       0
  6709 ;;      Locals:         0       0       0       0       0       0       0       0       0       0       0       0       
      +0       0       0       0       0       0       0       0       0       0       0       0       0       0       0
  6710 ;;      Temps:          0       0       0       0       0       0       0       0       0       0       0       0       
      +0       0       0       0       0       0       0       0       0       0       0       0       0       0       0
  6711 ;;      Totals:         0       0       0       0       0       0       0       0       0       0       0       0       
      +0       0       0       0       0       0       0       0       0       0       0       0       0       0       0
  6712 ;;Total ram usage:        0 bytes
  6713 ;; Hardware stack levels used:    1
  6714 ;; Hardware stack levels required when called:    3
  6715 ;; This function calls:
  6716 ;;		Nothing
  6717 ;; This function is called by:
  6718 ;;		_SYSTEM_Initialize
  6719 ;; This function uses a non-reentrant model
  6720 ;;
  6721                           
  6722                           
  6723                           ;psect for function _EUSART1_Initialize
  6724  05BC                     _EUSART1_Initialize:	
  6725  05BC                     l2127:	
  6726                           ;incstack = 0
  6727                           ; Regs used in _EUSART1_Initialize: [wreg]
  6728                           
  6729                           
  6730                           ;mcc_generated_files/eusart1.c: 59:     BAUD1CON = 0x08;
  6731  05BC  3008               	movlw	8
  6732  05BD  0142               	movlb	2	; select bank2
  6733  05BE  009F               	movwf	31	;volatile
  6734                           
  6735                           ;mcc_generated_files/eusart1.c: 62:     RC1STA = 0x90;
  6736  05BF  3090               	movlw	144
  6737  05C0  009D               	movwf	29	;volatile
  6738                           
  6739                           ;mcc_generated_files/eusart1.c: 65:     TX1STA = 0x24;
  6740  05C1  3024               	movlw	36
  6741  05C2  009E               	movwf	30	;volatile
  6742                           
  6743                           ;mcc_generated_files/eusart1.c: 68:     SP1BRGL = 0x40;
  6744  05C3  3040               	movlw	64
  6745  05C4  009B               	movwf	27	;volatile
  6746                           
  6747                           ;mcc_generated_files/eusart1.c: 71:     SP1BRGH = 0x03;
  6748  05C5  3003               	movlw	3
  6749  05C6  009C               	movwf	28	;volatile
  6750  05C7                     l2129:	
  6751                           
  6752                           ;mcc_generated_files/eusart1.c: 74:     PIR3bits.RC1IF = 0;
  6753  05C7  014E               	movlb	14	; select bank14
  6754  05C8  128F               	bcf	15,5	;volatile
  6755  05C9                     l2131:	
  6756                           
  6757                           ;mcc_generated_files/eusart1.c: 75:     PIE3bits.RC1IE = 1;
  6758  05C9  1699               	bsf	25,5	;volatile
  6759  05CA                     l176:	
  6760  05CA  0008               	return
  6761  05CB                     __end_of_EUSART1_Initialize:	
  6762                           
  6763                           	psect	text24
  6764  057A                     __ptext24:	
  6765 ;; *************** function _PWM5_LoadDutyValue *****************
  6766 ;; Defined at:
  6767 ;;		line 72 in file "mcc_generated_files/pwm5.c"
  6768 ;; Parameters:    Size  Location     Type
  6769 ;;  dutyValue       2    2[COMMON] unsigned short 
  6770 ;; Auto vars:     Size  Location     Type
  6771 ;;		None
  6772 ;; Return value:  Size  Location     Type
  6773 ;;                  1    wreg      void 
  6774 ;; Registers used:
  6775 ;;		wreg, status,2, status,0
  6776 ;; Tracked objects:
  6777 ;;		On entry : 0/0
  6778 ;;		On exit  : 0/0
  6779 ;;		Unchanged: 0/0
  6780 ;; Data sizes:     COMMON   BANK0   BANK1   BANK2   BANK3   BANK4   BANK5   BANK6   BANK7   BANK8   BANK9  BANK10  BANK1
      +1  BANK12  BANK13  BANK14  BANK15  BANK16  BANK17  BANK18  BANK19  BANK20  BANK21  BANK22  BANK23  BANK24  BANK25
  6781 ;;      Params:         2       0       0       0       0       0       0       0       0       0       0       0       
      +0       0       0       0       0       0       0       0       0       0       0       0       0       0       0
  6782 ;;      Locals:         0       0       0       0       0       0       0       0       0       0       0       0       
      +0       0       0       0       0       0       0       0       0       0       0       0       0       0       0
  6783 ;;      Temps:          2       0       0       0       0       0       0       0       0       0       0       0       
      +0       0       0       0       0       0       0       0       0       0       0       0       0       0       0
  6784 ;;      Totals:         4       0       0       0       0       0       0       0       0       0       0       0       
      +0       0       0       0       0       0       0       0       0       0       0       0       0       0       0
  6785 ;;Total ram usage:        4 bytes
  6786 ;; Hardware stack levels used:    1
  6787 ;; Hardware stack levels required when called:    3
  6788 ;; This function calls:
  6789 ;;		Nothing
  6790 ;; This function is called by:
  6791 ;;		_main
  6792 ;; This function uses a non-reentrant model
  6793 ;;
  6794                           
  6795                           
  6796                           ;psect for function _PWM5_LoadDutyValue
  6797  057A                     _PWM5_LoadDutyValue:	
  6798  057A                     l2165:	
  6799                           ;incstack = 0
  6800                           ; Regs used in _PWM5_LoadDutyValue: [wreg+status,2+status,0]
  6801                           
  6802                           
  6803                           ;mcc_generated_files/pwm5.c: 72:  void PWM5_LoadDutyValue(uint16_t dutyValue);mcc_genera
      +                          ted_files/pwm5.c: 73:  {;mcc_generated_files/pwm5.c: 75:      PWM5DCH = (dutyValue & 0x0
      +                          3FC)>>2;
  6804  057A  0873               	movf	PWM5_LoadDutyValue@dutyValue+1,w
  6805  057B  00F5               	movwf	??_PWM5_LoadDutyValue+1
  6806  057C  0872               	movf	PWM5_LoadDutyValue@dutyValue,w
  6807  057D  00F4               	movwf	??_PWM5_LoadDutyValue
  6808  057E  36F5               	lsrf	??_PWM5_LoadDutyValue+1,f
  6809  057F  0CF4               	rrf	??_PWM5_LoadDutyValue,f
  6810  0580  36F5               	lsrf	??_PWM5_LoadDutyValue+1,f
  6811  0581  0CF4               	rrf	??_PWM5_LoadDutyValue,f
  6812  0582  0874               	movf	??_PWM5_LoadDutyValue,w
  6813  0583  0146               	movlb	6	; select bank6
  6814  0584  009D               	movwf	29	;volatile
  6815                           
  6816                           ;mcc_generated_files/pwm5.c: 78:      PWM5DCL = (dutyValue & 0x0003)<<6;
  6817  0585  0872               	movf	PWM5_LoadDutyValue@dutyValue,w
  6818  0586  3903               	andlw	3
  6819  0587  00F4               	movwf	??_PWM5_LoadDutyValue
  6820  0588  3005               	movlw	5
  6821  0589                     u1495:	
  6822  0589  35F4               	lslf	??_PWM5_LoadDutyValue,f
  6823  058A  3EFF               	addlw	-1
  6824  058B  1D03               	skipz
  6825  058C  2D89               	goto	u1495
  6826  058D  3574               	lslf	??_PWM5_LoadDutyValue,w
  6827  058E  009C               	movwf	28	;volatile
  6828  058F                     l285:	
  6829  058F  0008               	return
  6830  0590                     __end_of_PWM5_LoadDutyValue:	
  6831                           
  6832                           	psect	text25
  6833  0590                     __ptext25:	
  6834 ;; *************** function _PWM4_LoadDutyValue *****************
  6835 ;; Defined at:
  6836 ;;		line 72 in file "mcc_generated_files/pwm4.c"
  6837 ;; Parameters:    Size  Location     Type
  6838 ;;  dutyValue       2    2[COMMON] unsigned short 
  6839 ;; Auto vars:     Size  Location     Type
  6840 ;;		None
  6841 ;; Return value:  Size  Location     Type
  6842 ;;                  1    wreg      void 
  6843 ;; Registers used:
  6844 ;;		wreg, status,2, status,0
  6845 ;; Tracked objects:
  6846 ;;		On entry : 0/0
  6847 ;;		On exit  : 0/0
  6848 ;;		Unchanged: 0/0
  6849 ;; Data sizes:     COMMON   BANK0   BANK1   BANK2   BANK3   BANK4   BANK5   BANK6   BANK7   BANK8   BANK9  BANK10  BANK1
      +1  BANK12  BANK13  BANK14  BANK15  BANK16  BANK17  BANK18  BANK19  BANK20  BANK21  BANK22  BANK23  BANK24  BANK25
  6850 ;;      Params:         2       0       0       0       0       0       0       0       0       0       0       0       
      +0       0       0       0       0       0       0       0       0       0       0       0       0       0       0
  6851 ;;      Locals:         0       0       0       0       0       0       0       0       0       0       0       0       
      +0       0       0       0       0       0       0       0       0       0       0       0       0       0       0
  6852 ;;      Temps:          2       0       0       0       0       0       0       0       0       0       0       0       
      +0       0       0       0       0       0       0       0       0       0       0       0       0       0       0
  6853 ;;      Totals:         4       0       0       0       0       0       0       0       0       0       0       0       
      +0       0       0       0       0       0       0       0       0       0       0       0       0       0       0
  6854 ;;Total ram usage:        4 bytes
  6855 ;; Hardware stack levels used:    1
  6856 ;; Hardware stack levels required when called:    3
  6857 ;; This function calls:
  6858 ;;		Nothing
  6859 ;; This function is called by:
  6860 ;;		_main
  6861 ;; This function uses a non-reentrant model
  6862 ;;
  6863                           
  6864                           
  6865                           ;psect for function _PWM4_LoadDutyValue
  6866  0590                     _PWM4_LoadDutyValue:	
  6867  0590                     l2163:	
  6868                           ;incstack = 0
  6869                           ; Regs used in _PWM4_LoadDutyValue: [wreg+status,2+status,0]
  6870                           
  6871                           
  6872                           ;mcc_generated_files/pwm4.c: 72:  void PWM4_LoadDutyValue(uint16_t dutyValue);mcc_genera
      +                          ted_files/pwm4.c: 73:  {;mcc_generated_files/pwm4.c: 75:      PWM4DCH = (dutyValue & 0x0
      +                          3FC)>>2;
  6873  0590  0873               	movf	PWM4_LoadDutyValue@dutyValue+1,w
  6874  0591  00F5               	movwf	??_PWM4_LoadDutyValue+1
  6875  0592  0872               	movf	PWM4_LoadDutyValue@dutyValue,w
  6876  0593  00F4               	movwf	??_PWM4_LoadDutyValue
  6877  0594  36F5               	lsrf	??_PWM4_LoadDutyValue+1,f
  6878  0595  0CF4               	rrf	??_PWM4_LoadDutyValue,f
  6879  0596  36F5               	lsrf	??_PWM4_LoadDutyValue+1,f
  6880  0597  0CF4               	rrf	??_PWM4_LoadDutyValue,f
  6881  0598  0874               	movf	??_PWM4_LoadDutyValue,w
  6882  0599  0146               	movlb	6	; select bank6
  6883  059A  0099               	movwf	25	;volatile
  6884                           
  6885                           ;mcc_generated_files/pwm4.c: 78:      PWM4DCL = (dutyValue & 0x0003)<<6;
  6886  059B  0872               	movf	PWM4_LoadDutyValue@dutyValue,w
  6887  059C  3903               	andlw	3
  6888  059D  00F4               	movwf	??_PWM4_LoadDutyValue
  6889  059E  3005               	movlw	5
  6890  059F                     u1485:	
  6891  059F  35F4               	lslf	??_PWM4_LoadDutyValue,f
  6892  05A0  3EFF               	addlw	-1
  6893  05A1  1D03               	skipz
  6894  05A2  2D9F               	goto	u1485
  6895  05A3  3574               	lslf	??_PWM4_LoadDutyValue,w
  6896  05A4  0098               	movwf	24	;volatile
  6897  05A5                     l273:	
  6898  05A5  0008               	return
  6899  05A6                     __end_of_PWM4_LoadDutyValue:	
  6900                           
  6901                           	psect	text26
  6902  05A6                     __ptext26:	
  6903 ;; *************** function _PWM3_LoadDutyValue *****************
  6904 ;; Defined at:
  6905 ;;		line 72 in file "mcc_generated_files/pwm3.c"
  6906 ;; Parameters:    Size  Location     Type
  6907 ;;  dutyValue       2    2[COMMON] unsigned short 
  6908 ;; Auto vars:     Size  Location     Type
  6909 ;;		None
  6910 ;; Return value:  Size  Location     Type
  6911 ;;                  1    wreg      void 
  6912 ;; Registers used:
  6913 ;;		wreg, status,2, status,0
  6914 ;; Tracked objects:
  6915 ;;		On entry : 0/0
  6916 ;;		On exit  : 0/0
  6917 ;;		Unchanged: 0/0
  6918 ;; Data sizes:     COMMON   BANK0   BANK1   BANK2   BANK3   BANK4   BANK5   BANK6   BANK7   BANK8   BANK9  BANK10  BANK1
      +1  BANK12  BANK13  BANK14  BANK15  BANK16  BANK17  BANK18  BANK19  BANK20  BANK21  BANK22  BANK23  BANK24  BANK25
  6919 ;;      Params:         2       0       0       0       0       0       0       0       0       0       0       0       
      +0       0       0       0       0       0       0       0       0       0       0       0       0       0       0
  6920 ;;      Locals:         0       0       0       0       0       0       0       0       0       0       0       0       
      +0       0       0       0       0       0       0       0       0       0       0       0       0       0       0
  6921 ;;      Temps:          2       0       0       0       0       0       0       0       0       0       0       0       
      +0       0       0       0       0       0       0       0       0       0       0       0       0       0       0
  6922 ;;      Totals:         4       0       0       0       0       0       0       0       0       0       0       0       
      +0       0       0       0       0       0       0       0       0       0       0       0       0       0       0
  6923 ;;Total ram usage:        4 bytes
  6924 ;; Hardware stack levels used:    1
  6925 ;; Hardware stack levels required when called:    3
  6926 ;; This function calls:
  6927 ;;		Nothing
  6928 ;; This function is called by:
  6929 ;;		_main
  6930 ;; This function uses a non-reentrant model
  6931 ;;
  6932                           
  6933                           
  6934                           ;psect for function _PWM3_LoadDutyValue
  6935  05A6                     _PWM3_LoadDutyValue:	
  6936  05A6                     l2161:	
  6937                           ;incstack = 0
  6938                           ; Regs used in _PWM3_LoadDutyValue: [wreg+status,2+status,0]
  6939                           
  6940                           
  6941                           ;mcc_generated_files/pwm3.c: 72:  void PWM3_LoadDutyValue(uint16_t dutyValue);mcc_genera
      +                          ted_files/pwm3.c: 73:  {;mcc_generated_files/pwm3.c: 75:      PWM3DCH = (dutyValue & 0x0
      +                          3FC)>>2;
  6942  05A6  0873               	movf	PWM3_LoadDutyValue@dutyValue+1,w
  6943  05A7  00F5               	movwf	??_PWM3_LoadDutyValue+1
  6944  05A8  0872               	movf	PWM3_LoadDutyValue@dutyValue,w
  6945  05A9  00F4               	movwf	??_PWM3_LoadDutyValue
  6946  05AA  36F5               	lsrf	??_PWM3_LoadDutyValue+1,f
  6947  05AB  0CF4               	rrf	??_PWM3_LoadDutyValue,f
  6948  05AC  36F5               	lsrf	??_PWM3_LoadDutyValue+1,f
  6949  05AD  0CF4               	rrf	??_PWM3_LoadDutyValue,f
  6950  05AE  0874               	movf	??_PWM3_LoadDutyValue,w
  6951  05AF  0146               	movlb	6	; select bank6
  6952  05B0  0095               	movwf	21	;volatile
  6953                           
  6954                           ;mcc_generated_files/pwm3.c: 78:      PWM3DCL = (dutyValue & 0x0003)<<6;
  6955  05B1  0872               	movf	PWM3_LoadDutyValue@dutyValue,w
  6956  05B2  3903               	andlw	3
  6957  05B3  00F4               	movwf	??_PWM3_LoadDutyValue
  6958  05B4  3005               	movlw	5
  6959  05B5                     u1475:	
  6960  05B5  35F4               	lslf	??_PWM3_LoadDutyValue,f
  6961  05B6  3EFF               	addlw	-1
  6962  05B7  1D03               	skipz
  6963  05B8  2DB5               	goto	u1475
  6964  05B9  3574               	lslf	??_PWM3_LoadDutyValue,w
  6965  05BA  0094               	movwf	20	;volatile
  6966  05BB                     l194:	
  6967  05BB  0008               	return
  6968  05BC                     __end_of_PWM3_LoadDutyValue:	
  6969                           
  6970                           	psect	intentry
  6971  0004                     __pintentry:	
  6972 ;; *************** function _Interrupt_Handler *****************
  6973 ;; Defined at:
  6974 ;;		line 88 in file "interrupt.c"
  6975 ;; Parameters:    Size  Location     Type
  6976 ;;		None
  6977 ;; Auto vars:     Size  Location     Type
  6978 ;;		None
  6979 ;; Return value:  Size  Location     Type
  6980 ;;                  1    wreg      void 
  6981 ;; Registers used:
  6982 ;;		wreg, fsr1l, fsr1h, status,2, status,0, pclath, cstack
  6983 ;; Tracked objects:
  6984 ;;		On entry : 0/0
  6985 ;;		On exit  : 0/0
  6986 ;;		Unchanged: 0/0
  6987 ;; Data sizes:     COMMON   BANK0   BANK1   BANK2   BANK3   BANK4   BANK5   BANK6   BANK7   BANK8   BANK9  BANK10  BANK1
      +1  BANK12  BANK13  BANK14  BANK15  BANK16  BANK17  BANK18  BANK19  BANK20  BANK21  BANK22  BANK23  BANK24  BANK25
  6988 ;;      Params:         0       0       0       0       0       0       0       0       0       0       0       0       
      +0       0       0       0       0       0       0       0       0       0       0       0       0       0       0
  6989 ;;      Locals:         0       0       0       0       0       0       0       0       0       0       0       0       
      +0       0       0       0       0       0       0       0       0       0       0       0       0       0       0
  6990 ;;      Temps:          0       0       0       0       0       0       0       0       0       0       0       0       
      +0       0       0       0       0       0       0       0       0       0       0       0       0       0       0
  6991 ;;      Totals:         0       0       0       0       0       0       0       0       0       0       0       0       
      +0       0       0       0       0       0       0       0       0       0       0       0       0       0       0
  6992 ;;Total ram usage:        0 bytes
  6993 ;; Hardware stack levels used:    1
  6994 ;; Hardware stack levels required when called:    2
  6995 ;; This function calls:
  6996 ;;		_UART_Rx_IntHandler
  6997 ;; This function is called by:
  6998 ;;		Interrupt level 1
  6999 ;; This function uses a non-reentrant model
  7000 ;;
  7001                           
  7002  0004                     _Interrupt_Handler:	
  7003                           
  7004                           ;incstack = 0
  7005  0004  147E               	bsf	int$flags,0	;set compiler interrupt flag (level 1)
  7006                           
  7007                           ; Regs used in _Interrupt_Handler: [wreg+fsr1l+fsr1h+status,2+status,0+pclath+cstack]
  7008  0005  3180               	pagesel	$
  7009  0006                     i1l1785:	
  7010                           
  7011                           ;interrupt.c: 90:     if(PIR3bits.RC1IF == 1)
  7012  0006  014E               	movlb	14	; select bank14
  7013  0007  1E8F               	btfss	15,5	;volatile
  7014  0008  280A               	goto	u102_21
  7015  0009  280B               	goto	u102_20
  7016  000A                     u102_21:	
  7017  000A  280E               	goto	i1l41
  7018  000B                     u102_20:	
  7019  000B                     i1l1787:	
  7020                           
  7021                           ;interrupt.c: 91:     {;interrupt.c: 92:         UART_Rx_IntHandler();
  7022  000B  3184  24A6  3180   	fcall	_UART_Rx_IntHandler
  7023  000E                     i1l41:	
  7024  000E  107E               	bcf	int$flags,0	;clear compiler interrupt flag (level 1)
  7025  000F  0009               	retfie
  7026  0010                     __end_of_Interrupt_Handler:	
  7027                           
  7028                           	psect	text28
  7029  04A6                     __ptext28:	
  7030 ;; *************** function _UART_Rx_IntHandler *****************
  7031 ;; Defined at:
  7032 ;;		line 41 in file "interrupt.c"
  7033 ;; Parameters:    Size  Location     Type
  7034 ;;		None
  7035 ;; Auto vars:     Size  Location     Type
  7036 ;;		None
  7037 ;; Return value:  Size  Location     Type
  7038 ;;                  1    wreg      void 
  7039 ;; Registers used:
  7040 ;;		wreg, fsr1l, fsr1h, status,2, status,0, pclath, cstack
  7041 ;; Tracked objects:
  7042 ;;		On entry : 0/0
  7043 ;;		On exit  : 0/0
  7044 ;;		Unchanged: 0/0
  7045 ;; Data sizes:     COMMON   BANK0   BANK1   BANK2   BANK3   BANK4   BANK5   BANK6   BANK7   BANK8   BANK9  BANK10  BANK1
      +1  BANK12  BANK13  BANK14  BANK15  BANK16  BANK17  BANK18  BANK19  BANK20  BANK21  BANK22  BANK23  BANK24  BANK25
  7046 ;;      Params:         0       0       0       0       0       0       0       0       0       0       0       0       
      +0       0       0       0       0       0       0       0       0       0       0       0       0       0       0
  7047 ;;      Locals:         0       0       0       0       0       0       0       0       0       0       0       0       
      +0       0       0       0       0       0       0       0       0       0       0       0       0       0       0
  7048 ;;      Temps:          1       0       0       0       0       0       0       0       0       0       0       0       
      +0       0       0       0       0       0       0       0       0       0       0       0       0       0       0
  7049 ;;      Totals:         1       0       0       0       0       0       0       0       0       0       0       0       
      +0       0       0       0       0       0       0       0       0       0       0       0       0       0       0
  7050 ;;Total ram usage:        1 bytes
  7051 ;; Hardware stack levels used:    1
  7052 ;; Hardware stack levels required when called:    1
  7053 ;; This function calls:
  7054 ;;		_echo
  7055 ;; This function is called by:
  7056 ;;		_Interrupt_Handler
  7057 ;; This function uses a non-reentrant model
  7058 ;;
  7059                           
  7060                           
  7061                           ;psect for function _UART_Rx_IntHandler
  7062  04A6                     _UART_Rx_IntHandler:	
  7063  04A6                     i1l1739:	
  7064                           ;incstack = 0
  7065                           ; Regs used in _UART_Rx_IntHandler: [wreg+fsr1l+fsr1h+status,2+status,0+pclath+cstack]
  7066                           
  7067                           
  7068                           ;interrupt.c: 43:     UARTReceivedByte = RC1REG;
  7069  04A6  0142               	movlb	2	; select bank2
  7070  04A7  0819               	movf	25,w	;volatile
  7071  04A8  00F1               	movwf	??_UART_Rx_IntHandler
  7072  04A9  0871               	movf	??_UART_Rx_IntHandler,w
  7073  04AA  0141               	movlb	1	; select bank1
  7074  04AB  00BE               	movwf	_UARTReceivedByte^(0+128)
  7075  04AC                     i1l1741:	
  7076                           
  7077                           ;interrupt.c: 49:         UARTBuffer[UARTBufferIndex] = UARTReceivedByte;
  7078  04AC  083E               	movf	_UARTReceivedByte^(0+128),w
  7079  04AD  00F1               	movwf	??_UART_Rx_IntHandler
  7080  04AE  083F               	movf	_UARTBufferIndex^(0+128),w
  7081  04AF  3EA0               	addlw	(low (_UARTBuffer| 0))& (0+255)
  7082  04B0  0086               	movwf	6
  7083  04B1  0187               	clrf	7
  7084  04B2  0871               	movf	??_UART_Rx_IntHandler,w
  7085  04B3  0081               	movwf	1
  7086  04B4                     i1l1743:	
  7087                           
  7088                           ;interrupt.c: 52:         echo(UARTReceivedByte);
  7089  04B4  083E               	movf	_UARTReceivedByte^(0+128),w
  7090  04B5  3186  2607  3184   	fcall	_echo
  7091  04B8                     i1l1745:	
  7092                           
  7093                           ;interrupt.c: 55:         if(UARTBufferIndex < 16)
  7094  04B8  3010               	movlw	16
  7095  04B9  0141               	movlb	1	; select bank1
  7096  04BA  023F               	subwf	_UARTBufferIndex^(0+128),w
  7097  04BB  1803               	skipnc
  7098  04BC  2CBE               	goto	u97_21
  7099  04BD  2CBF               	goto	u97_20
  7100  04BE                     u97_21:	
  7101  04BE  2CC3               	goto	i1l1749
  7102  04BF                     u97_20:	
  7103  04BF                     i1l1747:	
  7104                           
  7105                           ;interrupt.c: 56:         {;interrupt.c: 57:             UARTBufferIndex++;
  7106  04BF  3001               	movlw	1
  7107  04C0  00F1               	movwf	??_UART_Rx_IntHandler
  7108  04C1  0871               	movf	??_UART_Rx_IntHandler,w
  7109  04C2  07BF               	addwf	_UARTBufferIndex^(0+128),f
  7110  04C3                     i1l1749:	
  7111                           
  7112                           ;interrupt.c: 86:     PIR3bits.RC1IF = 0;
  7113  04C3  014E               	movlb	14	; select bank14
  7114  04C4  128F               	bcf	15,5	;volatile
  7115  04C5                     i1l35:	
  7116  04C5  0008               	return
  7117  04C6                     __end_of_UART_Rx_IntHandler:	
  7118                           
  7119                           	psect	text29
  7120  0607                     __ptext29:	
  7121 ;; *************** function _echo *****************
  7122 ;; Defined at:
  7123 ;;		line 36 in file "interrupt.c"
  7124 ;; Parameters:    Size  Location     Type
  7125 ;;  byte            1    wreg     unsigned char 
  7126 ;; Auto vars:     Size  Location     Type
  7127 ;;  byte            1    0[COMMON] unsigned char 
  7128 ;; Return value:  Size  Location     Type
  7129 ;;                  1    wreg      void 
  7130 ;; Registers used:
  7131 ;;		wreg
  7132 ;; Tracked objects:
  7133 ;;		On entry : 0/0
  7134 ;;		On exit  : 0/0
  7135 ;;		Unchanged: 0/0
  7136 ;; Data sizes:     COMMON   BANK0   BANK1   BANK2   BANK3   BANK4   BANK5   BANK6   BANK7   BANK8   BANK9  BANK10  BANK1
      +1  BANK12  BANK13  BANK14  BANK15  BANK16  BANK17  BANK18  BANK19  BANK20  BANK21  BANK22  BANK23  BANK24  BANK25
  7137 ;;      Params:         0       0       0       0       0       0       0       0       0       0       0       0       
      +0       0       0       0       0       0       0       0       0       0       0       0       0       0       0
  7138 ;;      Locals:         1       0       0       0       0       0       0       0       0       0       0       0       
      +0       0       0       0       0       0       0       0       0       0       0       0       0       0       0
  7139 ;;      Temps:          0       0       0       0       0       0       0       0       0       0       0       0       
      +0       0       0       0       0       0       0       0       0       0       0       0       0       0       0
  7140 ;;      Totals:         1       0       0       0       0       0       0       0       0       0       0       0       
      +0       0       0       0       0       0       0       0       0       0       0       0       0       0       0
  7141 ;;Total ram usage:        1 bytes
  7142 ;; Hardware stack levels used:    1
  7143 ;; This function calls:
  7144 ;;		Nothing
  7145 ;; This function is called by:
  7146 ;;		_UART_Rx_IntHandler
  7147 ;; This function uses a non-reentrant model
  7148 ;;
  7149                           
  7150                           
  7151                           ;psect for function _echo
  7152  0607                     _echo:	
  7153                           
  7154                           ;incstack = 0
  7155                           ; Regs used in _echo: [wreg]
  7156                           ;echo@byte stored from wreg
  7157  0607  00F0               	movwf	echo@byte
  7158  0608                     i1l1647:	
  7159                           
  7160                           ;interrupt.c: 36: void echo(uint8_t byte);interrupt.c: 37: {;interrupt.c: 38:     TX1REG
      +                           = byte;
  7161  0608  0870               	movf	echo@byte,w
  7162  0609  0142               	movlb	2	; select bank2
  7163  060A  009A               	movwf	26	;volatile
  7164  060B                     i1l28:	
  7165                           ;interrupt.c: 39:     while(TX1STAbits.TRMT == 1);
  7166                           
  7167  060B  189E               	btfsc	30,1	;volatile
  7168  060C  2E0E               	goto	u94_21
  7169  060D  2E0F               	goto	u94_20
  7170  060E                     u94_21:	
  7171  060E  2E0B               	goto	i1l28
  7172  060F                     u94_20:	
  7173  060F                     i1l31:	
  7174  060F  0008               	return
  7175  0610                     __end_of_echo:	
  7176  007E                     btemp	set	126	;btemp
  7177  007E                     int$flags	set	126
  7178  007E                     wtemp0	set	126


Data Sizes:
    Strings     93
    Constant    0
    Data        0
    BSS         66
    Persistent  32
    Stack       0

Auto Spaces:
    Space          Size  Autos    Used
    COMMON           14     10      12
    BANK0            80     80      80
    BANK1            80     20      52
    BANK2            80      0      32
    BANK3            80      0       0
    BANK4            80      0       0
    BANK5            80      0       0
    BANK6            80      0       0
    BANK7            80      0       0
    BANK8            80      0       0
    BANK9            80      0       0
    BANK10           80      0       0
    BANK11           80      0       0
    BANK12           80      0       0
    BANK13           80      0       0
    BANK14           80      0       0
    BANK15           80      0       0
    BANK16           80      0       0
    BANK17           80      0       0
    BANK18           80      0       0
    BANK19           80      0       0
    BANK20           80      0       0
    BANK21           80      0       0
    BANK22           80      0       0
    BANK23           80      0       0
    BANK24           80      0       0
    BANK25           32      0       0

Pointer List with Targets:

    strlen@s	PTR const unsigned char  size(1) Largest target is 32
		 -> dbuf(BANK2[32]), 

    strlen@a	PTR const unsigned char  size(1) Largest target is 32
		 -> dbuf(BANK2[32]), 

    printf@fmt	PTR const unsigned char  size(2) Largest target is 51
		 -> STR_3(CODE[51]), STR_2(CODE[29]), STR_1(CODE[13]), 

    printf@ap	PTR void [1] size(1) Largest target is 2
		 -> ?_printf(BANK1[2]), 

    fputs@s	PTR const unsigned char  size(1) Largest target is 32
		 -> dbuf(BANK2[32]), 

    fputs@fp	PTR struct _IO_FILE size(1) Largest target is 0
		 -> NULL(NULL[0]), 

    S954_IO_FILE$buffer	PTR unsigned char  size(1) Largest target is 0

    fputc@fp.buffer	PTR unsigned char  size(1) Largest target is 0

    fputc@fp	PTR struct _IO_FILE size(1) Largest target is 0
		 -> NULL(NULL[0]), 

    vfprintf@ap	PTR PTR void  size(1) Largest target is 1
		 -> printf@ap(BANK1[1]), 

    vfprintf@fp	PTR struct _IO_FILE size(1) Largest target is 0
		 -> NULL(NULL[0]), 

    vfprintf@fmt	PTR const unsigned char  size(2) Largest target is 51
		 -> STR_3(CODE[51]), STR_2(CODE[29]), STR_1(CODE[13]), 

    vfprintf@cfmt	PTR unsigned char  size(2) Largest target is 51
		 -> STR_3(CODE[51]), STR_2(CODE[29]), STR_1(CODE[13]), 

    vfpfcnvrt@fp	PTR struct _IO_FILE size(1) Largest target is 0
		 -> NULL(NULL[0]), 

    vfpfcnvrt@ap	PTR PTR void  size(1) Largest target is 1
		 -> printf@ap(BANK1[1]), 

    vfpfcnvrt@fmt	PTR PTR unsigned char  size(1) Largest target is 2
		 -> vfprintf@cfmt(BANK1[2]), 

    xtoa@fp	PTR struct _IO_FILE size(1) Largest target is 0
		 -> NULL(NULL[0]), 

    pad@fp	PTR struct _IO_FILE size(1) Largest target is 0
		 -> NULL(NULL[0]), 

    pad@buf	PTR unsigned char  size(1) Largest target is 32
		 -> dbuf(BANK2[32]), 


Critical Paths under _main in COMMON

    _xtoa->_isalpha
    _xtoa->_toupper
    _toupper->_islower
    _pad->_fputs
    _fputs->_fputc
    _fputc->_putch

Critical Paths under _Interrupt_Handler in COMMON

    _Interrupt_Handler->_UART_Rx_IntHandler
    _UART_Rx_IntHandler->_echo

Critical Paths under _main in BANK0

    _main->_printf
    _printf->_vfprintf
    _vfprintf->_vfpfcnvrt
    _vfpfcnvrt->_xtoa
    _xtoa->_pad
    _pad->_fputs
    _fputs->_fputc

Critical Paths under _Interrupt_Handler in BANK0

    None.

Critical Paths under _main in BANK1

    _main->_printf
    _printf->_vfprintf

Critical Paths under _Interrupt_Handler in BANK1

    None.

Critical Paths under _main in BANK2

    None.

Critical Paths under _Interrupt_Handler in BANK2

    None.

Critical Paths under _main in BANK3

    None.

Critical Paths under _Interrupt_Handler in BANK3

    None.

Critical Paths under _main in BANK4

    None.

Critical Paths under _Interrupt_Handler in BANK4

    None.

Critical Paths under _main in BANK5

    None.

Critical Paths under _Interrupt_Handler in BANK5

    None.

Critical Paths under _main in BANK6

    None.

Critical Paths under _Interrupt_Handler in BANK6

    None.

Critical Paths under _main in BANK7

    None.

Critical Paths under _Interrupt_Handler in BANK7

    None.

Critical Paths under _main in BANK8

    None.

Critical Paths under _Interrupt_Handler in BANK8

    None.

Critical Paths under _main in BANK9

    None.

Critical Paths under _Interrupt_Handler in BANK9

    None.

Critical Paths under _main in BANK10

    None.

Critical Paths under _Interrupt_Handler in BANK10

    None.

Critical Paths under _main in BANK11

    None.

Critical Paths under _Interrupt_Handler in BANK11

    None.

Critical Paths under _main in BANK12

    None.

Critical Paths under _Interrupt_Handler in BANK12

    None.

Critical Paths under _main in BANK13

    None.

Critical Paths under _Interrupt_Handler in BANK13

    None.

Critical Paths under _main in BANK14

    None.

Critical Paths under _Interrupt_Handler in BANK14

    None.

Critical Paths under _main in BANK15

    None.

Critical Paths under _Interrupt_Handler in BANK15

    None.

Critical Paths under _main in BANK16

    None.

Critical Paths under _Interrupt_Handler in BANK16

    None.

Critical Paths under _main in BANK17

    None.

Critical Paths under _Interrupt_Handler in BANK17

    None.

Critical Paths under _main in BANK18

    None.

Critical Paths under _Interrupt_Handler in BANK18

    None.

Critical Paths under _main in BANK19

    None.

Critical Paths under _Interrupt_Handler in BANK19

    None.

Critical Paths under _main in BANK20

    None.

Critical Paths under _Interrupt_Handler in BANK20

    None.

Critical Paths under _main in BANK21

    None.

Critical Paths under _Interrupt_Handler in BANK21

    None.

Critical Paths under _main in BANK22

    None.

Critical Paths under _Interrupt_Handler in BANK22

    None.

Critical Paths under _main in BANK23

    None.

Critical Paths under _Interrupt_Handler in BANK23

    None.

Critical Paths under _main in BANK24

    None.

Critical Paths under _Interrupt_Handler in BANK24

    None.

Critical Paths under _main in BANK25

    None.

Critical Paths under _Interrupt_Handler in BANK25

    None.

Call Graph Tables:

 ---------------------------------------------------------------------------------
 (Depth) Function   	        Calls       Base Space   Used Autos Params    Refs
 ---------------------------------------------------------------------------------
 (0) _main                                                 7     7      0    8131
                                             79 BANK0      1     1      0
                                             14 BANK1      6     6      0
                 _PWM3_LoadDutyValue
                 _PWM4_LoadDutyValue
                 _PWM5_LoadDutyValue
                  _SYSTEM_Initialize
                    _isDataAvailable
                             _printf
 ---------------------------------------------------------------------------------
 (1) _printf                                              12     4      8    7626
                                             78 BANK0      1     1      0
                                              3 BANK1     11     3      8
                           _vfprintf
 ---------------------------------------------------------------------------------
 (2) _vfprintf                                             8     5      3    7275
                                             73 BANK0      5     2      3
                                              0 BANK1      3     3      0
                          _vfpfcnvrt
 ---------------------------------------------------------------------------------
 (3) _vfpfcnvrt                                           40    38      2    6834
                                             56 BANK0     17    15      2
                              _fputc
                               _xtoa
 ---------------------------------------------------------------------------------
 (4) _xtoa                                                38    29      9    5091
                                             18 BANK0     38    29      9
                            _isalpha
                            _isupper
                                _pad
                            _toupper
 ---------------------------------------------------------------------------------
 (5) _toupper                                              8     6      2     512
                                              8 COMMON     2     0      2
                                              0 BANK0      6     6      0
                            _islower
 ---------------------------------------------------------------------------------
 (6) _islower                                              6     4      2     191
                                              2 COMMON     6     4      2
 ---------------------------------------------------------------------------------
 (5) _pad                                                  9     6      3    3096
                                              9 BANK0      9     6      3
                              _fputc
                              _fputs
                             _strlen
 ---------------------------------------------------------------------------------
 (6) _strlen                                               5     3      2     166
                                              2 COMMON     5     3      2
 ---------------------------------------------------------------------------------
 (6) _fputs                                                8     7      1    1367
                                              6 COMMON     4     3      1
                                              5 BANK0      4     4      0
                              _fputc
 ---------------------------------------------------------------------------------
 (7) _fputc                                                8     5      3     975
                                              3 COMMON     3     0      3
                                              0 BANK0      5     5      0
                              _putch
 ---------------------------------------------------------------------------------
 (8) _putch                                                1     1      0      31
                                              2 COMMON     1     1      0
 ---------------------------------------------------------------------------------
 (5) _isupper                                              6     4      2     191
                                              2 COMMON     6     4      2
 ---------------------------------------------------------------------------------
 (5) _isalpha                                              8     6      2     191
                                              2 COMMON     8     6      2
 ---------------------------------------------------------------------------------
 (1) _isDataAvailable                                      0     0      0       0
 ---------------------------------------------------------------------------------
 (1) _SYSTEM_Initialize                                    0     0      0       0
                 _EUSART1_Initialize
              _OSCILLATOR_Initialize
             _PIN_MANAGER_Initialize
                     _PMD_Initialize
                    _PWM3_Initialize
                    _PWM4_Initialize
                    _PWM5_Initialize
                    _TMR2_Initialize
 ---------------------------------------------------------------------------------
 (2) _TMR2_Initialize                                      0     0      0       0
 ---------------------------------------------------------------------------------
 (2) _PWM5_Initialize                                      0     0      0       0
 ---------------------------------------------------------------------------------
 (2) _PWM4_Initialize                                      0     0      0       0
 ---------------------------------------------------------------------------------
 (2) _PWM3_Initialize                                      0     0      0       0
 ---------------------------------------------------------------------------------
 (2) _PMD_Initialize                                       0     0      0       0
 ---------------------------------------------------------------------------------
 (2) _PIN_MANAGER_Initialize                               0     0      0       0
 ---------------------------------------------------------------------------------
 (2) _OSCILLATOR_Initialize                                0     0      0       0
 ---------------------------------------------------------------------------------
 (2) _EUSART1_Initialize                                   0     0      0       0
 ---------------------------------------------------------------------------------
 (1) _PWM5_LoadDutyValue                                   4     2      2     152
                                              2 COMMON     4     2      2
 ---------------------------------------------------------------------------------
 (1) _PWM4_LoadDutyValue                                   4     2      2     152
                                              2 COMMON     4     2      2
 ---------------------------------------------------------------------------------
 (1) _PWM3_LoadDutyValue                                   4     2      2     152
                                              2 COMMON     4     2      2
 ---------------------------------------------------------------------------------
 Estimated maximum stack depth 8
 ---------------------------------------------------------------------------------
 (Depth) Function   	        Calls       Base Space   Used Autos Params    Refs
 ---------------------------------------------------------------------------------
 (9) _Interrupt_Handler                                    0     0      0      22
                 _UART_Rx_IntHandler
 ---------------------------------------------------------------------------------
 (10) _UART_Rx_IntHandler                                  1     1      0      22
                                              1 COMMON     1     1      0
                               _echo
 ---------------------------------------------------------------------------------
 (11) _echo                                                1     1      0      22
                                              0 COMMON     1     1      0
 ---------------------------------------------------------------------------------
 Estimated maximum stack depth 11
 ---------------------------------------------------------------------------------

 Call Graph Graphs:

 _main (ROOT)
   _PWM3_LoadDutyValue
   _PWM4_LoadDutyValue
   _PWM5_LoadDutyValue
   _SYSTEM_Initialize
     _EUSART1_Initialize
     _OSCILLATOR_Initialize
     _PIN_MANAGER_Initialize
     _PMD_Initialize
     _PWM3_Initialize
     _PWM4_Initialize
     _PWM5_Initialize
     _TMR2_Initialize
   _isDataAvailable
   _printf
     _vfprintf
       _vfpfcnvrt
         _fputc
           _putch
         _xtoa
           _isalpha
           _isupper
           _pad
             _fputc
               _putch
             _fputs
               _fputc
                 _putch
             _strlen
           _toupper
             _islower

 _Interrupt_Handler (ROOT)
   _UART_Rx_IntHandler
     _echo

 Address spaces:
Name               Size   Autos  Total    Cost      Usage
BIGRAM             7F0      0       0       0        0.0%
NULL                 0      0       0       0        0.0%
CODE                 0      0       0       0        0.0%
BITCOMMON            E      0       0       1        0.0%
BITSFR0              0      0       0       1        0.0%
SFR0                 0      0       0       1        0.0%
COMMON               E      A       C       2       85.7%
BITSFR1              0      0       0       2        0.0%
SFR1                 0      0       0       2        0.0%
BITSFR2              0      0       0       3        0.0%
SFR2                 0      0       0       3        0.0%
STACK                0      0       0       3        0.0%
BITBANK0            50      0       0       4        0.0%
BITSFR3              0      0       0       4        0.0%
SFR3                 0      0       0       4        0.0%
BANK0               50     50      50       5      100.0%
BITSFR4              0      0       0       5        0.0%
SFR4                 0      0       0       5        0.0%
BITBANK1            50      0       0       6        0.0%
BITSFR5              0      0       0       6        0.0%
SFR5                 0      0       0       6        0.0%
BANK1               50     14      34       7       65.0%
BITSFR6              0      0       0       7        0.0%
SFR6                 0      0       0       7        0.0%
BITSFR7              0      0       0       8        0.0%
SFR7                 0      0       0       8        0.0%
ABS                  0      0      B0       8        0.0%
BITBANK2            50      0       0       9        0.0%
BITSFR8              0      0       0       9        0.0%
SFR8                 0      0       0       9        0.0%
BANK2               50      0      20      10       40.0%
BITSFR9              0      0       0      10        0.0%
SFR9                 0      0       0      10        0.0%
BITBANK3            50      0       0      11        0.0%
BITSFR10             0      0       0      11        0.0%
SFR10                0      0       0      11        0.0%
BANK3               50      0       0      12        0.0%
BITSFR11             0      0       0      12        0.0%
SFR11                0      0       0      12        0.0%
BITBANK4            50      0       0      13        0.0%
BITSFR12             0      0       0      13        0.0%
SFR12                0      0       0      13        0.0%
BANK4               50      0       0      14        0.0%
BITSFR13             0      0       0      14        0.0%
SFR13                0      0       0      14        0.0%
BITBANK5            50      0       0      15        0.0%
BITSFR14             0      0       0      15        0.0%
SFR14                0      0       0      15        0.0%
BANK5               50      0       0      16        0.0%
BITSFR15             0      0       0      16        0.0%
SFR15                0      0       0      16        0.0%
BITBANK6            50      0       0      17        0.0%
BITSFR16             0      0       0      17        0.0%
SFR16                0      0       0      17        0.0%
BANK6               50      0       0      18        0.0%
BITSFR17             0      0       0      18        0.0%
SFR17                0      0       0      18        0.0%
BITBANK7            50      0       0      19        0.0%
BITSFR18             0      0       0      19        0.0%
SFR18                0      0       0      19        0.0%
BANK7               50      0       0      20        0.0%
BITSFR19             0      0       0      20        0.0%
SFR19                0      0       0      20        0.0%
BITBANK8            50      0       0      21        0.0%
BITSFR20             0      0       0      21        0.0%
SFR20                0      0       0      21        0.0%
BANK8               50      0       0      22        0.0%
BITSFR21             0      0       0      22        0.0%
SFR21                0      0       0      22        0.0%
BITBANK9            50      0       0      23        0.0%
BITSFR22             0      0       0      23        0.0%
SFR22                0      0       0      23        0.0%
BANK9               50      0       0      24        0.0%
BITSFR23             0      0       0      24        0.0%
SFR23                0      0       0      24        0.0%
BITBANK10           50      0       0      25        0.0%
BITSFR24             0      0       0      25        0.0%
SFR24                0      0       0      25        0.0%
BANK10              50      0       0      26        0.0%
BITSFR25             0      0       0      26        0.0%
SFR25                0      0       0      26        0.0%
BITBANK11           50      0       0      27        0.0%
BITSFR26             0      0       0      27        0.0%
SFR26                0      0       0      27        0.0%
BANK11              50      0       0      28        0.0%
BITSFR27             0      0       0      28        0.0%
SFR27                0      0       0      28        0.0%
BITBANK12           50      0       0      29        0.0%
BITSFR28             0      0       0      29        0.0%
SFR28                0      0       0      29        0.0%
BANK12              50      0       0      30        0.0%
BITSFR29             0      0       0      30        0.0%
SFR29                0      0       0      30        0.0%
BITBANK13           50      0       0      31        0.0%
BITSFR30             0      0       0      31        0.0%
SFR30                0      0       0      31        0.0%
BANK13              50      0       0      32        0.0%
BITSFR31             0      0       0      32        0.0%
SFR31                0      0       0      32        0.0%
BITBANK14           50      0       0      33        0.0%
BITSFR32             0      0       0      33        0.0%
SFR32                0      0       0      33        0.0%
BANK14              50      0       0      34        0.0%
BITSFR33             0      0       0      34        0.0%
SFR33                0      0       0      34        0.0%
BITBANK15           50      0       0      35        0.0%
BITSFR34             0      0       0      35        0.0%
SFR34                0      0       0      35        0.0%
BANK15              50      0       0      36        0.0%
BITSFR35             0      0       0      36        0.0%
SFR35                0      0       0      36        0.0%
BITBANK16           50      0       0      37        0.0%
BITSFR36             0      0       0      37        0.0%
SFR36                0      0       0      37        0.0%
BANK16              50      0       0      38        0.0%
BITSFR37             0      0       0      38        0.0%
SFR37                0      0       0      38        0.0%
BITBANK17           50      0       0      39        0.0%
BITSFR38             0      0       0      39        0.0%
SFR38                0      0       0      39        0.0%
BANK17              50      0       0      40        0.0%
BITSFR39             0      0       0      40        0.0%
SFR39                0      0       0      40        0.0%
BITBANK18           50      0       0      41        0.0%
BITSFR40             0      0       0      41        0.0%
SFR40                0      0       0      41        0.0%
BANK18              50      0       0      42        0.0%
BITSFR41             0      0       0      42        0.0%
SFR41                0      0       0      42        0.0%
BITBANK19           50      0       0      43        0.0%
BITSFR42             0      0       0      43        0.0%
SFR42                0      0       0      43        0.0%
BANK19              50      0       0      44        0.0%
BITSFR43             0      0       0      44        0.0%
SFR43                0      0       0      44        0.0%
BITBANK20           50      0       0      45        0.0%
BITSFR44             0      0       0      45        0.0%
SFR44                0      0       0      45        0.0%
BANK20              50      0       0      46        0.0%
BITSFR45             0      0       0      46        0.0%
SFR45                0      0       0      46        0.0%
BITBANK21           50      0       0      47        0.0%
BITSFR46             0      0       0      47        0.0%
SFR46                0      0       0      47        0.0%
BANK21              50      0       0      48        0.0%
BITSFR47             0      0       0      48        0.0%
SFR47                0      0       0      48        0.0%
BITBANK22           50      0       0      49        0.0%
BITSFR48             0      0       0      49        0.0%
SFR48                0      0       0      49        0.0%
BANK22              50      0       0      50        0.0%
BITSFR49             0      0       0      50        0.0%
SFR49                0      0       0      50        0.0%
BITBANK23           50      0       0      51        0.0%
BITSFR50             0      0       0      51        0.0%
SFR50                0      0       0      51        0.0%
BANK23              50      0       0      52        0.0%
BITSFR51             0      0       0      52        0.0%
SFR51                0      0       0      52        0.0%
BITBANK24           50      0       0      53        0.0%
BITSFR52             0      0       0      53        0.0%
SFR52                0      0       0      53        0.0%
BANK24              50      0       0      54        0.0%
BITSFR53             0      0       0      54        0.0%
SFR53                0      0       0      54        0.0%
BITBANK25           20      0       0      55        0.0%
BITSFR54             0      0       0      55        0.0%
SFR54                0      0       0      55        0.0%
BANK25              20      0       0      56        0.0%
BITSFR55             0      0       0      56        0.0%
SFR55                0      0       0      56        0.0%
BITSFR56             0      0       0      57        0.0%
SFR56                0      0       0      57        0.0%
DATA                 0      0      B0      57        0.0%
BITSFR57             0      0       0      58        0.0%
SFR57                0      0       0      58        0.0%
BITSFR58             0      0       0      59        0.0%
SFR58                0      0       0      59        0.0%
BITSFR59             0      0       0      60        0.0%
SFR59                0      0       0      60        0.0%
BITSFR60             0      0       0      61        0.0%
SFR60                0      0       0      61        0.0%
BITSFR61             0      0       0      62        0.0%
SFR61                0      0       0      62        0.0%
BITSFR62             0      0       0      63        0.0%
SFR62                0      0       0      63        0.0%
BITSFR63             0      0       0      64        0.0%
SFR63                0      0       0      64        0.0%


Microchip Technology PIC Macro Assembler V2.10 build 88905656 
Symbol Table                                                                                   Thu Apr 09 16:47:19 2020

                    __CFG_CP$OFF 0000                               l92 05E6                               l86 0533  
                             l95 0617                               l89 05E2              ??_Interrupt_Handler 0072  
                    __CFG_LVP$ON 0000                              l221 05D8                              l154 0456  
                            l316 05FE                              l270 0629                              l318 0603  
                            l182 05FD                              l191 062F                              l319 0606  
                            l176 05CA                              l432 0341                              l440 0033  
                            l273 05A5                              l194 05BB                              l282 0623  
                            l179 05F5                              l435 0363                              l436 0370  
                            l444 0050                              l285 058F                              l437 037C  
                            l465 0167                              l481 03F0                              l474 0280  
                            l467 0199                              l944 0563                              l938 04E3  
                            l980 051A                              l990 04A5                              l974 0579  
                            l959 03BC                              l967 047F                              l985 04A5  
                            _PR2 028D                              _pad 0327                              _rgb 00B3  
        __size_of_PMD_Initialize 0008                  _TMR2_Initialize 05CB                  _PWM4_Initialize 0624  
                   __CFG_BORV$LO 0000                              wreg 0009                    __CFG_BBEN$OFF 0000  
             _UART_Rx_IntHandler 04A6                     __CFG_ZCD$OFF 0000                             l1002 054B  
                           l2001 0170                             l2003 0179                             l2011 01AD  
                           l2101 0628                             l2005 0186                             l2021 01E1  
                           l2013 01B5                             l2103 062A                             l2111 0621  
                           l2023 01F0                             l2031 0228                             l2015 01BA  
                           l2105 062D                             l2113 0622                             l2121 05D2  
                           l2033 0239                             l2041 0252                             l2025 01F8  
                           l2017 01BE                             l2009 019C                             l2131 05C9  
                           l2107 062E                             l2123 05D3                             l2115 05CB  
                           l2043 025A                             l2035 0241                             l2027 020A  
                           l2019 01D0                             l2211 02F1                             l2203 02C2  
                           l2061 0429                             l2109 061E                             l2125 05D5  
                           l2117 05CE                             l2037 024C                             l2141 03E9  
                           l2133 03BF                             l2213 02FC                             l2127 05BC  
                           l2071 0434                             l2063 042B                             l2055 0610  
                           l2119 05CF                             l2151 0524                             l2047 025D  
                           l2135 03C7                             l2215 0307                             l2207 02CA  
                           l2161 05A6                             l2129 05C7                             l2081 043A  
                           l2073 0436                             l2065 042D                             l2057 0424  
                           l2153 0527                             l2145 051B                             l2049 0276  
                           l2137 03CA                             l2209 02E6                             l2163 0590  
                           l2091 05DD                             l2083 043B                             l2075 0437  
                           l2067 042F                             l2059 0427                             l2155 052A  
                           l2147 051E                             l2139 03E0                             l2219 030A  
                           l2165 057A                             l2093 05E0                             l2085 043C  
                           l2077 0438                             l2069 0432                             l2157 052D  
                           l2149 0521                             l2173 0564                             l2181 0283  
                           l2095 05E1                             l2087 05D9                             l2079 0439  
                           l2159 0530                             l2167 05FE                             l2175 056A  
                           l2191 02A0                             l2183 0286                             l2089 05DC  
                           l2097 0624                             l2169 0604                             l2257 0314  
                           l2193 02A5                             l2185 028E                             l2099 0627  
                           l2195 02AD                             l2187 0291                             l2179 0281  
                           l2197 02B4                             l2189 0299                             l1911 0335  
                           l1903 0534                             l2199 02BA                             l1921 0355  
                           l1913 033A                             l1931 04C6                             l1923 0367  
                           l1915 033F                             l1907 0329                             l1917 0344  
                           l1909 032D                             l1941 049E                             l1927 054C  
                           l1871 037D                             l1919 0350                             l1935 0480  
                           l1951 0048                             l1881 03B4                             l1873 0382  
                           l1961 0077                             l1953 0058                             l1945 002A  
                           l1867 05F5                             l1875 0387                             l1891 046F  
                           l1939 0498                             l1971 00B6                             l1963 008F  
                           l1955 005C                             l1947 002F                             l1869 05FA  
                           l1877 038C                             l1885 0459                             l1893 0502  
                           l1973 00BC                             l1981 00EB                             l1965 0097  
                           l1957 0060                             l1949 0042                             ?_pad 0029  
                           l1879 0396                             l1887 045C                             l1895 0507  
                           l1991 013B                             l1983 00F4                             l1967 009E  
                           l1959 0074                             l1889 046A                             l1897 050B  
                           l1993 0148                             l1985 00F8                             l1977 00D9  
                           l1899 0514                             l1995 0155                             l1987 00FC  
                           l1979 00DF                             l1997 0163                             l1989 012D  
                           l1999 016B                             STR_1 05E7                             STR_2 04E4  
                           STR_3 03F1                             u1100 0514                             u1101 0513  
                           u1110 0544                             u1111 0542                             u1200 04DD  
                           u1040 05FA                             u1120 0545                             u1041 05F9  
                           u1050 0382                             u1130 032D                             u1210 0491  
                           u1051 0381                             u1131 032C                             u1211 048F  
                           u1060 0387                             u1140 033A                             u1220 0492  
                           u1300 00BC                             u1061 0386                             u1141 0339  
                           u1301 00BB                             u1070 0396                             u1150 0363  
                           u1230 049E                             u1310 00D2                             u1071 0395  
                           u1151 0362                             u1231 049D                             u1311 00D0  
                           u1080 03B4                             u1160 0367                             u1400 016B  
                           u1320 00D3                             u1240 002F                             u1081 03B3  
                           u1161 0366                             u1401 016A                             u1241 002E  
                           u1170 055C                             u1090 047F                             u1330 00DF  
                           u1250 0042                             u1410 01AD                             u1171 055A  
                           u1091 047E                             u1155 035F                             u1331 00DE  
                           u1251 0041                             u1411 01AC                             u1500 0603  
                           u1180 055D                             u1340 011A                             u1260 005C  
                           u1420 01D0                             u1501 0602                             u1085 03B0  
                           u1261 005B                             u1421 01CF                             _LATA 0018  
                           u1190 04DC                             u1350 013B                             u1270 008F  
                           u1430 01E1                             u1510 02AC                             _LATB 0019  
                           u1191 04DA                             u1351 013A                             u1271 008E  
                           u1255 003E                             u1431 01E0                             u1511 02AB  
                           _LATC 001A                             u1360 0148                             u1280 00AF  
                           u1440 0239                             u1361 0147                             u1345 0111  
                           u1281 00AD                             u1441 0238                             u1450 05E6  
                           u1370 0155                             u1290 00B0                             u1451 05E5  
                           u1371 0154                             u1355 0137                             u1275 008B  
                           u1380 0163                             u1460 03E9                             u1381 0162  
                           u1461 03E8                             u1390 0167                             u1391 0166  
                           u1375 0151                             u1385 015F                             _T2PR 028D  
                           u1475 05B5                             u1485 059F                             u1495 0589  
                           _PMD0 0796                             _PMD1 0797                             _PMD2 0798  
                           i1l31 060F                             _PMD3 0799                             _PMD4 079A  
                           i1l41 000E                             _PMD5 079B                             i1l35 04C5  
                           i1l28 060B                             _PLLR 4480        __end_of_Interrupt_Handler 0010  
                           _TMR2 028C                             _WPUA 1F39                             _WPUB 1F44  
                           _WPUC 1F4F                             _WPUE 1F65                    __CFG_FCMEN$ON 0000  
                           _echo 0607                             _dbuf 0120                             _main 0281  
                           _prec 00BA                             _nout 00B6                             pad@i 002D  
            ?_UART_Rx_IntHandler 0070                             pad@p 002A                             fsr0h 0005  
                           fsr1h 0007                             indf0 0000                             fsr0l 0004  
                           indf1 0001                             fsr1l 0006                             pad@w 002F  
                           btemp 007E                             _xtoa 0028                    __CFG_BOREN$ON 0000  
                           start 0010                  _PWM5_Initialize 061E                    __CFG_CSWEN$ON 0000  
                  __CFG_MCLRE$ON 0000       __end_of_PWM5_LoadDutyValue 0590                            ??_pad 002C  
 __size_of_OSCILLATOR_Initialize 000E    __end_of_OSCILLATOR_Initialize 05E7                            ?_echo 0070  
                          ?_main 0070             ??_UART_Rx_IntHandler 0071                    __CFG_WDTE$OFF 0000  
                          ?_xtoa 0032                            _T2CON 028E                            _T2HLT 028F  
                          _T2TMR 028C                            _T2RST 0291                            _OSCEN 0891  
                   vfpfcnvrt@fmt 0058               _PWM4_LoadDutyValue 0590                     vfpfcnvrt@llu 005F  
                          _TRISA 0012                            _TRISB 0013                            _TRISC 0014  
                          u94_20 060F                            u94_21 060E                            u97_20 04BF  
                          u97_21 04BE                    __CFG_WRTB$OFF 0000                    __CFG_WRTC$OFF 0000  
                          _flags 007A                            _fputc 037D                  __end_of_isalpha 04E4  
                          _fputs 0457              ?_PWM4_LoadDutyValue 0072                            pad@fp 0031  
                          _width 00B8                            _putch 05F4                  __end_of_islower 054C  
        __end_of_PWM3_Initialize 0630                  __end_of_isupper 0564                            status 0003  
                          wtemp0 007E                            xtoa@c 0056                            xtoa@d 0032  
                          xtoa@i 0054                            xtoa@n 004C                            xtoa@p 0048  
                          xtoa@w 004A                            xtoa@x 003A                  __end_of_toupper 04A6  
                   _toupper$1006 0024                  __initialization 0012                 ?_isDataAvailable 0070  
                   __end_of_echo 0610       __end_of_EUSART1_Initialize 05CB                     __end_of_main 0327  
           ??_PWM4_LoadDutyValue 0074                     __end_of_xtoa 019A                   __CFG_SAFEN$OFF 0000  
        __end_of_PWM4_Initialize 062A          __end_of_TMR2_Initialize 05D9                           ??_echo 0070  
                         ??_main 00CE                           ??_xtoa 003B                           ?_fputc 0073  
                         ?_fputs 0076                           _ANSELA 1F38                           ?_putch 0070  
                         _ANSELB 1F43                           _ANSELC 1F4E                           _RC1REG 0119  
                         _RC0PPS 1F20                           _RC1PPS 1F21                           _RC1STA 011D  
                         _RC2PPS 1F22                           u102_20 000B                           u102_21 000A  
     __size_of_Interrupt_Handler 000C                           _ODCONA 1F3A                           _ODCONB 1F45  
                         _ODCONC 1F50                           _RC6PPS 1F26                           i1l1741 04AC  
                         i1l1647 0608                           i1l1743 04B4                           i1l1745 04B8  
                         i1l1747 04BF                           i1l1739 04A6          __end_of_PWM5_Initialize 0624  
                         i1l1749 04C3                           i1l1785 0006                           i1l1787 000B  
                 __CFG_WDTCCS$SC 0000                           _INLVLA 1F3C                           _INLVLB 1F47  
                         _INLVLC 1F52                           _INLVLE 1F68                           _OSCFRQ 0893  
                         _TX1REG 011A                           _TX1STA 011E                   __CFG_PWRTE$OFF 0000  
                   vfprintf@cfmt 00C1      __size_of_PWM3_LoadDutyValue 0016                   __CFG_STVREN$ON 0000  
                         _printf 0564                           pad@buf 0029                           _strlen 0501  
                         fputc@c 0073                   _PMD_Initialize 0610                           fputs@c 0025  
                         fputs@i 0026                           fputs@s 0028                        ??_isalpha 0074  
                      ??_islower 0074                        ??_isupper 0074                 __end_of_vfprintf 03F1  
                         xtoa@fp 0047                        ??_toupper 0020                 ?_PWM3_Initialize 0070  
              _SYSTEM_Initialize 051B          __end_of__initialization 0024               ?_SYSTEM_Initialize 0070  
                 __pcstackCOMMON 0070              ??_SYSTEM_Initialize 0072                    __end_of_fputc 03BD  
                  __end_of_fputs 0480                    __end_of_putch 05FE                 ?_TMR2_Initialize 0070  
               ?_PWM4_Initialize 0070           __end_of_PMD_Initialize 0618      PWM4_LoadDutyValue@dutyValue 0072  
                        ??_fputc 0020        __end_of_SYSTEM_Initialize 0534                          ??_fputs 0077  
                        ??_putch 0072                       __pbssBANK1 00A0                       __pbssBANK2 0120  
               ?_PWM5_Initialize 0070                       __pmaintext 0281                  __CFG_PPS1WAY$ON 0000  
                     __pintentry 0004                          ?_printf 00C3                  ?_PMD_Initialize 0070  
                        ?_strlen 0072               _PWM5_LoadDutyValue 057A                          _SP1BRGH 011C  
                        _SP1BRGL 011B                          _OSCCON1 088D                          _OSCCON3 088F  
             __size_of_vfpfcnvrt 00E7                          _OSCSTAT 0890                          _OSCTUNE 0892  
                        _PWM3DCH 0315                          _PWM3DCL 0314                          _PWM4DCH 0319  
                        _PWM4DCL 0318                          _PWM5DCH 031D                          _PWM5DCL 031C  
                        _PWM3CON 0316                          _PWM4CON 031A                          _PWM5CON 031E  
                        _SLRCONA 1F3B                          _SLRCONB 1F46                          _SLRCONC 1F51  
            ?_PWM5_LoadDutyValue 0072                        ?_vfprintf 0069             ??_PWM5_LoadDutyValue 0074  
                        __ptext1 0564                          __ptext2 03BD                          __ptext3 019A  
                        __ptext4 0028                          __ptext5 0480                          __ptext6 0534  
                        __ptext7 0327                          __ptext8 0501                          __ptext9 0457  
                __size_of_printf 0016      __size_of_UART_Rx_IntHandler 0020                  __CFG_WRTAPP$OFF 0000  
                __size_of_strlen 001A            _OSCILLATOR_Initialize 05D9                        _T2CONbits 028E  
                   __size_of_pad 0056                          _isalpha 04C6               _EUSART1_Initialize 05BC  
                        _islower 0534         ??_PIN_MANAGER_Initialize 0072                        _T2HLTbits 028F  
                __CFG_WRTSAF$OFF 0000                          _isupper 054C       __size_of_SYSTEM_Initialize 0019  
                        clrloop0 0619                          _toupper 0480             end_of_initialization 0024  
                      _T2RSTbits 0291              ?_EUSART1_Initialize 0070                          fputc@fp 0075  
                        fputs@fp 0076                __end_of_vfpfcnvrt 0281      __size_of_PWM4_LoadDutyValue 0016  
                     ??_vfprintf 006C             ??_EUSART1_Initialize 0072            __CFG_WDTCPS$WDTCPS_31 0000  
                        strlen@a 0075                          strlen@s 0076         __size_of_isDataAvailable 0009  
               __CFG_FEXTOSC$OFF 0000       __end_of_PWM3_LoadDutyValue 05BC                      vfpfcnvrt@ap 0059  
                    vfpfcnvrt@fp 0068           ?_OSCILLATOR_Initialize 0070                   __end_of_printf 057A  
                 __end_of_strlen 051B                 _UARTReceivedByte 00BE              start_initialization 0012  
__size_of_PIN_MANAGER_Initialize 0033                      __end_of_pad 037D                      putch@txData 0072  
               __CFG_LPBOREN$OFF 0000         __size_of_PWM3_Initialize 0006                      vfprintf@fmt 0069  
               ??_PMD_Initialize 0072                         ??_printf 006E                         ??_strlen 0074  
    PWM5_LoadDutyValue@dutyValue 0072                      __pbssCOMMON 007A                        ___latbits 0003  
                  __pcstackBANK0 0020                    __pcstackBANK1 00C0         __size_of_PWM4_Initialize 0006  
       __size_of_TMR2_Initialize 000E                ??_isDataAvailable 0072                  _UARTBufferIndex 00BF  
         _PIN_MANAGER_Initialize 0424         __size_of_PWM5_Initialize 0006                __size_of_vfprintf 0034  
                       _BAUD1CON 011F                         ?_isalpha 0072                         ?_islower 0072  
                       ?_isupper 0072             __CFG_RSTOSC$HFINTPLL 0000                   __size_of_fputc 0040  
                       _T2CLKCON 0290                   __size_of_fputs 0029                         ?_toupper 0078  
                 __size_of_putch 000A                        clear_ram0 0618                         _PIE3bits 0719  
                       _PIR3bits 070F                         _PIR4bits 0710                         _RX1DTPPS 1ECB  
              __CFG_BBSIZE$BB512 0000       __end_of_UART_Rx_IntHandler 04C6      __size_of_PWM5_LoadDutyValue 0016  
                      _vfpfcnvrt 019A                        _updateRGB 00BC                ??_PWM3_Initialize 0072  
                      main@state 006F                  _EnterKeyPressed 00BD                       vfpfcnvrt@c 0067  
              ??_TMR2_Initialize 0072                ??_PWM4_Initialize 0072       __end_of_PWM4_LoadDutyValue 05A6  
                     vfprintf@ap 006B                       vfprintf@fp 00C0          ??_OSCILLATOR_Initialize 0072  
    __size_of_EUSART1_Initialize 000F                       ?_vfpfcnvrt 0058                ??_PWM5_Initialize 0072  
             _PWM3_LoadDutyValue 05A6                 __size_of_isalpha 001E                 __size_of_islower 0018  
                       __ptext10 037D                         __ptext11 05F4                         __ptext20 0610  
                       __ptext12 054C                         __ptext21 0424                         __ptext13 04C6  
                       __ptext22 05D9                         __ptext14 05FE                         __ptext23 05BC  
                       __ptext15 051B                         __ptext24 057A                         __ptext16 05CB  
                       __ptext25 0590                         __ptext17 061E                         __ptext26 05A6  
                       __ptext18 0624                         __ptext19 062A                         __ptext28 04A6  
                       __ptext29 0607              ?_PWM3_LoadDutyValue 0072                 __size_of_isupper 0018  
                       _colorHex 00B0                 __size_of_toupper 0026                         echo@byte 0070  
                  __size_of_echo 0009                    __size_of_main 00A6                    __size_of_xtoa 0172  
           __CFG_WDTCWS$WDTCWS_7 0000             ??_PWM3_LoadDutyValue 0074                         int$flags 007E  
                       _xtoa$638 0043                         _xtoa$639 0045                         _vfprintf 03BD  
                      printf@fmt 00C3                  _isDataAvailable 05FE                       _INTCONbits 000B  
                       isalpha@c 0072                         intlevel1 0000                         islower@c 0072  
        ?_PIN_MANAGER_Initialize 0070                __CFG_CLKOUTEN$OFF 0000                         isupper@c 0072  
                       printf@ap 00CD      PWM3_LoadDutyValue@dutyValue 0072                      ??_vfpfcnvrt 005A  
                  __pstringtext1 03F1                    __pstringtext2 04E4                    __pstringtext3 05E7  
                  __pstringtext4 0000                       _UARTBuffer 00A0                         toupper@c 0078  
                     _TX1STAbits 011E   __end_of_PIN_MANAGER_Initialize 0457                _Interrupt_Handler 0004  
                _PWM3_Initialize 062A               ?_Interrupt_Handler 0070          __end_of_isDataAvailable 0607  
